 Game

 Timestamp is 4ded0352 (Tue Jun 07 00:41:54 2011)

 Preferred load address is 00400000

 Start         Length     Name                   Class
 0001:00000000 000576fcH .text                   CODE
 0001:00057700 00004cccH .text$x                 CODE
 0002:00000000 00000380H .idata$5                DATA
 0002:00000380 0000198cH .rdata                  DATA
 0002:00001d10 00004cf0H .xdata$x                DATA
 0002:00006a00 000000a0H .idata$2                DATA
 0002:00006aa0 00000014H .idata$3                DATA
 0002:00006ab4 00000380H .idata$4                DATA
 0002:00006e34 000016b4H .idata$6                DATA
 0002:000084e8 00000000H .edata                  DATA
 0003:00000000 00000004H .CRT$XCA                DATA
 0003:00000004 00000068H .CRT$XCU                DATA
 0003:0000006c 00000004H .CRT$XCZ                DATA
 0003:00000070 00000004H .CRT$XIA                DATA
 0003:00000074 00000004H .CRT$XIZ                DATA
 0003:00000080 00004995H .data                   DATA
 0003:00004a18 00003640H .bss                    DATA
 0004:00000000 000000a0H .rsrc$01                DATA
 0004:000000a0 000008c0H .rsrc$02                DATA

  Address         Publics by Value              Rva+Base     Lib:Object

 0001:00000000       ?ALW_GetWndPosition@@YAXAAH0HH_N1@Z 00401000 f   AutoLocateWnd.obj
 0001:000000d0       ?gGetComClassFactory@@YAPAVKComClassFactory@@XZ 004010d0 f   ComWindow.obj
 0001:000000e0       ??0KComClassFactory@@QAE@XZ 004010e0 f   ComWindow.obj
 0001:000000f0       ?FindComClass@KComClassFactory@@QAEPAUKComClassInfo@@PBD@Z 004010f0 f   ComWindow.obj
 0001:00000160       ?FindComClass@KComClassFactory@@QAEPAUKComClassInfo@@PBU2@@Z 00401160 f   ComWindow.obj
 0001:00000180       ?RegisterComClass@KComClassFactory@@QAEHABUKComClassInfo@@@Z 00401180 f   ComWindow.obj
 0001:000001c0       ?CreateComObject@KComClassFactory@@QAEPAVKWndWindow@@PBD@Z 004011c0 f   ComWindow.obj
 0001:00000200       ?SetHoverObjDescColor@@YAXI@Z 00401200 f   MouseHover.obj
 0001:00000210       ?SetMouseHoverObjectDesc@@YAXPAXHIIHHH@Z 00401210 f   MouseHover.obj
 0001:000003b0       ?DrawDraggingGameObjFunc@@YAHHHABUKUiDraggedObject@@H@Z 004013b0 f   MouseHover.obj
 0001:000003e0       ??0KMouseOver@@QAE@XZ      004013e0 f   MouseHover.obj
 0001:00000470       ?IsMoseHoverWndObj@KMouseOver@@QAEHPAXH@Z 00401470 f   MouseHover.obj
 0001:000004a0       ?CancelMouseHoverInfo@KMouseOver@@QAEXXZ 004014a0 f   MouseHover.obj
 0001:000004e0       ?SetMouseHoverInfo@KMouseOver@@QAEXPAXHHH_N1@Z 004014e0 f   MouseHover.obj
 0001:00000550       ?SetMouseHoverTitle@KMouseOver@@QAEXPBDHI@Z 00401550 f   MouseHover.obj
 0001:000005c0       ?SetMouseHoverProp@KMouseOver@@QAEXPBDHI@Z 004015c0 f   MouseHover.obj
 0001:00000630       ?SetMouseHoverDesc@KMouseOver@@QAEXPBDHI@Z 00401630 f   MouseHover.obj
 0001:000006a0       ?Update@KMouseOver@@AAEXHH@Z 004016a0 f   MouseHover.obj
 0001:00000830       ?UpdateCursorPos@KMouseOver@@QAEXHH@Z 00401830 f   MouseHover.obj
 0001:00000860       ?OnWndClosed@KMouseOver@@QAEXPAX@Z 00401860 f   MouseHover.obj
 0001:00000880       ?LoadScheme@KMouseOver@@QAEXPBD@Z 00401880 f   MouseHover.obj
 0001:00000b00       ?PaintMouseHoverInfo@KMouseOver@@QAEXXZ 00401b00 f   MouseHover.obj
 0001:00000de0       ?OnWndDelete@KPopupMenu@@SAXPAVKWndWindow@@@Z 00401de0 f   PopupMenu.obj
 0001:00000e00       ?Popup@KPopupMenu@@SAXPAUKPopupMenuData@@PAVKWndWindow@@I@Z 00401e00 f   PopupMenu.obj
 0001:00001100       ?PaintMenu@KPopupMenu@@SAXXZ 00402100 f   PopupMenu.obj
 0001:000017c0       ?HandleInput@KPopupMenu@@SAHIIH@Z 004027c0 f   PopupMenu.obj
 0001:000018a0       ?SelectItem@KPopupMenu@@CA_NH_N@Z 004028a0 f   PopupMenu.obj
 0001:00001930       ?SelectItem@KPopupMenu@@CA_NHH_N@Z 00402930 f   PopupMenu.obj
 0001:00001a50       ?Cancel@KPopupMenu@@SAXXZ  00402a50 f   PopupMenu.obj
 0001:00001a80       ?InitMenuData@KPopupMenu@@SAXPAUKPopupMenuData@@H@Z 00402a80 f   PopupMenu.obj
 0001:00001b50       ?LoadTheme@KPopupMenu@@SAXPBD@Z 00402b50 f   PopupMenu.obj
 0001:00001e70       ?OutputTabSplitText@@YAHPBDHHHPAUKOutputTextParam@@@Z 00402e70 f   SpecialFuncs.obj
 0001:00001ff0       ?SetScrPicPath@@YA_NPBD@Z  00402ff0 f   SpecialFuncs.obj
 0001:000020b0       ?GetAPrintScreenFileName@@YA_NPADH@Z 004030b0 f   SpecialFuncs.obj
 0001:000020f0       ?SaveScreenToFile@@YAXW4ScreenFileType@@I@Z 004030f0 f   SpecialFuncs.obj
 0001:000021c0       ??0KInlinePicSink@@QAE@XZ  004031c0 f   TextPic.obj
 0001:00002210       ?Init@KInlinePicSink@@QAEHPAUiRepresentShell@@@Z 00403210 f   TextPic.obj
 0001:00002700       ?UnInit@KInlinePicSink@@QAEHXZ 00403700 f   TextPic.obj
 0001:00002730       ?GetPicSize@KInlinePicSink@@UAEJGAAH0@Z 00403730 f   TextPic.obj
 0001:00002840       ?DrawPic@KInlinePicSink@@UAEJGHH@Z 00403840 f   TextPic.obj
 0001:00002940       ?AddCustomInlinePic@KInlinePicSink@@UAEJAAGPBD@Z 00403940 f   TextPic.obj
 0001:00002cd0       ?RemoveCustomInlinePic@KInlinePicSink@@UAEJG@Z 00403cd0 f   TextPic.obj
 0001:00002d40       ?_Destroy@?$vector@UKImageParam@@V?$allocator@UKImageParam@@@std@@@std@@IAEXPAUKImageParam@@0@Z 00403d40 f i TextPic.obj
 0001:00002d50       ?insert@?$vector@UKUiImageRef@@V?$allocator@UKUiImageRef@@@std@@@std@@QAEXPAUKUiImageRef@@IABU3@@Z 00403d50 f i TextPic.obj
 0001:00003070       ?size@?$vector@UKImageParam@@V?$allocator@UKImageParam@@@std@@@std@@QBEIXZ 00404070 f i TextPic.obj
 0001:000030a0       ?_Ucopy@?$vector@UKImageParam@@V?$allocator@UKImageParam@@@std@@@std@@IAEPAUKImageParam@@PBU3@0PAU3@@Z 004040a0 f i TextPic.obj
 0001:000030f0       ?_Ufill@?$vector@UKImageParam@@V?$allocator@UKImageParam@@@std@@@std@@IAEXPAUKImageParam@@IABU3@@Z 004040f0 f i TextPic.obj
 0001:00003140       ?_Construct@std@@YAXPAUKImageParam@@ABU2@@Z 00404140 f i TextPic.obj
 0001:00003170       ??0KUiCursor@@QAE@XZ       00404170 f   UiCursor.obj
 0001:000031a0       ?Cleanup@KUiCursor@@QAEXXZ 004041a0 f   UiCursor.obj
 0001:000031d0       ??1KUiCursor@@QAE@XZ       004041d0 f   UiCursor.obj
 0001:000031e0       ?SetPosition@KUiCursor@@QAEXHH@Z 004041e0 f   UiCursor.obj
 0001:00003200       ?GetPosition@KUiCursor@@QAEXAAH0@Z 00404200 f   UiCursor.obj
 0001:00003220       ?KUiLoadCursor@@YAHPBDAAPAUHICON__@@@Z 00404220 f   UiCursor.obj
 0001:00003410       ?SetImage@KUiCursor@@QAEXHPBD@Z 00404410 f   UiCursor.obj
 0001:00003450       ?SwitchImage@KUiCursor@@QAEHH@Z 00404450 f   UiCursor.obj
 0001:00003490       ?RestoreCursor@KUiCursor@@QAEXXZ 00404490 f   UiCursor.obj
 0001:000034a0       ?Paint@KUiCursor@@QAEXXZ   004044a0 f   UiCursor.obj
 0001:000034b0       ?Show@KUiCursor@@QAEXH@Z   004044b0 f   UiCursor.obj
 0001:000034c0       ?IR_GetCurrentTime@@YAIXZ  004044c0 f   UiImage.obj
 0001:000034d0       ?IR_UpdateTime@@YAXXZ      004044d0 f   UiImage.obj
 0001:000034e0       ?IR_InitUiImageRef@@YAXAAUKUiImageRef@@@Z 004044e0 f   UiImage.obj
 0001:00003500       ?IR_InitUiImagePartRef@@YAXAAUKUiImagePartRef@@@Z 00404500 f   UiImage.obj
 0001:00003520       ?IR_IsTimePassed@@YAHIAAI@Z 00404520 f   UiImage.obj
 0001:00003550       ?IR_GetRemainTime@@YAIII@Z 00404550 f   UiImage.obj
 0001:00003570       ?IR_NextFrame@@YAHAAUKUiImageRef@@@Z 00404570 f   UiImage.obj
 0001:00003650       ?IR_UpdateImagePart@@YAXAAUKUiImagePartRef@@HH@Z 00404650 f   UiImage.obj
 0001:00003820       ?IR_DrawImage@@YAXPAUKUiImageRef@@@Z 00404820 f   UiImage.obj
 0001:00003840       ?IR_DrawImagePart@@YAXPAUKUiImagePartRef@@@Z 00404840 f   UiImage.obj
 0001:00003860       ?IR_GetSpritePixcelAlpha@@YAHAAUKUiImageRef@@HH@Z 00404860 f   UiImage.obj
 0001:000038a0       ?IR_GetReferenceSpot@@YAXAAUKUiImageRef@@AAH1@Z 004048a0 f   UiImage.obj
 0001:00003900       ?SetAllButtonTipTextColor@KWndButton@@SAXI@Z 00404900 f   WndButton.obj
 0001:00003910       ?EnableAllButtonTip@KWndButton@@SAXH@Z 00404910 f   WndButton.obj
 0001:00003930       ??0KWndButton@@QAE@XZ      00404930 f   WndButton.obj
 0001:00003980       ?UpdateData@KWndWindow@@UAEXXZ 00404980 f i WndButton.obj
 0001:00003990       ?CloseWindow@KWndWindow@@UAEH_N@Z 00404990 f i WndButton.obj
 0001:000039a0       ?Breathe@KWndWindow@@EAEXXZ 004049a0 f i WndButton.obj
 0001:000039b0       ?GetShortKey@KWndButton@@UAEPBDXZ 004049b0 f i WndButton.obj
 0001:000039c0       ?OnButtonClick@KWndButton@@UAEXXZ 004049c0 f i WndButton.obj
 0001:000039d0       ??_EKWndButton@@UAEPAXI@Z  004049d0 f i WndButton.obj
 0001:000039d0       ??_GKWndButton@@UAEPAXI@Z  004049d0 f i WndButton.obj
 0001:000039f0       ??1KWndButton@@UAE@XZ      004049f0 f i WndButton.obj
 0001:00003a00       ?Clone@KWndButton@@QAEXPAV1@@Z 00404a00 f   WndButton.obj
 0001:00003aa0       ?Init@KWndButton@@UAEHPAVKIniFile@@PBD@Z 00404aa0 f   WndButton.obj
 0001:00003ca0       ?IsButtonChecked@KWndButton@@QAEHXZ 00404ca0 f   WndButton.obj
 0001:00003cb0       ?CheckButton@KWndButton@@QAEXH@Z 00404cb0 f   WndButton.obj
 0001:00003cf0       ?IsButtonActive@KWndButton@@QAEHXZ 00404cf0 f   WndButton.obj
 0001:00003d00       ?WndProc@KWndButton@@UAEHIIH@Z 00404d00 f   WndButton.obj
 0001:00003fb0       ?GetToolTipInfo@KWndButton@@UAEHPADH@Z 00404fb0 f   WndButton.obj
 0001:00004060       ?SetToolTipInfo@KWndButton@@QAEHPADH@Z 00405060 f   WndButton.obj
 0001:000040d0       ?PaintWindow@KWndButton@@UAEXXZ 004050d0 f   WndButton.obj
 0001:00004110       ?OnLBtnDown@KWndButton@@AAEX_N@Z 00405110 f   WndButton.obj
 0001:00004200       ?OnLBtnUp@KWndButton@@AAEXXZ 00405200 f   WndButton.obj
 0001:00004260       ?OnLBtnDownMove@KWndButton@@AAEXXZ 00405260 f   WndButton.obj
 0001:00004290       ?Enable@KWndButton@@UAEXH@Z 00405290 f   WndButton.obj
 0001:00004300       ??0KWndImageTextButton@@QAE@XZ 00405300 f   WndButton.obj
 0001:00004380       ??_EKWndImageTextButton@@UAEPAXI@Z 00405380 f i WndButton.obj
 0001:00004380       ??_GKWndImageTextButton@@UAEPAXI@Z 00405380 f i WndButton.obj
 0001:000043a0       ??1KWndMovingImage@@UAE@XZ 004053a0 f i WndButton.obj
 0001:000043b0       ??1KWndImagePart@@UAE@XZ   004053b0 f i WndButton.obj
 0001:000043c0       ??1KWndImageTextButton@@UAE@XZ 004053c0 f i WndButton.obj
 0001:00004430       ?Init@KWndImageTextButton@@UAEHPAVKIniFile@@PBD@Z 00405430 f   WndButton.obj
 0001:00004530       ?Set2IntText@KWndImageTextButton@@QAEXHHD@Z 00405530 f   WndButton.obj
 0001:00004550       ?SetIntText@KWndImageTextButton@@QAEXHD@Z 00405550 f   WndButton.obj
 0001:00004570       ?SetText@KWndImageTextButton@@QAEXPBDH@Z 00405570 f   WndButton.obj
 0001:00004590       ?GetText@KWndImageTextButton@@QAEHPADH@Z 00405590 f   WndButton.obj
 0001:000045b0       ?Set2IntValue@KWndImageTextButton@@QAEXHH@Z 004055b0 f   WndButton.obj
 0001:000045e0       ??0KWndChessPanel@@AAE@XZ  004055e0 f   WndChessPanel.obj
 0001:00004600       ??_EKWndChessPanel@@EAEPAXI@Z 00405600 f i WndChessPanel.obj
 0001:00004600       ??_GKWndChessPanel@@EAEPAXI@Z 00405600 f i WndChessPanel.obj
 0001:00004620       ??1KWndChessPanel@@EAE@XZ  00405620 f   WndChessPanel.obj
 0001:00004630       ?OpenWindow@KWndChessPanel@@SAPAV1@_N@Z 00405630 f   WndChessPanel.obj
 0001:000046f0       ?CloseWindow@KWndChessPanel@@SAX_N@Z 004056f0 f   WndChessPanel.obj
 0001:00004730       ?Clear@KWndChessPanel@@SAXXZ 00405730 f   WndChessPanel.obj
 0001:00004740       ?GetIfVisible@KWndChessPanel@@SAPAV1@XZ 00405740 f   WndChessPanel.obj
 0001:00004760       ?PaintWindow@KWndChessPanel@@UAEXXZ 00405760 f   WndChessPanel.obj
 0001:00004880       ?PtInWindow@KWndChessPanel@@UAEHHH@Z 00405880 f   WndChessPanel.obj
 0001:00004890       ?WndProc@KWndChessPanel@@UAEHIIH@Z 00405890 f   WndChessPanel.obj
 0001:000048a0       ?Initialize@KWndChessPanel@@AAEXXZ 004058a0 f   WndChessPanel.obj
 0001:000048b0       ?Init@KWndChessPanel@@UAEHPAVKIniFile@@PBD@Z 004058b0 f   WndChessPanel.obj
 0001:00004900       ??0KWndEdit@@QAE@XZ        00405900 f   WndEdit.obj
 0001:00004940       ??_GKWndEdit@@UAEPAXI@Z    00405940 f i WndEdit.obj
 0001:00004940       ??_EKWndEdit@@UAEPAXI@Z    00405940 f i WndEdit.obj
 0001:00004960       ??1KWndEdit@@UAE@XZ        00405960 f   WndEdit.obj
 0001:00004970       ?Clone@KWndEdit@@QAEXPAV1@@Z 00405970 f   WndEdit.obj
 0001:000049c0       ?Init@KWndEdit@@UAEHPAVKIniFile@@PBD@Z 004059c0 f   WndEdit.obj
 0001:00004c00       ?Enable@KWndEdit@@UAEXH@Z  00405c00 f   WndEdit.obj
 0001:00004c40       ?WndProc@KWndEdit@@UAEHIIH@Z 00405c40 f   WndEdit.obj
 0001:00004e70       ?SetColor@KWndEdit@@QAEXI@Z 00405e70 f   WndEdit.obj
 0001:00004e80       ?InsertString@KWndEdit@@QAEHPBDH@Z 00405e80 f   WndEdit.obj
 0001:00004f40       ?Paste@KWndEdit@@AAEHXZ    00405f40 f   WndEdit.obj
 0001:00004f80       ?OnKeyDown@KWndEdit@@IAEHHH@Z 00405f80 f   WndEdit.obj
 0001:00005380       ?InsertChar@KWndEdit@@IAEHH@Z 00406380 f   WndEdit.obj
 0001:00005430       ?InsertChar@KWndEdit@@IAEHDD@Z 00406430 f   WndEdit.obj
 0001:000054e0       ?UpdateData@KWndEdit@@EAEXXZ 004064e0 f   WndEdit.obj
 0001:00005500       ?FmtForShow@KWndEdit@@AAEXXZ 00406500 f   WndEdit.obj
 0001:000056c0       ?SplitStringLine@@YAHPADHH@Z 004066c0 f   WndEdit.obj
 0001:00005720       ?PaintWindow@KWndEdit@@UAEXXZ 00406720 f   WndEdit.obj
 0001:00005a40       ?SetTextPtr@KWndEdit@@IAEXPADH@Z 00406a40 f   WndEdit.obj
 0001:00005a70       ?SetText@KWndEdit@@QAEXPBD@Z 00406a70 f   WndEdit.obj
 0001:00005ae0       ?ClearText@KWndEdit@@QAEX_N@Z 00406ae0 f   WndEdit.obj
 0001:00005b30       ?SetIntText@KWndEdit@@QAEXH@Z 00406b30 f   WndEdit.obj
 0001:00005b70       ?GetIntNumber@KWndEdit@@QAEHXZ 00406b70 f   WndEdit.obj
 0001:00005b90       ?GetText@KWndEdit@@QAEHPADH_N@Z 00406b90 f   WndEdit.obj
 0001:00005c10       ?GetCaretPosition@KWndEdit@@QAEXPAH0@Z 00406c10 f   WndEdit.obj
 0001:00005c50       ??0KWndEdit32@@QAE@XZ      00406c50 f   WndEdit.obj
 0001:00005c80       ??_EKWndEdit32@@UAEPAXI@Z  00406c80 f i WndEdit.obj
 0001:00005c80       ??_GKWndEdit32@@UAEPAXI@Z  00406c80 f i WndEdit.obj
 0001:00005ca0       ??1KWndEdit32@@UAE@XZ      00406ca0 f i WndEdit.obj
 0001:00005cb0       ??0KWndEdit512@@QAE@XZ     00406cb0 f   WndEdit.obj
 0001:00005ce0       ??_EKWndEdit512@@UAEPAXI@Z 00406ce0 f i WndEdit.obj
 0001:00005ce0       ??_GKWndEdit512@@UAEPAXI@Z 00406ce0 f i WndEdit.obj
 0001:00005d00       ??1KWndEdit512@@UAE@XZ     00406d00 f i WndEdit.obj
 0001:00005d10       ??0KWndImage@@QAE@XZ       00406d10 f   WndImage.obj
 0001:00005d60       ??_EKWndImage@@UAEPAXI@Z   00406d60 f i WndImage.obj
 0001:00005d60       ??_GKWndImage@@UAEPAXI@Z   00406d60 f i WndImage.obj
 0001:00005d80       ??1KWndImage@@UAE@XZ       00406d80 f i WndImage.obj
 0001:00005d90       ?Clone@KWndImage@@QAEXPAV1@@Z 00406d90 f   WndImage.obj
 0001:00005dc0       ?Init@KWndImage@@UAEHPAVKIniFile@@PBD@Z 00406dc0 f   WndImage.obj
 0001:00005f30       ?PtInWindow@KWndImage@@UAEHHH@Z 00406f30 f   WndImage.obj
 0001:00005fb0       ?SetFrame@KWndImage@@QAEXH@Z 00406fb0 f   WndImage.obj
 0001:00005fc0       ?SetImage@KWndImage@@QAEXFPBD_N@Z 00406fc0 f   WndImage.obj
 0001:00006050       ?UpdateTimer@KWndImage@@QAEXXZ 00407050 f   WndImage.obj
 0001:00006060       ?NextFrame@KWndImage@@QAEHXZ 00407060 f   WndImage.obj
 0001:00006070       ?PaintWindow@KWndImage@@UAEXXZ 00407070 f   WndImage.obj
 0001:000060b0       ??0KWndImagePart@@QAE@XZ   004070b0 f   WndImagePart.obj
 0001:00006100       ??_GKWndImagePart@@UAEPAXI@Z 00407100 f i WndImagePart.obj
 0001:00006100       ??_EKWndImagePart@@UAEPAXI@Z 00407100 f i WndImagePart.obj
 0001:00006120       ?Clone@KWndImagePart@@IAEXPAV1@@Z 00407120 f   WndImagePart.obj
 0001:00006160       ?Init@KWndImagePart@@UAEHPAVKIniFile@@PBD@Z 00407160 f   WndImagePart.obj
 0001:00006220       ?PaintWindow@KWndImagePart@@UAEXXZ 00407220 f   WndImagePart.obj
 0001:00006260       ?SetPart@KWndImagePart@@QAEXHH@Z 00407260 f   WndImagePart.obj
 0001:00006280       ??0KWndLabeledButton@@QAE@XZ 00407280 f   WndLabeledButton.obj
 0001:000062c0       ??_EKWndLabeledButton@@UAEPAXI@Z 004072c0 f i WndLabeledButton.obj
 0001:000062c0       ??_GKWndLabeledButton@@UAEPAXI@Z 004072c0 f i WndLabeledButton.obj
 0001:000062e0       ??1KWndLabeledButton@@UAE@XZ 004072e0 f i WndLabeledButton.obj
 0001:000062f0       ?Clone@KWndLabeledButton@@QAEXPAV1@@Z 004072f0 f   WndLabeledButton.obj
 0001:00006380       ?Init@KWndLabeledButton@@UAEHPAVKIniFile@@PBD@Z 00407380 f   WndLabeledButton.obj
 0001:000064d0       ?SetLabel@KWndLabeledButton@@QAEXPBD@Z 004074d0 f   WndLabeledButton.obj
 0001:00006530       ?GetLabel@KWndLabeledButton@@QAEHPADH@Z 00407530 f   WndLabeledButton.obj
 0001:00006580       ?SetLabelColor@KWndLabeledButton@@QAEXI@Z 00407580 f   WndLabeledButton.obj
 0001:00006590       ?PaintWindow@KWndLabeledButton@@UAEXXZ 00407590 f   WndLabeledButton.obj
 0001:00006660       ?Init@KWndRichLabeledButton@@UAEHPAVKIniFile@@PBD@Z 00407660 f   WndLabeledButton.obj
 0001:000066b0       ?SetLabel@KWndRichLabeledButton@@QAEXPBDH@Z 004076b0 f   WndLabeledButton.obj
 0001:000066d0       ?SetLabelColor@KWndRichLabeledButton@@QAEXI@Z 004076d0 f   WndLabeledButton.obj
 0001:000066f0       ?PaintWindow@KWndRichLabeledButton@@UAEXXZ 004076f0 f   WndLabeledButton.obj
 0001:00006720       ??0KWndList@@QAE@XZ        00407720 f   WndList.obj
 0001:00006780       ??_GKWndList@@UAEPAXI@Z    00407780 f i WndList.obj
 0001:00006780       ??_EKWndList@@UAEPAXI@Z    00407780 f i WndList.obj
 0001:000067a0       ?Clone@KWndList@@IAEXPAV1@@Z 004077a0 f   WndList.obj
 0001:00006810       ??1KWndList@@UAE@XZ        00407810 f   WndList.obj
 0001:00006870       ?SetScrollbar@KWndList@@QAEXPAVKWndScrollBar@@@Z 00407870 f   WndList.obj
 0001:000068d0       ?Init@KWndList@@UAEHPAVKIniFile@@PBD@Z 004078d0 f   WndList.obj
 0001:00006b20       ?EnableMultiSel@KWndList@@QAEXH@Z 00407b20 f   WndList.obj
 0001:00006bf0       ?SetCustomColorOffset@KWndList@@QAEXH@Z 00407bf0 f   WndList.obj
 0001:00006c10       ?WndProc@KWndList@@UAEHIIH@Z 00407c10 f   WndList.obj
 0001:00006d30       ?GetIemIndexAtPoint@KWndList@@AAEHHH@Z 00407d30 f   WndList.obj
 0001:00006d90       ?OnLButtonDown@KWndList@@AAEXHH@Z 00407d90 f   WndList.obj
 0001:00006e30       ?IsItemSel@KWndList@@QAEHH@Z 00407e30 f   WndList.obj
 0001:00006ea0       ?OnRButtonDown@KWndList@@AAEXHH@Z 00407ea0 f   WndList.obj
 0001:00006ed0       ?OnLButtonDClick@KWndList@@AAEXHH@Z 00407ed0 f   WndList.obj
 0001:00006f00       ?SetCurSel@KWndList@@QAEHH@Z 00407f00 f   WndList.obj
 0001:00006fb0       ?UpdateData@KWndList@@EAEXXZ 00407fb0 f   WndList.obj
 0001:00007000       ?OnMouseMove@KWndList@@AAEXHH@Z 00408000 f   WndList.obj
 0001:00007040       ?PaintWindow@KWndList@@UAEXXZ 00408040 f   WndList.obj
 0001:00007280       ?SetContent@KWndList@@QAEXPAEHHH@Z 00408280 f   WndList.obj
 0001:00007360       ?FindString@KWndList@@QAEHHPBD@Z 00408360 f   WndList.obj
 0001:000073e0       ?GetItemDataInt@KWndList@@QAEHHH@Z 004083e0 f   WndList.obj
 0001:00007420       ?GetString@KWndList@@QAEXHPAD@Z 00408420 f   WndList.obj
 0001:00007470       ?GetStrignLen@KWndList@@QAEHH@Z 00408470 f   WndList.obj
 0001:000074b0       ?SetTopItemIndex@KWndList@@QAEXH@Z 004084b0 f   WndList.obj
 0001:000074d0       ?GetVisibleItemCount@KWndList@@QBEHXZ 004084d0 f   WndList.obj
 0001:000074f0       ??0KWndList2@@QAE@XZ       004084f0 f   WndList2.obj
 0001:00007530       ??_EKWndList2@@UAEPAXI@Z   00408530 f i WndList2.obj
 0001:00007530       ??_GKWndList2@@UAEPAXI@Z   00408530 f i WndList2.obj
 0001:00007550       ??1KWndList2@@UAE@XZ       00408550 f   WndList2.obj
 0001:000075a0       ?Clone@KWndList2@@IAEXPAV1@@Z 004085a0 f   WndList2.obj
 0001:000075e0       ?Init@KWndList2@@UAEHPAVKIniFile@@PBD@Z 004085e0 f   WndList2.obj
 0001:00007760       ?SetScrollbar@KWndList2@@QAEXPAVKWndScrollBar@@@Z 00408760 f   WndList2.obj
 0001:000077b0       ?WndProc@KWndList2@@UAEHIIH@Z 004087b0 f   WndList2.obj
 0001:00007850       ?SetCurSel@KWndList2@@QAEHH@Z 00408850 f   WndList2.obj
 0001:000078d0       ?OnLButtonDown@KWndList2@@AAEXHH@Z 004088d0 f   WndList2.obj
 0001:00007920       ?OnMouseMove@KWndList2@@AAEXHH@Z 00408920 f   WndList2.obj
 0001:00007970       ?AddString@KWndList2@@QAEHHPBD@Z 00408970 f   WndList2.obj
 0001:00007ae0       ?DeleteString@KWndList2@@QAEHH@Z 00408ae0 f   WndList2.obj
 0001:00007bd0       ?ResetContent@KWndList2@@QAEXXZ 00408bd0 f   WndList2.obj
 0001:00007c70       ?PaintWindow@KWndList2@@UAEXXZ 00408c70 f   WndList2.obj
 0001:00007d80       ?FindString@KWndList2@@QAEHHPBD@Z 00408d80 f   WndList2.obj
 0001:00007de0       ?SetItemData@KWndList2@@QAEHHH@Z 00408de0 f   WndList2.obj
 0001:00007e10       ?GetItemData@KWndList2@@QAEHH@Z 00408e10 f   WndList2.obj
 0001:00007e30       ?GetString@KWndList2@@QAEHHPADI@Z 00408e30 f   WndList2.obj
 0001:00007e90       ?SetTopItemIndex@KWndList2@@QAEXH@Z 00408e90 f   WndList2.obj
 0001:00007eb0       ?GetVisibleLineCount@KWndList2@@QBEHXZ 00408eb0 f   WndList2.obj
 0001:00007ec0       ??0KWndMessageListBox@@QAE@XZ 00408ec0 f   WndMessageListBox.obj
 0001:00007f20       ??_EKWndMessageListBox@@UAEPAXI@Z 00408f20 f i WndMessageListBox.obj
 0001:00007f20       ??_GKWndMessageListBox@@UAEPAXI@Z 00408f20 f i WndMessageListBox.obj
 0001:00007f40       ??1KWndMessageListBox@@UAE@XZ 00408f40 f   WndMessageListBox.obj
 0001:00007fa0       ?SetCapability@KWndMessageListBox@@QAEHH@Z 00408fa0 f   WndMessageListBox.obj
 0001:000080e0       ?SetScrollbar@KWndMessageListBox@@QAEXPAVKWndScrollBar@@@Z 004090e0 f   WndMessageListBox.obj
 0001:00008100       ?AddOneMessage@KWndMessageListBox@@QAEHPBDHI@Z 00409100 f   WndMessageListBox.obj
 0001:00008290       ?RemoveAMessage@KWndMessageListBox@@QAEXH@Z 00409290 f   WndMessageListBox.obj
 0001:00008370       ?Clear@KWndMessageListBox@@QAEXXZ 00409370 f   WndMessageListBox.obj
 0001:000083b0       ?Clone@KWndMessageListBox@@QAEXPAV1@@Z 004093b0 f   WndMessageListBox.obj
 0001:00008430       ?Init@KWndMessageListBox@@UAEHPAVKIniFile@@PBD@Z 00409430 f   WndMessageListBox.obj
 0001:000087b0       ?SetSize@KWndMessageListBox@@UAEXHH@Z 004097b0 f   WndMessageListBox.obj
 0001:000088e0       ?SetFontSize@KWndMessageListBox@@QAEXH@Z 004098e0 f   WndMessageListBox.obj
 0001:00008910       ?UpdateData@KWndMessageListBox@@EAEXXZ 00409910 f   WndMessageListBox.obj
 0001:00008980       ?GetFirstShowLine@KWndMessageListBox@@QAEHXZ 00409980 f   WndMessageListBox.obj
 0001:000089b0       ?SetFirstShowLine@KWndMessageListBox@@QAEXH@Z 004099b0 f   WndMessageListBox.obj
 0001:00008a70       ?GetItemLineCount@KWndMessageListBox@@QAEHH@Z 00409a70 f   WndMessageListBox.obj
 0001:00008aa0       ?PaintWindow@KWndMessageListBox@@EAEXXZ 00409aa0 f   WndMessageListBox.obj
 0001:00008d50       ?WndProc@KWndMessageListBox@@EAEHIIH@Z 00409d50 f   WndMessageListBox.obj
 0001:00008e60       ?GetMsgAtPoint@KWndMessageListBox@@AAEHHH@Z 00409e60 f   WndMessageListBox.obj
 0001:00008ed0       ?HitTextAtPoint@KWndMessageListBox@@QAEHHH@Z 00409ed0 f   WndMessageListBox.obj
 0001:00008f90       ?OnLButtonDown@KWndMessageListBox@@AAEXHH@Z 00409f90 f   WndMessageListBox.obj
 0001:00008fd0       ?OnLButtonDClick@KWndMessageListBox@@AAEXHH@Z 00409fd0 f   WndMessageListBox.obj
 0001:00009000       ?SetCurSel@KWndMessageListBox@@QAEHH@Z 0040a000 f   WndMessageListBox.obj
 0001:00009040       ?OnMouseMove@KWndMessageListBox@@AAEXHH@Z 0040a040 f   WndMessageListBox.obj
 0001:00009080       ?GetOneMessage@KWndMessageListBox@@QAEHHPADH_N@Z 0040a080 f   WndMessageListBox.obj
 0001:000090f0       ?SplitData@KWndMessageListBox@@QAEIXZ 0040a0f0 f   WndMessageListBox.obj
 0001:000091a0       ?BindData@KWndMessageListBox@@QAEII@Z 0040a1a0 f   WndMessageListBox.obj
 0001:000092d0       ?FreeData@KWndMessageListBox@@SAXI@Z 0040a2d0 f   WndMessageListBox.obj
 0001:00009300       ?GetOffsetTextHeight@KWndMessageListBox@@AAEIXZ 0040a300 f   WndMessageListBox.obj
 0001:00009320       ?PtInWindow@KWndMessageListBox@@UAEHHH@Z 0040a320 f   WndMessageListBox.obj
 0001:00009360       ?ClearHideLine@KWndMessageListBox@@QAEXXZ 0040a360 f   WndMessageListBox.obj
 0001:00009370       ?HideNextLine@KWndMessageListBox@@QAEXXZ 0040a370 f   WndMessageListBox.obj
 0001:000093d0       ?HideAllLine@KWndMessageListBox@@QAEXXZ 0040a3d0 f   WndMessageListBox.obj
 0001:000093e0       ?GetMinHeight@KWndMessageListBox@@QAEHXZ 0040a3e0 f   WndMessageListBox.obj
 0001:00009400       ??0KScrollMessageListBox@@QAE@XZ 0040a400 f   WndMessageListBox.obj
 0001:000094a0       ??_GKScrollMessageListBox@@UAEPAXI@Z 0040a4a0 f i WndMessageListBox.obj
 0001:000094a0       ??_EKScrollMessageListBox@@UAEPAXI@Z 0040a4a0 f i WndMessageListBox.obj
 0001:000094c0       ??1KWndScrollBar@@UAE@XZ   0040a4c0 f i WndMessageListBox.obj
 0001:00009510       ??1KScrollMessageListBox@@UAE@XZ 0040a510 f i WndMessageListBox.obj
 0001:00009590       ?Init@KScrollMessageListBox@@UAEHPAVKIniFile@@PBD@Z 0040a590 f   WndMessageListBox.obj
 0001:000096c0       ?WndProc@KScrollMessageListBox@@UAEHIIH@Z 0040a6c0 f   WndMessageListBox.obj
 0001:000097f0       ?InitMinMaxLineCount@KScrollMessageListBox@@IAEXHH@Z 0040a7f0 f   WndMessageListBox.obj
 0001:00009830       ?HeightToLineHeight@KScrollMessageListBox@@QAEHH@Z 0040a830 f   WndMessageListBox.obj
 0001:00009850       ?WidthToCharWidth@KScrollMessageListBox@@QAEHH@Z 0040a850 f   WndMessageListBox.obj
 0001:00009870       ?GetMinHeight@KScrollMessageListBox@@QAEHXZ 0040a870 f   WndMessageListBox.obj
 0001:000098b0       ?MsgListBox_LoadContent@@YA_NPAVKWndMessageListBox@@PAVKIniFile@@PBD@Z 0040a8b0 f   WndMessageListBox.obj
 0001:000099d0       ??0KWndMovingImage@@QAE@XZ 0040a9d0 f   WndMovingImage.obj
 0001:00009a00       ??_GKWndMovingImage@@UAEPAXI@Z 0040aa00 f i WndMovingImage.obj
 0001:00009a00       ??_EKWndMovingImage@@UAEPAXI@Z 0040aa00 f i WndMovingImage.obj
 0001:00009a20       ?Clone@KWndMovingImage@@IAEXPAV1@@Z 0040aa20 f   WndMovingImage.obj
 0001:00009a80       ?Init@KWndMovingImage@@UAEHPAVKIniFile@@PBD@Z 0040aa80 f   WndMovingImage.obj
 0001:00009b10       ?SetMoveValue@KWndMovingImage@@QAEXHH@Z 0040ab10 f   WndMovingImage.obj
 0001:00009b90       ?WndObjContainerInit@@YAXPAVKIniFile@@@Z 0040ab90 f   WndObjContainer.obj
 0001:00009d00       ??0KWndObjectBox@@QAE@XZ   0040ad00 f   WndObjContainer.obj
 0001:00009d30       ??_GKWndObjectBox@@UAEPAXI@Z 0040ad30 f i WndObjContainer.obj
 0001:00009d30       ??_EKWndObjectBox@@UAEPAXI@Z 0040ad30 f i WndObjContainer.obj
 0001:00009d50       ??1KWndObjectBox@@UAE@XZ   0040ad50 f i WndObjContainer.obj
 0001:00009d60       ?SetContainerId@KWndObjectBox@@QAEXH@Z 0040ad60 f   WndObjContainer.obj
 0001:00009d70       ?SetObjectGenre@KWndObjectBox@@QAEXI@Z 0040ad70 f   WndObjContainer.obj
 0001:00009d80       ?Celar@KWndObjectBox@@QAEXXZ 0040ad80 f   WndObjContainer.obj
 0001:00009d90       ?GetObjectA@KWndObjectBox@@QBEHAAUKUiDraggedObject@@@Z 0040ad90 f   WndObjContainer.obj
 0001:00009dc0       ?HoldObject@KWndObjectBox@@QAEXIIHH@Z 0040adc0 f   WndObjContainer.obj
 0001:00009e40       ?PaintWindow@KWndObjectBox@@MAEXXZ 0040ae40 f   WndObjContainer.obj
 0001:00009f50       ?Clone@KWndObjectBox@@QAEXPAV1@@Z 0040af50 f   WndObjContainer.obj
 0001:00009f70       ?Init@KWndObjectBox@@UAEHPAVKIniFile@@PBD@Z 0040af70 f   WndObjContainer.obj
 0001:0000a000       ?EnablePickPut@KWndObjectBox@@QAEX_N@Z 0040b000 f   WndObjContainer.obj
 0001:0000a020       ?WndProc@KWndObjectBox@@MAEHIIH@Z 0040b020 f   WndObjContainer.obj
 0001:0000a220       ?DropObject@KWndObjectBox@@IAEH_N@Z 0040b220 f   WndObjContainer.obj
 0001:0000a2d0       ??0KWndObjectMatrix@@QAE@XZ 0040b2d0 f   WndObjContainer.obj
 0001:0000a310       ??_EKWndObjectMatrix@@UAEPAXI@Z 0040b310 f i WndObjContainer.obj
 0001:0000a310       ??_GKWndObjectMatrix@@UAEPAXI@Z 0040b310 f i WndObjContainer.obj
 0001:0000a330       ?SetContainerId@KWndObjectMatrix@@QAEXH@Z 0040b330 f   WndObjContainer.obj
 0001:0000a340       ??1KWndObjectMatrix@@UAE@XZ 0040b340 f   WndObjContainer.obj
 0001:0000a390       ?Clone@KWndObjectMatrix@@IAEXPAV1@@Z 0040b390 f   WndObjContainer.obj
 0001:0000a3c0       ?Init@KWndObjectMatrix@@UAEHPAVKIniFile@@PBD@Z 0040b3c0 f   WndObjContainer.obj
 0001:0000a4e0       ?PaintWindow@KWndObjectMatrix@@EAEXXZ 0040b4e0 f   WndObjContainer.obj
 0001:0000a6e0       ?AddObject@KWndObjectMatrix@@QAEHPAUKUiDraggedObject@@H@Z 0040b6e0 f   WndObjContainer.obj
 0001:0000a780       ?RemoveObject@KWndObjectMatrix@@QAEHPAUKUiDraggedObject@@@Z 0040b780 f   WndObjContainer.obj
 0001:0000a820       ?GetObjectA@KWndObjectMatrix@@QBEHAAUKUiDraggedObject@@HH@Z 0040b820 f   WndObjContainer.obj
 0001:0000a870       ?Clear@KWndObjectMatrix@@QAEXXZ 0040b870 f   WndObjContainer.obj
 0001:0000a8a0       ?WndProc@KWndObjectMatrix@@EAEHIIH@Z 0040b8a0 f   WndObjContainer.obj
 0001:0000aaf0       ?GetObjectAt@KWndObjectMatrix@@AAEHHH@Z 0040baf0 f   WndObjContainer.obj
 0001:0000ab60       ?PickUpObjectAt@KWndObjectMatrix@@AAEHHH@Z 0040bb60 f   WndObjContainer.obj
 0001:0000abc0       ?DropObject@KWndObjectMatrix@@AAEHHH_N@Z 0040bbc0 f   WndObjContainer.obj
 0001:0000ae30       ?TryDropObjAtPos@KWndObjectMatrix@@AAEHABUtagRECT@@AAPAUKUiDraggedObject@@@Z 0040be30 f   WndObjContainer.obj
 0001:0000aeb0       ?DropObject@KWndObjectMatrix@@AAEXHHPAUKUiDraggedObject@@@Z 0040beb0 f   WndObjContainer.obj
 0001:0000af20       ?EnableTracePutPos@KWndObjectMatrix@@QAEX_N@Z 0040bf20 f   WndObjContainer.obj
 0001:0000af40       ?EnablePickPut@KWndObjectMatrix@@QAEX_N@Z 0040bf40 f   WndObjContainer.obj
 0001:0000af60       ?WndProc@KWndPage@@UAEHIIH@Z 0040bf60 f   WndPage.obj
 0001:0000afc0       ??0KWndPageSet@@QAE@XZ     0040bfc0 f   WndPage.obj
 0001:0000aff0       ??_GKWndPageSet@@UAEPAXI@Z 0040bff0 f i WndPage.obj
 0001:0000aff0       ??_EKWndPageSet@@UAEPAXI@Z 0040bff0 f i WndPage.obj
 0001:0000b010       ??1KWndPageSet@@UAE@XZ     0040c010 f   WndPage.obj
 0001:0000b050       ?WndProc@KWndPageSet@@UAEHIIH@Z 0040c050 f   WndPage.obj
 0001:0000b080       ?AddPage@KWndPageSet@@QAE_NPAVKWndPage@@PAVKWndButton@@@Z 0040c080 f   WndPage.obj
 0001:0000b140       ?ActivePage@KWndPageSet@@QAE_NH@Z 0040c140 f   WndPage.obj
 0001:0000b200       ?OnPageBtnClick@KWndPageSet@@AAEXPAVKWndWindow@@@Z 0040c200 f   WndPage.obj
 0001:0000b280       ?GetActivePage@KWndPageSet@@QAEPAVKWndPage@@XZ 0040c280 f   WndPage.obj
 0001:0000b2a0       ??0KWndPureTextBtn@@QAE@XZ 0040c2a0 f   WndPureTextBtn.obj
 0001:0000b2f0       ??_GKWndPureTextBtn@@UAEPAXI@Z 0040c2f0 f i WndPureTextBtn.obj
 0001:0000b2f0       ??_EKWndPureTextBtn@@UAEPAXI@Z 0040c2f0 f i WndPureTextBtn.obj
 0001:0000b310       ??1KWndPureTextBtn@@UAE@XZ 0040c310 f i WndPureTextBtn.obj
 0001:0000b320       ?Clone@KWndPureTextBtn@@QAEXPAV1@@Z 0040c320 f   WndPureTextBtn.obj
 0001:0000b390       ?Init@KWndPureTextBtn@@UAEHPAVKIniFile@@PBD@Z 0040c390 f   WndPureTextBtn.obj
 0001:0000b520       ?AdjustPosition@KWndPureTextBtn@@AAEXXZ 0040c520 f   WndPureTextBtn.obj
 0001:0000b570       ?PaintWindow@KWndPureTextBtn@@UAEXXZ 0040c570 f   WndPureTextBtn.obj
 0001:0000b650       ?SetText@KWndPureTextBtn@@QAEXPBDH@Z 0040c650 f   WndPureTextBtn.obj
 0001:0000b6c0       ?CheckButton@KWndPureTextBtn@@QAEXH@Z 0040c6c0 f   WndPureTextBtn.obj
 0001:0000b6e0       ?WndProc@KWndPureTextBtn@@UAEHIIH@Z 0040c6e0 f   WndPureTextBtn.obj
 0001:0000b7c0       ??0KWndStation@@QAE@XZ     0040c7c0 f i Wnds.obj
 0001:0000b8c0       ??1KWndStation@@QAE@XZ     0040c8c0 f i Wnds.obj
 0001:0000b930       ?Wnd_Cleanup@@YAXXZ        0040c930 f   Wnds.obj
 0001:0000b980       ?Wnd_RenderWindows@@YAXXZ  0040c980 f   Wnds.obj
 0001:0000ba50       ?Wnd_Heartbeat@@YAXXZ      0040ca50 f   Wnds.obj
 0001:0000ba80       ?Wnd_AddWindow@@YAXPAVKWndWindow@@W4WND_LAYER_LIST@@@Z 0040ca80 f   Wnds.obj
 0001:0000bac0       ?Wnd_SetGameSpaceWnd@@YAXPAVKWndWindow@@@Z 0040cac0 f   Wnds.obj
 0001:0000bad0       ?Wnd_GameSpaceHandleInput@@YAX_N@Z 0040cad0 f   Wnds.obj
 0001:0000bae0       ?Wnd_ShowHideGameSpace@@YAX_N@Z 0040cae0 f   Wnds.obj
 0001:0000baf0       ?Wnd_OnWindowDelete@@YAXPAVKWndWindow@@@Z 0040caf0 f   Wnds.obj
 0001:0000bb90       ?Wnd_DragBegin@@YAHPBUKUiDraggedObject@@P6AHHHABU1@H@Z@Z 0040cb90 f   Wnds.obj
 0001:0000bbd0       ?Wnd_GetDragObj@@YAHPAUKUiDraggedObject@@@Z 0040cbd0 f   Wnds.obj
 0001:0000bc10       ?Wnd_DragFinished@@YAXXZ   0040cc10 f   Wnds.obj
 0001:0000bc20       ?Wnd_ProcessInput@@YAXIIH@Z 0040cc20 f   Wnds.obj
 0001:0000c000       ?Wnd_TransmitInputToGameSpace@@YAXIIH@Z 0040d000 f   Wnds.obj
 0001:0000c0a0       ?Wnd_ShowCursor@@YAXH@Z    0040d0a0 f   Wnds.obj
 0001:0000c0b0       ?Wnd_SetCursorPos@@YAXHH@Z 0040d0b0 f   Wnds.obj
 0001:0000c100       ?Wnd_GetCursorPos@@YAXPAH0@Z 0040d100 f   Wnds.obj
 0001:0000c140       ?Wnd_GetFocusWnd@@YAPAVKWndWindow@@XZ 0040d140 f   Wnds.obj
 0001:0000c150       ?Wnd_SetFocusWnd@@YAXPAVKWndWindow@@@Z 0040d150 f   Wnds.obj
 0001:0000c1a0       ?Wnd_SetCapture@@YAXPAVKWndWindow@@@Z 0040d1a0 f   Wnds.obj
 0001:0000c1c0       ?Wnd_ReleaseCapture@@YAXXZ 0040d1c0 f   Wnds.obj
 0001:0000c1f0       ?Wnd_SetExclusive@@YAXPAVKWndWindow@@@Z 0040d1f0 f   Wnds.obj
 0001:0000c280       ?Wnd_ReleaseExclusive@@YAXPAVKWndWindow@@@Z 0040d280 f   Wnds.obj
 0001:0000c2d0       ?Wnd_LoadCursor@@YAXHPBD@Z 0040d2d0 f   Wnds.obj
 0001:0000c2f0       ?Wnd_SwitchCursor@@YAHH@Z  0040d2f0 f   Wnds.obj
 0001:0000c300       ?Wnd_SetScreenSize@@YAXHH@Z 0040d300 f   Wnds.obj
 0001:0000c320       ?Wnd_GetScreenSize@@YAXAAH0@Z 0040d320 f   Wnds.obj
 0001:0000c340       ?Wnd_RestoreCursor@@YAXXZ  0040d340 f   Wnds.obj
 0001:0000c350       ??0KWndScrollBar@@QAE@XZ   0040d350 f   WndScrollBar.obj
 0001:0000c3e0       ??_GKWndScrollBar@@UAEPAXI@Z 0040d3e0 f i WndScrollBar.obj
 0001:0000c3e0       ??_EKWndScrollBar@@UAEPAXI@Z 0040d3e0 f i WndScrollBar.obj
 0001:0000c400       ?Clone@KWndScrollBar@@QAEXPAV1@@Z 0040d400 f   WndScrollBar.obj
 0001:0000c4a0       ?Init@KWndScrollBar@@UAEHPAVKIniFile@@PBD@Z 0040d4a0 f   WndScrollBar.obj
 0001:0000c620       ?SetSize@KWndScrollBar@@UAEXHH@Z 0040d620 f   WndScrollBar.obj
 0001:0000c680       ?WndProc@KWndScrollBar@@UAEHIIH@Z 0040d680 f   WndScrollBar.obj
 0001:0000c790       ?PaintWindow@KWndScrollBar@@UAEXXZ 0040d790 f   WndScrollBar.obj
 0001:0000c820       ?SetValueRange@KWndScrollBar@@QAEXHH@Z 0040d820 f   WndScrollBar.obj
 0001:0000c850       ?SetScrollPos@KWndScrollBar@@QAEXH@Z 0040d850 f   WndScrollBar.obj
 0001:0000c8b0       ?SetSlideBtnPos@KWndScrollBar@@AAEXXZ 0040d8b0 f   WndScrollBar.obj
 0001:0000c970       ?OnLButtonDown@KWndScrollBar@@AAEXHH@Z 0040d970 f   WndScrollBar.obj
 0001:0000ca50       ?ScrollLine@KWndScrollBar@@QAEH_N@Z 0040da50 f   WndScrollBar.obj
 0001:0000ca80       ?ScrollPage@KWndScrollBar@@QAEH_N@Z 0040da80 f   WndScrollBar.obj
 0001:0000cab0       ?OnSlideBtnPressed@KWndScrollBar@@AAEXXZ 0040dab0 f   WndScrollBar.obj
 0001:0000cad0       ?OnDraggingSlide@KWndScrollBar@@AAEXHH@Z 0040dad0 f   WndScrollBar.obj
 0001:0000cb50       ?GetMinHeight@KWndScrollBar@@QAEHXZ 0040db50 f   WndScrollBar.obj
 0001:0000cb90       ?Clone@KWndShadow@@QAEXPAV1@@Z 0040db90 f   WndShadow.obj
 0001:0000cbb0       ?Init@KWndShadow@@UAEHPAVKIniFile@@PBD@Z 0040dbb0 f   WndShadow.obj
 0001:0000cc70       ?PaintWindow@KWndShadow@@MAEXXZ 0040dc70 f   WndShadow.obj
 0001:0000ccd0       ?PtInWindow@KWndShadow@@UAEHHH@Z 0040dcd0 f   WndShadow.obj
 0001:0000cce0       ?SetColor@KWndShadow@@QAEXI@Z 0040dce0 f   WndShadow.obj
 0001:0000ccf0       ??0KWndShowAnimate@@QAE@XZ 0040dcf0 f   WndShowAnimate.obj
 0001:0000cd10       ??_GKWndShowAnimate@@UAEPAXI@Z 0040dd10 f i WndShowAnimate.obj
 0001:0000cd10       ??_EKWndShowAnimate@@UAEPAXI@Z 0040dd10 f i WndShowAnimate.obj
 0001:0000cd30       ??1KWndShowAnimate@@UAE@XZ 0040dd30 f i WndShowAnimate.obj
 0001:0000cd40       ?Clone@KWndShowAnimate@@QAEXPAV1@@Z 0040dd40 f   WndShowAnimate.obj
 0001:0000cd90       ?Init@KWndShowAnimate@@UAEHPAVKIniFile@@PBD@Z 0040dd90 f   WndShowAnimate.obj
 0001:0000ce30       ?Show@KWndShowAnimate@@UAEXXZ 0040de30 f   WndShowAnimate.obj
 0001:0000cee0       ?Hide@KWndShowAnimate@@UAEXXZ 0040dee0 f   WndShowAnimate.obj
 0001:0000cf70       ?SetMoveSpeed@KWndShowAnimate@@SAXHH@Z 0040df70 f   WndShowAnimate.obj
 0001:0000cfb0       ?SetInterval@KWndShowAnimate@@SAXI@Z 0040dfb0 f   WndShowAnimate.obj
 0001:0000cfd0       ?ShowCompleted@KWndShowAnimate@@UAEXXZ 0040dfd0 f   WndShowAnimate.obj
 0001:0000cfe0       ?PaintWindow@KWndShowAnimate@@MAEXXZ 0040dfe0 f   WndShowAnimate.obj
 0001:0000d0c0       ??0KWndText@@QAE@XZ        0040e0c0 f   WndText.obj
 0001:0000d0f0       ??_GKWndText@@UAEPAXI@Z    0040e0f0 f i WndText.obj
 0001:0000d0f0       ??_EKWndText@@UAEPAXI@Z    0040e0f0 f i WndText.obj
 0001:0000d110       ??1KWndText@@UAE@XZ        0040e110 f i WndText.obj
 0001:0000d120       ?SetText@KWndText@@QAEXPBDH@Z 0040e120 f   WndText.obj
 0001:0000d1f0       ?GetText@KWndText@@QAEHPADH@Z 0040e1f0 f   WndText.obj
 0001:0000d230       ?SetTopLine@KWndText@@QAEHH@Z 0040e230 f   WndText.obj
 0001:0000d250       ?SetTextPtr@KWndText@@IAEXPADH@Z 0040e250 f   WndText.obj
 0001:0000d270       ?Clone@KWndText@@QAEXPAV1@@Z 0040e270 f   WndText.obj
 0001:0000d2a0       ?Init@KWndText@@UAEHPAVKIniFile@@PBD@Z 0040e2a0 f   WndText.obj
 0001:0000d4a0       ?PaintWindow@KWndText@@UAEXXZ 0040e4a0 f   WndText.obj
 0001:0000d5e0       ?SetTextColor@KWndText@@QAEXI@Z 0040e5e0 f   WndText.obj
 0001:0000d5f0       ?SetIntText@KWndText@@QAEXHD@Z 0040e5f0 f   WndText.obj
 0001:0000d650       ?Set2IntText@KWndText@@QAEXHHD@Z 0040e650 f   WndText.obj
 0001:0000d6a0       ??0KWndText32@@QAE@XZ      0040e6a0 f   WndText.obj
 0001:0000d6d0       ??_EKWndText32@@UAEPAXI@Z  0040e6d0 f i WndText.obj
 0001:0000d6d0       ??_GKWndText32@@UAEPAXI@Z  0040e6d0 f i WndText.obj
 0001:0000d6f0       ??1KWndText32@@UAE@XZ      0040e6f0 f i WndText.obj
 0001:0000d700       ??0KWndText80@@QAE@XZ      0040e700 f   WndText.obj
 0001:0000d730       ??_EKWndText80@@UAEPAXI@Z  0040e730 f i WndText.obj
 0001:0000d730       ??_GKWndText80@@UAEPAXI@Z  0040e730 f i WndText.obj
 0001:0000d750       ??1KWndText80@@UAE@XZ      0040e750 f i WndText.obj
 0001:0000d760       ??0KWndText256@@QAE@XZ     0040e760 f   WndText.obj
 0001:0000d790       ??_EKWndText256@@UAEPAXI@Z 0040e790 f i WndText.obj
 0001:0000d790       ??_GKWndText256@@UAEPAXI@Z 0040e790 f i WndText.obj
 0001:0000d7b0       ??1KWndText256@@UAE@XZ     0040e7b0 f i WndText.obj
 0001:0000d7c0       ??0KWndText512@@QAE@XZ     0040e7c0 f   WndText.obj
 0001:0000d7f0       ??_GKWndText512@@UAEPAXI@Z 0040e7f0 f i WndText.obj
 0001:0000d7f0       ??_EKWndText512@@UAEPAXI@Z 0040e7f0 f i WndText.obj
 0001:0000d810       ??1KWndText512@@UAE@XZ     0040e810 f i WndText.obj
 0001:0000d820       ??0KWndToolBar@@QAE@XZ     0040e820 f   WndToolBar.obj
 0001:0000d840       ??_GKWndToolBar@@UAEPAXI@Z 0040e840 f i WndToolBar.obj
 0001:0000d840       ??_EKWndToolBar@@UAEPAXI@Z 0040e840 f i WndToolBar.obj
 0001:0000d860       ??1KWndToolBar@@UAE@XZ     0040e860 f   WndToolBar.obj
 0001:0000d8b0       ?Clone@KWndToolBar@@QAEXPAV1@@Z 0040e8b0 f   WndToolBar.obj
 0001:0000d8f0       ?Init@KWndToolBar@@UAEHPAVKIniFile@@PBD@Z 0040e8f0 f   WndToolBar.obj
 0001:0000d980       ?WndProc@KWndToolBar@@UAEHIIH@Z 0040e980 f   WndToolBar.obj
 0001:0000d9c0       ?PaintWindow@KWndToolBar@@UAEXXZ 0040e9c0 f   WndToolBar.obj
 0001:0000d9d0       ?AddOneWindow@KWndToolBar@@IAEXPAVKIniFile@@PBD@Z 0040e9d0 f   WndToolBar.obj
 0001:0000dad0       ?FreeAllWindow@KWndToolBar@@IAEXXZ 0040ead0 f   WndToolBar.obj
 0001:0000db40       ?UpdateData@KWndToolBar@@UAEXXZ 0040eb40 f   WndToolBar.obj
 0001:0000db80       ??0KWndValueImage@@QAE@XZ  0040eb80 f   WndValueImage.obj
 0001:0000dbb0       ??_EKWndValueImage@@UAEPAXI@Z 0040ebb0 f i WndValueImage.obj
 0001:0000dbb0       ??_GKWndValueImage@@UAEPAXI@Z 0040ebb0 f i WndValueImage.obj
 0001:0000dbd0       ??1KWndValueImage@@UAE@XZ  0040ebd0 f i WndValueImage.obj
 0001:0000dbe0       ?Clone@KWndValueImage@@QAEXPAV1@@Z 0040ebe0 f   WndValueImage.obj
 0001:0000dc20       ?Init@KWndValueImage@@UAEHPAVKIniFile@@PBD@Z 0040ec20 f   WndValueImage.obj
 0001:0000dca0       ?SetValue@KWndValueImage@@QAEXHH@Z 0040eca0 f   WndValueImage.obj
 0001:0000dcf0       ??0KWndWindow@@QAE@XZ      0040ecf0 f   WndWindow.obj
 0001:0000dd30       ??_EKWndWindow@@UAEPAXI@Z  0040ed30 f i WndWindow.obj
 0001:0000dd30       ??_GKWndWindow@@UAEPAXI@Z  0040ed30 f i WndWindow.obj
 0001:0000dd50       ??1KWndWindow@@UAE@XZ      0040ed50 f   WndWindow.obj
 0001:0000dd80       ?BringToTop@KWndWindow@@QAEXXZ 0040ed80 f   WndWindow.obj
 0001:0000dde0       ?GetPosition@KWndWindow@@QAEXPAH0@Z 0040ede0 f   WndWindow.obj
 0001:0000de00       ?SetPosition@KWndWindow@@QAEXHH@Z 0040ee00 f   WndWindow.obj
 0001:0000de30       ?GetAbsolutePos@KWndWindow@@QAEXPAH0@Z 0040ee30 f   WndWindow.obj
 0001:0000de50       ?GetSize@KWndWindow@@QAEXPAH0@Z 0040ee50 f   WndWindow.obj
 0001:0000de70       ?SetSize@KWndWindow@@UAEXHH@Z 0040ee70 f   WndWindow.obj
 0001:0000df70       ?AbsoluteMove@KWndWindow@@AAEXHH@Z 0040ef70 f   WndWindow.obj
 0001:0000dfb0       ?Show@KWndWindow@@UAEXXZ   0040efb0 f   WndWindow.obj
 0001:0000dfc0       ?Hide@KWndWindow@@UAEXXZ   0040efc0 f   WndWindow.obj
 0001:0000e010       ?IsVisible@KWndWindow@@QAEHXZ 0040f010 f   WndWindow.obj
 0001:0000e020       ?Enable@KWndWindow@@UAEXH@Z 0040f020 f   WndWindow.obj
 0001:0000e050       ?Destroy@KWndWindow@@QAEXXZ 0040f050 f   WndWindow.obj
 0001:0000e060       ?Clone@KWndWindow@@IAEXPAV1@@Z 0040f060 f   WndWindow.obj
 0001:0000e090       ?Init@KWndWindow@@UAEHPAVKIniFile@@PBD@Z 0040f090 f   WndWindow.obj
 0001:0000e260       ?PtInWindow@KWndWindow@@UAEHHH@Z 0040f260 f   WndWindow.obj
 0001:0000e2e0       ?Paint@KWndWindow@@QAEXXZ  0040f2e0 f   WndWindow.obj
 0001:0000e310       ?LetMeBreathe@KWndWindow@@QAEXXZ 0040f310 f   WndWindow.obj
 0001:0000e350       ?AddChild@KWndWindow@@QAEXPAV1@@Z 0040f350 f   WndWindow.obj
 0001:0000e3c0       ?AddBrother@KWndWindow@@QAEXPAV1@@Z 0040f3c0 f   WndWindow.obj
 0001:0000e430       ?LeaveAlone@KWndWindow@@QAEXXZ 0040f430 f   WndWindow.obj
 0001:0000e460       ?SplitSmaleFamily@KWndWindow@@QAEXXZ 0040f460 f   WndWindow.obj
 0001:0000e4b0       ?WndProc@KWndWindow@@UAEHIIH@Z 0040f4b0 f   WndWindow.obj
 0001:0000e580       ?OnLBtnDown@KWndWindow@@AAEXHH@Z 0040f580 f   WndWindow.obj
 0001:0000e5b0       ?OnMoveWnd@KWndWindow@@AAEXXZ 0040f5b0 f   WndWindow.obj
 0001:0000e650       ?TopChildFromPoint@KWndWindow@@UAEPAV1@HH@Z 0040f650 f   WndWindow.obj
 0001:0000e6c0       ?GetOwner@KWndWindow@@QAEPAV1@XZ 0040f6c0 f   WndWindow.obj
 0001:0000e6e0       ?PaintDebugInfo@KWndWindow@@QAEXXZ 0040f6e0 f   WndWindow.obj
 0001:0000e810       ?PaintWindow@KWndWindow@@UAEXXZ 0040f810 f   WndWindow.obj
 0001:0000e960       ?GetColor@@YAIPBD@Z        0040f960 f   WndWindow.obj
 0001:0000ea90       ?GetColorString@@YAPBDI@Z  0040fa90 f   WndWindow.obj
 0001:0000ead0       ?SetCursorAbove@KWndWindow@@QAEXXZ 0040fad0 f   WndWindow.obj
 0001:0000eb00       ?GetAllChildLayoutRect@KWndWindow@@QAEXPAUtagRECT@@@Z 0040fb00 f   WndWindow.obj
 0001:0000ec00       ??0KUiConnectInfo@@AAE@XZ  0040fc00 f   UiConnectInfo.obj
 0001:0000ecd0       ??_EKUiConnectInfo@@EAEPAXI@Z 0040fcd0 f i UiConnectInfo.obj
 0001:0000ecd0       ??_GKUiConnectInfo@@EAEPAXI@Z 0040fcd0 f i UiConnectInfo.obj
 0001:0000ecf0       ??1KUiConnectInfo@@EAE@XZ  0040fcf0 f i UiConnectInfo.obj
 0001:0000ed90       ?OpenWindow@KUiConnectInfo@@SAPAV1@W4LOGIN_BG_INFO_MSG_INDEX@@HH@Z 0040fd90 f   UiConnectInfo.obj
 0001:0000ee60       ?CloseWindow@KUiConnectInfo@@SAX_N@Z 0040fe60 f   UiConnectInfo.obj
 0001:0000eea0       ?Initialize@KUiConnectInfo@@AAEXXZ 0040fea0 f   UiConnectInfo.obj
 0001:0000eee0       ?LoadScheme@KUiConnectInfo@@AAEXPBD@Z 0040fee0 f   UiConnectInfo.obj
 0001:0000f180       ?OnClickConfirmBtn@KUiConnectInfo@@AAEXXZ 00410180 f   UiConnectInfo.obj
 0001:0000f260       ?WndProc@KUiConnectInfo@@EAEHIIH@Z 00410260 f   UiConnectInfo.obj
 0001:0000f330       ?OnDelRole@KUiConnectInfo@@AAE_NXZ 00410330 f   UiConnectInfo.obj
 0001:0000f3f0       ?OnCancelDelRole@KUiConnectInfo@@AAEXXZ 004103f0 f   UiConnectInfo.obj
 0001:0000f410       ?SetInfoMsg@KUiConnectInfo@@AAEXW4LOGIN_BG_INFO_MSG_INDEX@@@Z 00410410 f   UiConnectInfo.obj
 0001:0000f560       ?GotoNextStep@KUiConnectInfo@@AAEXXZ 00410560 f   UiConnectInfo.obj
 0001:0000f5f0       ?Breathe@KUiConnectInfo@@EAEXXZ 004105f0 f   UiConnectInfo.obj
 0001:0000f730       ?PaintWindow@KUiConnectInfo@@EAEXXZ 00410730 f   UiConnectInfo.obj
 0001:0000f8f0       ??0KUiLogin@@AAE@XZ        004108f0 f   UiLogin.obj
 0001:0000f990       ??_GKUiLogin@@EAEPAXI@Z    00410990 f i UiLogin.obj
 0001:0000f990       ??_EKUiLogin@@EAEPAXI@Z    00410990 f i UiLogin.obj
 0001:0000f9b0       ??1KUiLogin@@EAE@XZ        004109b0 f   UiLogin.obj
 0001:0000fa50       ?OpenWindow@KUiLogin@@SAPAV1@XZ 00410a50 f   UiLogin.obj
 0001:0000faf0       ?CloseWindow@KUiLogin@@SAX_N@Z 00410af0 f   UiLogin.obj
 0001:0000fb50       ?Show@KUiLogin@@EAEXXZ     00410b50 f   UiLogin.obj
 0001:0000fbd0       ?Initialize@KUiLogin@@AAEXXZ 00410bd0 f   UiLogin.obj
 0001:0000fc50       ?LoadScheme@KUiLogin@@AAEXPBD@Z 00410c50 f   UiLogin.obj
 0001:0000fda0       ?WndProc@KUiLogin@@EAEHIIH@Z 00410da0 f   UiLogin.obj
 0001:0000fff0       ?OnEnableAutoLogin@KUiLogin@@AAEXXZ 00410ff0 f   UiLogin.obj
 0001:00010060       ?OnKeyDown@KUiLogin@@AAEXI@Z 00411060 f   UiLogin.obj
 0001:00010270       ?OnLogin@KUiLogin@@AAEXXZ  00411270 f   UiLogin.obj
 0001:000102f0       ?OnCancel@KUiLogin@@AAEXXZ 004112f0 f   UiLogin.obj
 0001:00010310       ?GetInputInfo@KUiLogin@@AAEHPAD0@Z 00411310 f   UiLogin.obj
 0001:00010370       ?IsValidPassword@KUiLogin@@SA_NPBDH@Z 00411370 f   UiLogin.obj
 0001:00010380       ?OpenWindow@KUiLoginBackGround@@SAPAV1@PBD@Z 00411380 f   UiLoginBg.obj
 0001:00010460       ??_GKUiLoginBackGround@@EAEPAXI@Z 00411460 f i UiLoginBg.obj
 0001:00010460       ??_EKUiLoginBackGround@@EAEPAXI@Z 00411460 f i UiLoginBg.obj
 0001:00010480       ??1KUiLoginBackGround@@EAE@XZ 00411480 f i UiLoginBg.obj
 0001:00010500       ?CloseWindow@KUiLoginBackGround@@SAX_N@Z 00411500 f   UiLoginBg.obj
 0001:00010530       ?Initialize@KUiLoginBackGround@@AAEXXZ 00411530 f   UiLoginBg.obj
 0001:000105f0       ?SetConfig@KUiLoginBackGround@@SAXPBD@Z 004115f0 f   UiLoginBg.obj
 0001:00010760       ?LoadScheme@KUiLoginBackGround@@AAEXPAVKIniFile@@@Z 00411760 f   UiLoginBg.obj
 0001:00010860       ?Breathe@KUiLoginBackGround@@EAEXXZ 00411860 f   UiLoginBg.obj
 0001:000108f0       ??0KUiSelServer@@AAE@XZ    004118f0 f   UiSelServer.obj
 0001:00010990       ??_EKUiSelServer@@EAEPAXI@Z 00411990 f i UiSelServer.obj
 0001:00010990       ??_GKUiSelServer@@EAEPAXI@Z 00411990 f i UiSelServer.obj
 0001:000109b0       ??1KUiSelServer@@EAE@XZ    004119b0 f   UiSelServer.obj
 0001:00010a90       ?OpenWindow@KUiSelServer@@SAPAV1@XZ 00411a90 f   UiSelServer.obj
 0001:00010b50       ?CloseWindow@KUiSelServer@@SAX_N@Z 00411b50 f   UiSelServer.obj
 0001:00010b80       ?Initialize@KUiSelServer@@AAEXXZ 00411b80 f   UiSelServer.obj
 0001:00010c00       ?GetList@KUiSelServer@@AAEXXZ 00411c00 f   UiSelServer.obj
 0001:00010ce0       ?LoadScheme@KUiSelServer@@AAEXPBD@Z 00411ce0 f   UiSelServer.obj
 0001:00010e10       ?WndProc@KUiSelServer@@EAEHIIH@Z 00411e10 f   UiSelServer.obj
 0001:00010ea0       ?OnKeyDown@KUiSelServer@@AAEHI@Z 00411ea0 f   UiSelServer.obj
 0001:00010ff0       ?OnClickButton@KUiSelServer@@AAEXPAVKWndButton@@@Z 00411ff0 f   UiSelServer.obj
 0001:00011020       ?OnLogin@KUiSelServer@@AAEXXZ 00412020 f   UiSelServer.obj
 0001:000110a0       ?OnCancel@KUiSelServer@@AAEXXZ 004120a0 f   UiSelServer.obj
 0001:000110d0       ??0KUiContainer@@QAE@XZ    004120d0 f   UiContainer.obj
 0001:000110f0       ??_EKUiContainer@@UAEPAXI@Z 004120f0 f i UiContainer.obj
 0001:000110f0       ??_GKUiContainer@@UAEPAXI@Z 004120f0 f i UiContainer.obj
 0001:00011110       ??1KUiContainer@@UAE@XZ    00412110 f   UiContainer.obj
 0001:00011120       ?DoSwitchUi@KUiContainer@@QAEHH@Z 00412120 f   UiContainer.obj
 0001:00011230       ?Initialize@KUiContainer@@QAEHPAVKWndWindow@@@Z 00412230 f   UiContainer.obj
 0001:00011250       ??0KUiFaceSelector@@AAE@XZ 00412250 f   UiFaceSelector.obj
 0001:00011300       ??_EKUiFaceSelector@@EAEPAXI@Z 00412300 f i UiFaceSelector.obj
 0001:00011300       ??_GKUiFaceSelector@@EAEPAXI@Z 00412300 f i UiFaceSelector.obj
 0001:00011320       ??1KUiFaceSelector@@EAE@XZ 00412320 f i UiFaceSelector.obj
 0001:00011390       ?OpenWindow@KUiFaceSelector@@SAPAV1@PAVKWndWindow@@PAX@Z 00412390 f   UiFaceSelector.obj
 0001:00011450       ?CloseWindow@KUiFaceSelector@@SAX_N@Z 00412450 f   UiFaceSelector.obj
 0001:00011480       ?GetIfVisible@KUiFaceSelector@@SAPAV1@XZ 00412480 f   UiFaceSelector.obj
 0001:000114a0       ?ConvertFaceText@KUiFaceSelector@@SAHPADPBDH@Z 004124a0 f   UiFaceSelector.obj
 0001:000115a0       ?ConvertFace@KUiFaceSelector@@CAHPADAAHPBDH1@Z 004125a0 f   UiFaceSelector.obj
 0001:00011640       ?Initialize@KUiFaceSelector@@AAEXXZ 00412640 f   UiFaceSelector.obj
 0001:000116a0       ?LoadFaceList@KUiFaceSelector@@SAXXZ 004126a0 f   UiFaceSelector.obj
 0001:000117f0       ?Clear@KUiFaceSelector@@SAXXZ 004127f0 f   UiFaceSelector.obj
 0001:00011830       ?OnSelFace@KUiFaceSelector@@AAEXXZ 00412830 f   UiFaceSelector.obj
 0001:00011880       ?WndProc@KUiFaceSelector@@EAEHIIH@Z 00412880 f   UiFaceSelector.obj
 0001:00011990       ?OnExpandWnd@KUiFaceSelector@@AAEXXZ 00412990 f   UiFaceSelector.obj
 0001:000119f0       ?OnUnExpandWnd@KUiFaceSelector@@AAEXXZ 004129f0 f   UiFaceSelector.obj
 0001:00011a40       ?LoadScheme@KUiFaceSelector@@QAEXPBD@Z 00412a40 f   UiFaceSelector.obj
 0001:00011d30       ?UpdateFaceTip@KUiFaceSelector@@AAEXHH@Z 00412d30 f   UiFaceSelector.obj
 0001:00011de0       ?PaintWindow@KUiFaceSelector@@EAEXXZ 00412de0 f   UiFaceSelector.obj
 0001:000120f0       ?Show@KUiFaceSelector@@EAEXXZ 004130f0 f   UiFaceSelector.obj
 0001:00012110       ?Hide@KUiFaceSelector@@EAEXXZ 00413110 f   UiFaceSelector.obj
 0001:00012130       ?GetFaceAtPos@KUiFaceSelector@@AAEHHH@Z 00413130 f   UiFaceSelector.obj
 0001:000121c0       ?CreateObject@GameWorld_DateTime@@SAPAVKWndWindow@@XZ 004131c0 f i UiPlayerBar.obj
 0001:00012220       ?GetFormatedTimeString@@YAHHPAD@Z 00413220 f   UiPlayerBar.obj
 0001:000122a0       ?GetFormatedTimeString@@YAHPAUtm@@PAD@Z 004132a0 f   UiPlayerBar.obj
 0001:000122d0       ??0GameWorld_DateTime@@QAE@XZ 004132d0 f   UiPlayerBar.obj
 0001:00012330       ??_EGameWorld_DateTime@@UAEPAXI@Z 00413330 f i UiPlayerBar.obj
 0001:00012330       ??_GGameWorld_DateTime@@UAEPAXI@Z 00413330 f i UiPlayerBar.obj
 0001:00012350       ??1GameWorld_DateTime@@UAE@XZ 00413350 f i UiPlayerBar.obj
 0001:00012360       ?OnButtonClick@GameWorld_DateTime@@EAEXXZ 00413360 f   UiPlayerBar.obj
 0001:00012380       ?Init@GameWorld_DateTime@@UAEHPAVKIniFile@@PBD@Z 00413380 f   UiPlayerBar.obj
 0001:00012510       ?UpdateData@GameWorld_DateTime@@UAEXXZ 00413510 f   UiPlayerBar.obj
 0001:00012640       ?UpdateNetStatus@GameWorld_DateTime@@AAEXXZ 00413640 f   UiPlayerBar.obj
 0001:000127b0       ?Init@KImmediaItem@@UAEHPAVKIniFile@@PBD@Z 004137b0 f   UiPlayerBar.obj
 0001:00012810       ?PaintWindow@KImmediaItem@@UAEXXZ 00413810 f   UiPlayerBar.obj
 0001:000128a0       ??0KUiPlayerBar@@AAE@XZ    004138a0 f   UiPlayerBar.obj
 0001:00012a10       ??0KImmediaItem@@QAE@XZ    00413a10 f i UiPlayerBar.obj
 0001:00012a30       ??_GKImmediaItem@@UAEPAXI@Z 00413a30 f i UiPlayerBar.obj
 0001:00012a30       ??_EKImmediaItem@@UAEPAXI@Z 00413a30 f i UiPlayerBar.obj
 0001:00012a50       ??1KImmediaItem@@UAE@XZ    00413a50 f i UiPlayerBar.obj
 0001:00012a60       ??_EKUiPlayerBar@@EAEPAXI@Z 00413a60 f i UiPlayerBar.obj
 0001:00012a60       ??_GKUiPlayerBar@@EAEPAXI@Z 00413a60 f i UiPlayerBar.obj
 0001:00012a80       ??1KUiPlayerBar@@EAE@XZ    00413a80 f   UiPlayerBar.obj
 0001:00012b90       ?GetIfVisible@KUiPlayerBar@@SAPAV1@XZ 00413b90 f   UiPlayerBar.obj
 0001:00012bb0       ?OpenWindow@KUiPlayerBar@@SAPAV1@XZ 00413bb0 f   UiPlayerBar.obj
 0001:00012c70       ?OnSwitchSize@KUiPlayerBar@@AAEXXZ 00413c70 f   UiPlayerBar.obj
 0001:00012cb0       ?UpdateData@KUiPlayerBar@@EAEXXZ 00413cb0 f   UiPlayerBar.obj
 0001:00012db0       ?CloseWindow@KUiPlayerBar@@SAX_N@Z 00413db0 f   UiPlayerBar.obj
 0001:00012e10       ?LoadScheme@KUiPlayerBar@@SAXPBD@Z 00413e10 f   UiPlayerBar.obj
 0001:00012ed0       ?LoadScheme@KUiPlayerBar@@AAEXPAVKIniFile@@@Z 00413ed0 f   UiPlayerBar.obj
 0001:00013100       ?Initialize@KUiPlayerBar@@AAEXXZ 00414100 f   UiPlayerBar.obj
 0001:00013230       ?WndProc@KUiPlayerBar@@EAEHIIH@Z 00414230 f   UiPlayerBar.obj
 0001:00013790       ?PaintWindow@KUiPlayerBar@@EAEXXZ 00414790 f   UiPlayerBar.obj
 0001:000137c0       ?PopupChannelMenu@KUiPlayerBar@@AAEXHH@Z 004147c0 f   UiPlayerBar.obj
 0001:00013b40       ?PopupPhraseMenu@KUiPlayerBar@@AAEXHH_N@Z 00414b40 f   UiPlayerBar.obj
 0001:00013c00       ?OnSend@KUiPlayerBar@@AAEXH@Z 00414c00 f   UiPlayerBar.obj
 0001:00013fd0       ?IsCanSendMessage@KUiPlayerBar@@SAHPBDHPADH@Z 00414fd0 f   UiPlayerBar.obj
 0001:00014080       ?OnSendChannelMessage@KUiPlayerBar@@SAXKPBDH@Z 00415080 f   UiPlayerBar.obj
 0001:00014130       ?OnDirectSendChannelMessage@KUiPlayerBar@@AAEXKEPBDH@Z 00415130 f   UiPlayerBar.obj
 0001:000141d0       ?OnSendSomeoneMessage@KUiPlayerBar@@SAXPBD0H@Z 004151d0 f   UiPlayerBar.obj
 0001:000142a0       ?InputRecentMsg@KUiPlayerBar@@AAEX_N@Z 004152a0 f   UiPlayerBar.obj
 0001:00014320       ?OnObjPickedDropped@KUiPlayerBar@@AAEXPAUITEM_PICKDROP_PLACE@@0@Z 00415320 f   UiPlayerBar.obj
 0001:00014420       ?OnUseItem@KUiPlayerBar@@SAXH@Z 00415420 f   UiPlayerBar.obj
 0001:000144a0       ?GetChannelIndex@KUiPlayerBar@@AAEHPBD@Z 004154a0 f   UiPlayerBar.obj
 0001:00014560       ?SetCurrentChannel@KUiPlayerBar@@SAXH@Z 00415560 f   UiPlayerBar.obj
 0001:000146a0       ?InputCurrentChannel@KUiPlayerBar@@AAEXH_N@Z 004156a0 f   UiPlayerBar.obj
 0001:00014710       ?SwitchChannel@KUiPlayerBar@@SAXH@Z 00415710 f   UiPlayerBar.obj
 0001:00014770       ?GetCurChannel@KUiPlayerBar@@SAHXZ 00415770 f   UiPlayerBar.obj
 0001:00014790       ?UpdateXXXNumber@KUiPlayerBar@@AAEXAAH0@Z 00415790 f   UiPlayerBar.obj
 0001:00014840       ?UpdateRuntimeAttribute@KUiPlayerBar@@AAEXAAH0@Z 00415840 f   UiPlayerBar.obj
 0001:000148b0       ?UpdateItem@KUiPlayerBar@@QAEXHII@Z 004158b0 f   UiPlayerBar.obj
 0001:000148f0       ?UpdateSkill@KUiPlayerBar@@QAEXHII@Z 004158f0 f   UiPlayerBar.obj
 0001:00014930       ?Breathe@KUiPlayerBar@@EAEXXZ 00415930 f   UiPlayerBar.obj
 0001:00014ba0       ?IsHasCost@KUiPlayerBar@@AAEHEHHHHAAH00@Z 00415ba0 f   UiPlayerBar.obj
 0001:00014d00       ?InputNameMsg@KUiPlayerBar@@SAXDPBD_N@Z 00415d00 f   UiPlayerBar.obj
 0001:00014f70       ??Rstring_iless@@QBE_NABV?$basic_string@DU?$char_traits@D@std@@V?$allocator@D@2@@std@@0@Z 00415f70 f i UiPlayerBar.obj
 0001:00014fd0       ?FindRecentPlayer@KUiPlayerBar@@SAHPBD@Z 00415fd0 f   UiPlayerBar.obj
 0001:00015050       ?GetRecentPlayerName@KUiPlayerBar@@SAPADH@Z 00416050 f   UiPlayerBar.obj
 0001:00015090       ?AddRecentPlayer@KUiPlayerBar@@SAHPBD@Z 00416090 f   UiPlayerBar.obj
 0001:000151a0       ?ReplaceSpecialName@KUiPlayerBar@@AAEXPADI0@Z 004161a0 f   UiPlayerBar.obj
 0001:000151c0       ?GetExp@KUiPlayerBar@@SA_NAAH00@Z 004161c0 f   UiPlayerBar.obj
 0001:00015200       ?LoadPrivateSetting@KUiPlayerBar@@SAHPAVKIniFile@@@Z 00416200 f   UiPlayerBar.obj
 0001:000152d0       ?SavePrivateSetting@KUiPlayerBar@@SAHPAVKIniFile@@@Z 004162d0 f   UiPlayerBar.obj
 0001:00015360       ?_Lbound@?$_Tree@V?$basic_string@DU?$char_traits@D@std@@V?$allocator@D@2@@std@@U?$pair@$$CBV?$basic_string@DU?$char_traits@D@std@@V?$allocator@D@2@@std@@UShortFuncInfo@@@2@U_Kfn@?$map@V?$basic_string@DU?$char_traits@D@std@@V?$allocator@D@2@@std@@UShortFuncInfo@@Ustring_iless@@V?$allocator@UShortFuncInfo@@@2@@2@Ustring_iless@@V?$allocator@UShortFuncInfo@@@2@@std@@IBEPAU_Node@12@ABV?$basic_string@DU?$char_traits@D@std@@V?$allocator@D@2@@2@@Z 00416360 f i UiPlayerBar.obj
 0001:000153e0       ?GetIfVisible@KUiStatus@@SAPAV1@XZ 004163e0 f   UiStatus.obj
 0001:00015400       ?OpenWindow@KUiStatus@@SAPAV1@XZ 00416400 f   UiStatus.obj
 0001:00015700       ??_GKUiStatus@@EAEPAXI@Z   00416700 f i UiStatus.obj
 0001:00015700       ??_EKUiStatus@@EAEPAXI@Z   00416700 f i UiStatus.obj
 0001:00015720       ??1KUiStatus@@EAE@XZ       00416720 f i UiStatus.obj
 0001:000159a0       ?CloseWindow@KUiStatus@@SAX_N@Z 004169a0 f   UiStatus.obj
 0001:000159d0       ?Initialize@KUiStatus@@AAEXXZ 004169d0 f   UiStatus.obj
 0001:00015c10       ?LoadScheme@KUiStatus@@SAXPBD@Z 00416c10 f   UiStatus.obj
 0001:00015cc0       ?LoadScheme@KUiStatus@@AAEXPAVKIniFile@@@Z 00416cc0 f   UiStatus.obj
 0001:00015ff0       ?WndProc@KUiStatus@@EAEHIIH@Z 00416ff0 f   UiStatus.obj
 0001:00016100       ?UseRemainPoint@KUiStatus@@AAEXW4UI_PLAYER_ATTRIBUTE@@@Z 00417100 f   UiStatus.obj
 0001:00016190       ?UpdateBaseData@KUiStatus@@QAEXXZ 00417190 f   UiStatus.obj
 0001:00016200       ?UpdateRuntimeInfo@KUiStatus@@QAEXPAUKUiPlayerRuntimeInfo@@@Z 00417200 f   UiStatus.obj
 0001:00016280       ?UpdateData@KUiStatus@@UAEXXZ 00417280 f   UiStatus.obj
 0001:000162a0       ?UpdateAllEquips@KUiStatus@@QAEXXZ 004172a0 f   UiStatus.obj
 0001:00016310       ?UpdateRuntimeAttribute@KUiStatus@@QAEXPAUKUiPlayerAttribute@@@Z 00417310 f   UiStatus.obj
 0001:00016540       ?OnEquiptChanged@KUiStatus@@AAEXPAUITEM_PICKDROP_PLACE@@0@Z 00417540 f   UiStatus.obj
 0001:000166b0       ?UpdateEquip@KUiStatus@@QAEXPAUKUiObjAtRegion@@H@Z 004176b0 f   UiStatus.obj
 0001:00016720       ??0KUiOptions@@AAE@XZ      00417720 f   UiOptions.obj
 0001:000168a0       ??_EKUiOptions@@EAEPAXI@Z  004178a0 f i UiOptions.obj
 0001:000168a0       ??_GKUiOptions@@EAEPAXI@Z  004178a0 f i UiOptions.obj
 0001:000168c0       ??1KUiOptions@@EAE@XZ      004178c0 f i UiOptions.obj
 0001:00016a10       ?CancelMenu@KUiOptions@@AAEXXZ 00417a10 f   UiOptions.obj
 0001:00016a40       ?GetIfVisible@KUiOptions@@SAPAV1@XZ 00417a40 f   UiOptions.obj
 0001:00016a60       ?OpenWindow@KUiOptions@@SAPAV1@PAVKWndWindow@@@Z 00417a60 f   UiOptions.obj
 0001:00016b10       ?CloseWindow@KUiOptions@@SAXXZ 00417b10 f   UiOptions.obj
 0001:00016b60       ?Initialize@KUiOptions@@AAEXXZ 00417b60 f   UiOptions.obj
 0001:00016c30       ?LoadScheme@KUiOptions@@SAXPBD@Z 00417c30 f   UiOptions.obj
 0001:00016ce0       ?LoadScheme@KUiOptions@@AAEXPAVKIniFile@@@Z 00417ce0 f   UiOptions.obj
 0001:00016f90       ?WndProc@KUiOptions@@EAEHIIH@Z 00417f90 f   UiOptions.obj
 0001:00017160       ?UpdateSettingSet@KUiOptions@@AAEXH_N@Z 00418160 f   UiOptions.obj
 0001:00017270       ?PopupSeleteSetMenu@KUiOptions@@AAEXHH@Z 00418270 f   UiOptions.obj
 0001:00017380       ?OnScrollBarPosChanged@KUiOptions@@AAEXPAVKWndWindow@@H@Z 00418380 f   UiOptions.obj
 0001:000173d0       ?UpdateAllToggleBtn@KUiOptions@@AAEXXZ 004183d0 f   UiOptions.obj
 0001:000174f0       ?UpdateAllStatusImg@KUiOptions@@AAEXXZ 004184f0 f   UiOptions.obj
 0001:00017560       ?LoadSetting@KUiOptions@@SAX_N0@Z 00418560 f   UiOptions.obj
 0001:00017830       ?StoreSetting@KUiOptions@@AAEXXZ 00418830 f   UiOptions.obj
 0001:000178f0       ?ToggleOption@KUiOptions@@QAEXH@Z 004188f0 f   UiOptions.obj
 0001:000179c0       ?SetMusicValue@KUiOptions@@QAEXH@Z 004189c0 f   UiOptions.obj
 0001:000179f0       ?SetSoundValue@KUiOptions@@QAEXH@Z 004189f0 f   UiOptions.obj
 0001:00017a20       ?SetBrightness@KUiOptions@@QAEXH@Z 00418a20 f   UiOptions.obj
 0001:00017a50       ?OpenWindow@KUiInit@@SAPAV1@_N0@Z 00418a50 f   UiInit.obj
 0001:00017bb0       ??_GKUiInit@@EAEPAXI@Z     00418bb0 f i UiInit.obj
 0001:00017bb0       ??_EKUiInit@@EAEPAXI@Z     00418bb0 f i UiInit.obj
 0001:00017bd0       ??1KUiInit@@EAE@XZ         00418bd0 f i UiInit.obj
 0001:00017c60       ?CloseWindow@KUiInit@@SAXXZ 00418c60 f   UiInit.obj
 0001:00017c90       ?PlayStartMovie@KUiInit@@AAEXXZ 00418c90 f   UiInit.obj
 0001:00017e40       ?PlayTitleMusic@KUiInit@@SAXXZ 00418e40 f   UiInit.obj
 0001:00017f70       ?StopTitleMusic@KUiInit@@SAXXZ 00418f70 f   UiInit.obj
 0001:00017f90       ?LoadScheme@KUiInit@@AAEXPBD@Z 00418f90 f   UiInit.obj
 0001:000180c0       ?Initialize@KUiInit@@AAEXXZ 004190c0 f   UiInit.obj
 0001:00018140       ?WndProc@KUiInit@@EAEHIIH@Z 00419140 f   UiInit.obj
 0001:000181c0       ?OnKeyDown@KUiInit@@AAEHI@Z 004191c0 f   UiInit.obj
 0001:00018280       ?OnClickButton@KUiInit@@AAEXPAVKWndButton@@@Z 00419280 f   UiInit.obj
 0001:000182f0       ?OnAutoLogin@KUiInit@@AAEXXZ 004192f0 f   UiInit.obj
 0001:00018370       ?GetActiveBtn@KUiInit@@AAEPAVKWndButton@@XZ 00419370 f   UiInit.obj
 0001:000183e0       ?ShowCompleted@KUiInit@@EAEXXZ 004193e0 f   UiInit.obj
 0001:000183f0       ??0KUiGetMoney@@AAE@XZ     004193f0 f   UiGetMoney.obj
 0001:00018480       ??_GKUiGetMoney@@EAEPAXI@Z 00419480 f i UiGetMoney.obj
 0001:00018480       ??_EKUiGetMoney@@EAEPAXI@Z 00419480 f i UiGetMoney.obj
 0001:000184a0       ??1KUiGetMoney@@EAE@XZ     004194a0 f i UiGetMoney.obj
 0001:00018520       ?OpenWindow@KUiGetMoney@@SAPAV1@HHPAVKWndWindow@@I0@Z 00419520 f   UiGetMoney.obj
 0001:00018630       ?CloseWindow@KUiGetMoney@@SAX_N@Z 00419630 f   UiGetMoney.obj
 0001:00018670       ?GetIfVisible@KUiGetMoney@@SAPAV1@XZ 00419670 f   UiGetMoney.obj
 0001:00018690       ?Show@KUiGetMoney@@AAEXPAVKWndWindow@@@Z 00419690 f   UiGetMoney.obj
 0001:00018740       ?Hide@KUiGetMoney@@EAEXXZ  00419740 f   UiGetMoney.obj
 0001:00018760       ?Initialize@KUiGetMoney@@AAEHXZ 00419760 f   UiGetMoney.obj
 0001:000187d0       ?LoadScheme@KUiGetMoney@@SAXPBD@Z 004197d0 f   UiGetMoney.obj
 0001:000188e0       ?WndProc@KUiGetMoney@@EAEHIIH@Z 004198e0 f   UiGetMoney.obj
 0001:000189a0       ?OnOk@KUiGetMoney@@AAEXXZ  004199a0 f   UiGetMoney.obj
 0001:000189e0       ?OnCheckInput@KUiGetMoney@@AAEXXZ 004199e0 f   UiGetMoney.obj
 0001:00018a80       ?OnCancel@KUiGetMoney@@AAEXXZ 00419a80 f   UiGetMoney.obj
 0001:00018ab0       ?GetIfVisible@KUiItem@@SAPAV1@XZ 00419ab0 f   UiItem.obj
 0001:00018ad0       ?OpenWindow@KUiItem@@SAPAV1@XZ 00419ad0 f   UiItem.obj
 0001:00018be0       ??_GKUiItem@@EAEPAXI@Z     00419be0 f i UiItem.obj
 0001:00018be0       ??_EKUiItem@@EAEPAXI@Z     00419be0 f i UiItem.obj
 0001:00018c00       ??1KUiItem@@EAE@XZ         00419c00 f i UiItem.obj
 0001:00018ca0       ?CloseWindow@KUiItem@@SAX_N@Z 00419ca0 f   UiItem.obj
 0001:00018ce0       ?Initialize@KUiItem@@AAEXXZ 00419ce0 f   UiItem.obj
 0001:00018d80       ?Breathe@KUiItem@@UAEXXZ   00419d80 f   UiItem.obj
 0001:00018db0       ?OnNpcTradeMode@KUiItem@@SAX_N@Z 00419db0 f   UiItem.obj
 0001:00018dd0       ?UpdateData@KUiItem@@EAEXXZ 00419dd0 f   UiItem.obj
 0001:00018ea0       ?UpdateItem@KUiItem@@QAEXPAUKUiObjAtRegion@@H@Z 00419ea0 f   UiItem.obj
 0001:00018f30       ?LoadScheme@KUiItem@@SAXPBD@Z 00419f30 f   UiItem.obj
 0001:00019080       ?OnClickItem@KUiItem@@AAEXPAUKUiDraggedObject@@_N@Z 0041a080 f   UiItem.obj
 0001:00019170       ?OnRepairItem@KUiItem@@AAEXPAUKUiDraggedObject@@@Z 0041a170 f   UiItem.obj
 0001:00019200       ?WndProc@KUiItem@@EAEHIIH@Z 0041a200 f   UiItem.obj
 0001:000193b0       ?OnGetMoney@KUiItem@@AAEXH@Z 0041a3b0 f   UiItem.obj
 0001:000193e0       ?OnItemPickDrop@KUiItem@@AAEXPAUITEM_PICKDROP_PLACE@@0@Z 0041a3e0 f   UiItem.obj
 0001:00019530       ??0KUiFightSkillSubPage@@QAE@XZ 0041a530 f   UiSkills.obj
 0001:000195a0       ??1KWndPage@@UAE@XZ        0041a5a0 f i UiSkills.obj
 0001:000195b0       ??_EKWndPage@@UAEPAXI@Z    0041a5b0 f i UiSkills.obj
 0001:000195b0       ??_GKWndPage@@UAEPAXI@Z    0041a5b0 f i UiSkills.obj
 0001:000195d0       ??_EKUiFightSkillSubPage@@UAEPAXI@Z 0041a5d0 f i UiSkills.obj
 0001:000195d0       ??_GKUiFightSkillSubPage@@UAEPAXI@Z 0041a5d0 f i UiSkills.obj
 0001:000195f0       ??1KUiFightSkillSubPage@@UAE@XZ 0041a5f0 f i UiSkills.obj
 0001:00019650       ?Initialize@KUiFightSkillSubPage@@QAEXXZ 0041a650 f   UiSkills.obj
 0001:00019690       ?LoadScheme@KUiFightSkillSubPage@@QAEXPBD@Z 0041a690 f   UiSkills.obj
 0001:000197f0       ?UpdateRemainPoint@KUiFightSkillSubPage@@QAEXH@Z 0041a7f0 f   UiSkills.obj
 0001:00019800       ?UpdateSkill@KUiFightSkillSubPage@@QAEXPAUKUiSkillData@@H@Z 0041a800 f   UiSkills.obj
 0001:00019830       ?UpdateData@KUiFightSkillSubPage@@QAEXPAUKUiSkillData@@@Z 0041a830 f   UiSkills.obj
 0001:00019870       ?WndProc@KUiFightSkillSubPage@@EAEHIIH@Z 0041a870 f   UiSkills.obj
 0001:000198d0       ?PaintWindow@KUiFightSkillSubPage@@EAEXXZ 0041a8d0 f   UiSkills.obj
 0001:00019a10       ?Initialize@KUiFightSkillSub@@QAEXXZ 0041aa10 f   UiSkills.obj
 0001:00019a50       ?LoadScheme@KUiFightSkillSub@@QAEXPBD@Z 0041aa50 f   UiSkills.obj
 0001:00019b70       ?UpdateRemainPoint@KUiFightSkillSub@@QAEXH@Z 0041ab70 f   UiSkills.obj
 0001:00019ba0       ?UpdateSkill@KUiFightSkillSub@@QAEXPAUKUiSkillData@@H@Z 0041aba0 f   UiSkills.obj
 0001:00019be0       ?UpdateData@KUiFightSkillSub@@UAEXXZ 0041abe0 f   UiSkills.obj
 0001:00019c30       ?Initialize@KUiFightSkill@@QAEXXZ 0041ac30 f   UiSkills.obj
 0001:00019c60       ?LoadScheme@KUiFightSkill@@QAEXPBD@Z 0041ac60 f   UiSkills.obj
 0001:00019d30       ?UpdateData@KUiFightSkill@@UAEXXZ 0041ad30 f   UiSkills.obj
 0001:00019d70       ?UpdateSkill@KUiFightSkill@@QAEXPAUKUiSkillData@@H@Z 0041ad70 f   UiSkills.obj
 0001:00019d90       ?UpdateRemainPoint@KUiFightSkill@@QAEXH@Z 0041ad90 f   UiSkills.obj
 0001:00019dc0       ??0KUiLiveSkill@@QAE@XZ    0041adc0 f   UiSkills.obj
 0001:00019e40       ??_GKUiLiveSkill@@UAEPAXI@Z 0041ae40 f i UiSkills.obj
 0001:00019e40       ??_EKUiLiveSkill@@UAEPAXI@Z 0041ae40 f i UiSkills.obj
 0001:00019e60       ??1KUiLiveSkill@@UAE@XZ    0041ae60 f i UiSkills.obj
 0001:00019ed0       ?Initialize@KUiLiveSkill@@QAEXXZ 0041aed0 f   UiSkills.obj
 0001:00019f10       ?LoadScheme@KUiLiveSkill@@QAEXPBD@Z 0041af10 f   UiSkills.obj
 0001:0001a090       ?WndProc@KUiLiveSkill@@EAEHIIH@Z 0041b090 f   UiSkills.obj
 0001:0001a0f0       ?PaintWindow@KUiLiveSkill@@EAEXXZ 0041b0f0 f   UiSkills.obj
 0001:0001a230       ?UpdateBaseData@KUiLiveSkill@@QAEXXZ 0041b230 f   UiSkills.obj
 0001:0001a270       ?UpdateSkill@KUiLiveSkill@@QAEXPAUKUiSkillData@@H@Z 0041b270 f   UiSkills.obj
 0001:0001a2b0       ?UpdateData@KUiLiveSkill@@UAEXXZ 0041b2b0 f   UiSkills.obj
 0001:0001a310       ?OpenWindow@KUiSkills@@SAPAV1@XZ 0041b310 f   UiSkills.obj
 0001:0001a4c0       ??_GKUiSkills@@EAEPAXI@Z   0041b4c0 f i UiSkills.obj
 0001:0001a4c0       ??_EKUiSkills@@EAEPAXI@Z   0041b4c0 f i UiSkills.obj
 0001:0001a4e0       ??1KUiSkills@@EAE@XZ       0041b4e0 f i UiSkills.obj
 0001:0001a620       ??1KUiFightSkill@@UAE@XZ   0041b620 f i UiSkills.obj
 0001:0001a6d0       ??_GKUiFightSkill@@UAEPAXI@Z 0041b6d0 f i UiSkills.obj
 0001:0001a6d0       ??_EKUiFightSkill@@UAEPAXI@Z 0041b6d0 f i UiSkills.obj
 0001:0001a6f0       ??_EKUiFightSkillSub@@UAEPAXI@Z 0041b6f0 f i UiSkills.obj
 0001:0001a6f0       ??_GKUiFightSkillSub@@UAEPAXI@Z 0041b6f0 f i UiSkills.obj
 0001:0001a710       ??1KUiFightSkillSub@@UAE@XZ 0041b710 f i UiSkills.obj
 0001:0001a790       ?GetIfVisible@KUiSkills@@SAPAV1@XZ 0041b790 f   UiSkills.obj
 0001:0001a7b0       ?CloseWindow@KUiSkills@@SAX_N@Z 0041b7b0 f   UiSkills.obj
 0001:0001a7e0       ?Initialize@KUiSkills@@AAEXXZ 0041b7e0 f   UiSkills.obj
 0001:0001a870       ?LoadScheme@KUiSkills@@SAXPBD@Z 0041b870 f   UiSkills.obj
 0001:0001a9a0       ?UpdateSkill@KUiSkills@@SAXPAUKUiSkillData@@H@Z 0041b9a0 f   UiSkills.obj
 0001:0001aab0       ?UpdateFightRemainPoint@KUiSkills@@QAEXH@Z 0041bab0 f   UiSkills.obj
 0001:0001aad0       ?UpdateLiveBaseData@KUiSkills@@QAEXXZ 0041bad0 f   UiSkills.obj
 0001:0001aae0       ?WndProc@KUiSkills@@EAEHIIH@Z 0041bae0 f   UiSkills.obj
 0001:0001ab20       ??0KUiSkillTree@@AAE@XZ    0041bb20 f   UiSkillTree.obj
 0001:0001ab50       ??_GKUiSkillTree@@EAEPAXI@Z 0041bb50 f i UiSkillTree.obj
 0001:0001ab50       ??_EKUiSkillTree@@EAEPAXI@Z 0041bb50 f i UiSkillTree.obj
 0001:0001ab70       ??1KUiSkillTree@@EAE@XZ    0041bb70 f i UiSkillTree.obj
 0001:0001ab80       ?GetIfVisible@KUiSkillTree@@SAPAV1@XZ 0041bb80 f   UiSkillTree.obj
 0001:0001aba0       ?OpenWindow@KUiSkillTree@@SAPAV1@H@Z 0041bba0 f   UiSkillTree.obj
 0001:0001ac70       ?CloseWindow@KUiSkillTree@@SAX_N@Z 0041bc70 f   UiSkillTree.obj
 0001:0001aca0       ?Hide@KUiSkillTree@@EAEXXZ 0041bca0 f   UiSkillTree.obj
 0001:0001acc0       ?LoadConfig@KUiSkillTree@@SAXPAVKIniFile@@@Z 0041bcc0 f   UiSkillTree.obj
 0001:0001aea0       ?SaveConfig@KUiSkillTree@@SAXPAVKIniFile@@@Z 0041bea0 f   UiSkillTree.obj
 0001:0001afa0       ?Initialize@KUiSkillTree@@AAEXXZ 0041bfa0 f   UiSkillTree.obj
 0001:0001afe0       ?UpdateWndRect@KUiSkillTree@@AAEXXZ 0041bfe0 f   UiSkillTree.obj
 0001:0001b070       ?UpdateData@KUiSkillTree@@EAEXXZ 0041c070 f   UiSkillTree.obj
 0001:0001b100       ?PtInWindow@KUiSkillTree@@EAEHHH@Z 0041c100 f   UiSkillTree.obj
 0001:0001b140       ?GetSkillAtPos@KUiSkillTree@@AAEHHH@Z 0041c140 f   UiSkillTree.obj
 0001:0001b1c0       ?LoadScheme@KUiSkillTree@@SAXPBD@Z 0041c1c0 f   UiSkillTree.obj
 0001:0001b370       ?WndProc@KUiSkillTree@@EAEHIIH@Z 0041c370 f   UiSkillTree.obj
 0001:0001b4c0       ?HandleShortcutKey@KUiSkillTree@@SAXH@Z 0041c4c0 f   UiSkillTree.obj
 0001:0001b5e0       ?DirectHandleShortcutKey@KUiSkillTree@@SAXH@Z 0041c5e0 f   UiSkillTree.obj
 0001:0001b6f0       ?PaintWindow@KUiSkillTree@@EAEXXZ 0041c6f0 f   UiSkillTree.obj
 0001:0001b8c0       ?GetIfVisible@KUiStoreBox@@SAPAV1@XZ 0041c8c0 f   UiStoreBox.obj
 0001:0001b8e0       ?OpenWindow@KUiStoreBox@@SAPAV1@XZ 0041c8e0 f   UiStoreBox.obj
 0001:0001ba00       ??_EKUiStoreBox@@EAEPAXI@Z 0041ca00 f i UiStoreBox.obj
 0001:0001ba00       ??_GKUiStoreBox@@EAEPAXI@Z 0041ca00 f i UiStoreBox.obj
 0001:0001ba20       ??1KUiStoreBox@@EAE@XZ     0041ca20 f i UiStoreBox.obj
 0001:0001bab0       ?CloseWindow@KUiStoreBox@@SAXXZ 0041cab0 f   UiStoreBox.obj
 0001:0001bae0       ?Initialize@KUiStoreBox@@AAEXXZ 0041cae0 f   UiStoreBox.obj
 0001:0001bb70       ?UpdateData@KUiStoreBox@@EAEXXZ 0041cb70 f   UiStoreBox.obj
 0001:0001bc00       ?UpdateItem@KUiStoreBox@@QAEXPAUKUiObjAtRegion@@H@Z 0041cc00 f   UiStoreBox.obj
 0001:0001bcc0       ?LoadScheme@KUiStoreBox@@SAXPBD@Z 0041ccc0 f   UiStoreBox.obj
 0001:0001be00       ?WndProc@KUiStoreBox@@EAEHIIH@Z 0041ce00 f   UiStoreBox.obj
 0001:0001bea0       ?OnGetMoney@KUiStoreBox@@AAEXH@Z 0041cea0 f   UiStoreBox.obj
 0001:0001bec0       ?OnItemPickDrop@KUiStoreBox@@AAEXPAUITEM_PICKDROP_PLACE@@0@Z 0041cec0 f   UiStoreBox.obj
 0001:0001bfa0       ?OpenWindow@KUiESCDlg@@SAPAV1@XZ 0041cfa0 f   UiESCDlg.obj
 0001:0001c090       ??_GKUiESCDlg@@EAEPAXI@Z   0041d090 f i UiESCDlg.obj
 0001:0001c090       ??_EKUiESCDlg@@EAEPAXI@Z   0041d090 f i UiESCDlg.obj
 0001:0001c0b0       ??1KUiESCDlg@@EAE@XZ       0041d0b0 f   UiESCDlg.obj
 0001:0001c140       ?CloseWindow@KUiESCDlg@@SAX_N@Z 0041d140 f   UiESCDlg.obj
 0001:0001c170       ?GetIfVisible@KUiESCDlg@@SAPAV1@XZ 0041d170 f   UiESCDlg.obj
 0001:0001c190       ?Show@KUiESCDlg@@EAEXXZ    0041d190 f   UiESCDlg.obj
 0001:0001c1b0       ?Hide@KUiESCDlg@@EAEXXZ    0041d1b0 f   UiESCDlg.obj
 0001:0001c1d0       ?Initialize@KUiESCDlg@@AAEHXZ 0041d1d0 f   UiESCDlg.obj
 0001:0001c250       ?LoadScheme@KUiESCDlg@@AAEXPBD@Z 0041d250 f   UiESCDlg.obj
 0001:0001c360       ?WndProc@KUiESCDlg@@EAEHIIH@Z 0041d360 f   UiESCDlg.obj
 0001:0001c3b0       ?OnKeyDown@KUiESCDlg@@AAEHI@Z 0041d3b0 f   UiESCDlg.obj
 0001:0001c500       ?OnClickButton@KUiESCDlg@@AAEXPAVKWndWindow@@@Z 0041d500 f   UiESCDlg.obj
 0001:0001c590       ?GetActiveBtn@KUiESCDlg@@AAEPAVKWndButton@@XZ 0041d590 f   UiESCDlg.obj
 0001:0001c600       ??0KUiGetString@@AAE@XZ    0041d600 f   UiGetString.obj
 0001:0001c690       ??_EKUiGetString@@EAEPAXI@Z 0041d690 f i UiGetString.obj
 0001:0001c690       ??_GKUiGetString@@EAEPAXI@Z 0041d690 f i UiGetString.obj
 0001:0001c6b0       ??1KUiGetString@@EAE@XZ    0041d6b0 f i UiGetString.obj
 0001:0001c740       ?OpenWindow@KUiGetString@@SAPAV1@PBD0PAVKWndWindow@@IHH@Z 0041d740 f   UiGetString.obj
 0001:0001c890       ?CloseWindow@KUiGetString@@SAX_N@Z 0041d890 f   UiGetString.obj
 0001:0001c8d0       ?GetIfVisible@KUiGetString@@SAPAV1@XZ 0041d8d0 f   UiGetString.obj
 0001:0001c8f0       ?Show@KUiGetString@@EAEXXZ 0041d8f0 f   UiGetString.obj
 0001:0001c950       ?Hide@KUiGetString@@EAEXXZ 0041d950 f   UiGetString.obj
 0001:0001c970       ?Initialize@KUiGetString@@AAEXXZ 0041d970 f   UiGetString.obj
 0001:0001c9e0       ?LoadScheme@KUiGetString@@SAXPBD@Z 0041d9e0 f   UiGetString.obj
 0001:0001cb10       ?WndProc@KUiGetString@@EAEHIIH@Z 0041db10 f   UiGetString.obj
 0001:0001cbb0       ?OnOk@KUiGetString@@AAEXXZ 0041dbb0 f   UiGetString.obj
 0001:0001cc40       ?OnCancel@KUiGetString@@AAEXXZ 0041dc40 f   UiGetString.obj
 0001:0001cc70       ?OpenWindow@KUiMsgSel@@SAPAV1@PAUKUiQuestionAndAnswer@@@Z 0041dc70 f   UiMsgSel.obj
 0001:0001cd40       ??_GKUiMsgSel@@EAEPAXI@Z   0041dd40 f i UiMsgSel.obj
 0001:0001cd40       ??_EKUiMsgSel@@EAEPAXI@Z   0041dd40 f i UiMsgSel.obj
 0001:0001cd60       ??1KUiMsgSel@@EAE@XZ       0041dd60 f i UiMsgSel.obj
 0001:0001ce10       ?CloseWindow@KUiMsgSel@@SAX_N@Z 0041de10 f   UiMsgSel.obj
 0001:0001ce60       ?Initialize@KUiMsgSel@@AAEHXZ 0041de60 f   UiMsgSel.obj
 0001:0001ced0       ?LoadScheme@KUiMsgSel@@SAXPBD@Z 0041ded0 f   UiMsgSel.obj
 0001:0001cfc0       ?WndProc@KUiMsgSel@@EAEHIIH@Z 0041dfc0 f   UiMsgSel.obj
 0001:0001d1c0       ?OnClickMsg@KUiMsgSel@@AAEXH@Z 0041e1c0 f   UiMsgSel.obj
 0001:0001d1f0       ?ChangeCurSel@KUiMsgSel@@AAEX_N@Z 0041e1f0 f   UiMsgSel.obj
 0001:0001d230       ?Show@KUiMsgSel@@AAEXPAUKUiQuestionAndAnswer@@@Z 0041e230 f   UiMsgSel.obj
 0001:0001d310       ?Breathe@KUiMsgSel@@EAEXXZ 0041e310 f   UiMsgSel.obj
 0001:0001d380       ?GetIfVisible@KUiParadeItem@@SAPAV1@XZ 0041e380 f   UiParadeItem.obj
 0001:0001d3a0       ?OpenWindow@KUiParadeItem@@SAPAV1@PAUKUiPlayerItem@@@Z 0041e3a0 f   UiParadeItem.obj
 0001:0001d500       ??_EKUiParadeItem@@EAEPAXI@Z 0041e500 f i UiParadeItem.obj
 0001:0001d500       ??_GKUiParadeItem@@EAEPAXI@Z 0041e500 f i UiParadeItem.obj
 0001:0001d520       ??1KUiParadeItem@@EAE@XZ   0041e520 f i UiParadeItem.obj
 0001:0001d5c0       ?CloseWindow@KUiParadeItem@@SAX_N@Z 0041e5c0 f   UiParadeItem.obj
 0001:0001d600       ?Initialize@KUiParadeItem@@AAEXXZ 0041e600 f   UiParadeItem.obj
 0001:0001d670       ?LoadScheme@KUiParadeItem@@SAXPBD@Z 0041e670 f   UiParadeItem.obj
 0001:0001d720       ?LoadScheme@KUiParadeItem@@AAEXPAVKIniFile@@@Z 0041e720 f   UiParadeItem.obj
 0001:0001d7f0       ?WndProc@KUiParadeItem@@EAEHIIH@Z 0041e7f0 f   UiParadeItem.obj
 0001:0001d830       ?UpdateBaseData@KUiParadeItem@@AAEXPAUKUiPlayerItem@@@Z 0041e830 f   UiParadeItem.obj
 0001:0001d890       ?UpdateData@KUiParadeItem@@QAEXPAUKUiPlayerItem@@@Z 0041e890 f   UiParadeItem.obj
 0001:0001d8c0       ?UpdateAllEquips@KUiParadeItem@@AAEXPAUKUiPlayerItem@@@Z 0041e8c0 f   UiParadeItem.obj
 0001:0001d930       ?UpdateEquip@KUiParadeItem@@AAEXPAUKUiObjAtRegion@@H@Z 0041e930 f   UiParadeItem.obj
 0001:0001d9a0       ?OpenWindow@KUiSelPlayerNearby@@SAPAV1@XZ 0041e9a0 f   UiSelPlayerNearby.obj
 0001:0001da50       ??0KUiSelPlayerNearby@@AAE@XZ 0041ea50 f   UiSelPlayerNearby.obj
 0001:0001db20       ??_EKUiSelPlayerNearby@@EAEPAXI@Z 0041eb20 f i UiSelPlayerNearby.obj
 0001:0001db20       ??_GKUiSelPlayerNearby@@EAEPAXI@Z 0041eb20 f i UiSelPlayerNearby.obj
 0001:0001db40       ??1KUiSelPlayerNearby@@EAE@XZ 0041eb40 f i UiSelPlayerNearby.obj
 0001:0001dc10       ?DoesHaveVisibleWnd@KUiSelPlayerNearby@@SAHXZ 0041ec10 f   UiSelPlayerNearby.obj
 0001:0001dc30       ?Initialize@KUiSelPlayerNearby@@AAEXXZ 0041ec30 f   UiSelPlayerNearby.obj
 0001:0001dd50       ?LoadActionList@KUiSelPlayerNearby@@AAEXPAVKIniFile@@@Z 0041ed50 f   UiSelPlayerNearby.obj
 0001:0001dea0       ?CloseWindow@KUiSelPlayerNearby@@SAX_N@Z 0041eea0 f   UiSelPlayerNearby.obj
 0001:0001dee0       ?LoadScheme@KUiSelPlayerNearby@@SAXPBD@Z 0041eee0 f   UiSelPlayerNearby.obj
 0001:0001df90       ?LoadScheme@KUiSelPlayerNearby@@AAEXPAVKIniFile@@@Z 0041ef90 f   UiSelPlayerNearby.obj
 0001:0001e070       ?WndProc@KUiSelPlayerNearby@@EAEHIIH@Z 0041f070 f   UiSelPlayerNearby.obj
 0001:0001e1d0       ?OnClickXButton@KUiSelPlayerNearby@@AAEXH@Z 0041f1d0 f   UiSelPlayerNearby.obj
 0001:0001e300       ?UpdateData@KUiSelPlayerNearby@@EAEXXZ 0041f300 f   UiSelPlayerNearby.obj
 0001:0001e370       ?Clear@KUiSelPlayerNearby@@AAEXXZ 0041f370 f   UiSelPlayerNearby.obj
 0001:0001e3c0       ?PROP_GetTitleString@@YAPBDW4OBJ_ATTRIBYTE_TYPE@@@Z 0041f3c0 f   UiNewPlayer.obj
 0001:0001e3d0       ??0KUiNewPlayer@@AAE@XZ    0041f3d0 f   UiNewPlayer.obj
 0001:0001e530       ??_GKUiNewPlayer@@EAEPAXI@Z 0041f530 f i UiNewPlayer.obj
 0001:0001e530       ??_EKUiNewPlayer@@EAEPAXI@Z 0041f530 f i UiNewPlayer.obj
 0001:0001e550       ?OpenWindow@KUiNewPlayer@@SAPAV1@H@Z 0041f550 f   UiNewPlayer.obj
 0001:0001e610       ??1KUiNewPlayer@@EAE@XZ    0041f610 f   UiNewPlayer.obj
 0001:0001e720       ?CloseWindow@KUiNewPlayer@@SAX_N@Z 0041f720 f   UiNewPlayer.obj
 0001:0001e760       ?Initialize@KUiNewPlayer@@AAEXXZ 0041f760 f   UiNewPlayer.obj
 0001:0001e970       ?SelGender@KUiNewPlayer@@AAEXXZ 0041f970 f   UiNewPlayer.obj
 0001:0001eab0       ?LoadScheme@KUiNewPlayer@@AAEXPBD@Z 0041fab0 f   UiNewPlayer.obj
 0001:0001ecd0       ?WndProc@KUiNewPlayer@@EAEHIIH@Z 0041fcd0 f   UiNewPlayer.obj
 0001:0001ed40       ?OnClickButton@KUiNewPlayer@@AAEXPAVKWndWindow@@@Z 0041fd40 f   UiNewPlayer.obj
 0001:0001ee00       ?UpdateProperty@KUiNewPlayer@@AAEXXZ 0041fe00 f   UiNewPlayer.obj
 0001:0001ef00       ?OnOk@KUiNewPlayer@@AAEXXZ 0041ff00 f   UiNewPlayer.obj
 0001:0001ef40       ?OnCancel@KUiNewPlayer@@AAEXXZ 0041ff40 f   UiNewPlayer.obj
 0001:0001ef60       ?GetInputInfo@KUiNewPlayer@@AAEHXZ 0041ff60 f   UiNewPlayer.obj
 0001:0001f020       ?Breathe@KUiNewPlayer@@EAEXXZ 00420020 f   UiNewPlayer.obj
 0001:0001f0c0       ??0KUiSelNativePlace@@AAE@XZ 004200c0 f   UiSelNativePlace.obj
 0001:0001f160       ??_GKUiSelNativePlace@@EAEPAXI@Z 00420160 f i UiSelNativePlace.obj
 0001:0001f160       ??_EKUiSelNativePlace@@EAEPAXI@Z 00420160 f i UiSelNativePlace.obj
 0001:0001f180       ??1KUiSelNativePlace@@EAE@XZ 00420180 f   UiSelNativePlace.obj
 0001:0001f250       ?OpenWindow@KUiSelNativePlace@@SAPAV1@H@Z 00420250 f   UiSelNativePlace.obj
 0001:0001f310       ?CloseWindow@KUiSelNativePlace@@SAX_N@Z 00420310 f   UiSelNativePlace.obj
 0001:0001f340       ?Initialize@KUiSelNativePlace@@AAEXXZ 00420340 f   UiSelNativePlace.obj
 0001:0001f3c0       ?LoadList@KUiSelNativePlace@@AAEXH@Z 004203c0 f   UiSelNativePlace.obj
 0001:0001f6f0       ?LoadScheme@KUiSelNativePlace@@AAEXPBD@Z 004206f0 f   UiSelNativePlace.obj
 0001:0001f840       ?WndProc@KUiSelNativePlace@@EAEHIIH@Z 00420840 f   UiSelNativePlace.obj
 0001:0001f9a0       ?OnOk@KUiSelNativePlace@@AAEXXZ 004209a0 f   UiSelNativePlace.obj
 0001:0001f9e0       ?OnCancel@KUiSelNativePlace@@AAEXXZ 004209e0 f   UiSelNativePlace.obj
 0001:0001f9f0       ?UpdateData@KUiSelNativePlace@@EAEXXZ 004209f0 f   UiSelNativePlace.obj
 0001:0001fa70       ??0KUiSelPlayer@@AAE@XZ    00420a70 f   UiSelPlayer.obj
 0001:0001fbd0       ??_EKUiSelPlayer@@EAEPAXI@Z 00420bd0 f i UiSelPlayer.obj
 0001:0001fbd0       ??_GKUiSelPlayer@@EAEPAXI@Z 00420bd0 f i UiSelPlayer.obj
 0001:0001fbf0       ??1KUiSelPlayer@@EAE@XZ    00420bf0 f i UiSelPlayer.obj
 0001:0001fd10       ?OpenWindow@KUiSelPlayer@@SAPAV1@XZ 00420d10 f   UiSelPlayer.obj
 0001:0001fdd0       ?CloseWindow@KUiSelPlayer@@SAXXZ 00420dd0 f   UiSelPlayer.obj
 0001:0001fe00       ?Hide@KUiSelPlayer@@EAEXXZ 00420e00 f   UiSelPlayer.obj
 0001:0001fe20       ?Initialize@KUiSelPlayer@@AAEXXZ 00420e20 f   UiSelPlayer.obj
 0001:0001feb0       ?LoadScheme@KUiSelPlayer@@AAEXPBD@Z 00420eb0 f   UiSelPlayer.obj
 0001:00020220       ?PaintWindow@KUiSelPlayer@@EAEXXZ 00421220 f   UiSelPlayer.obj
 0001:00020310       ?UpdateData@KUiSelPlayer@@EAEXXZ 00421310 f   UiSelPlayer.obj
 0001:00020d10       ?GetRoleImageName@KUiSelPlayer@@SAXPADPBDEEH@Z 00421d10 f   UiSelPlayer.obj
 0001:00020d60       ?WndProc@KUiSelPlayer@@EAEHIIH@Z 00421d60 f   UiSelPlayer.obj
 0001:00020dd0       ?OnKeyDown@KUiSelPlayer@@AAEHI@Z 00421dd0 f   UiSelPlayer.obj
 0001:00020f80       ?OnSelectPlayer@KUiSelPlayer@@AAEXH_N@Z 00421f80 f   UiSelPlayer.obj
 0001:000210d0       ?OnClickButton@KUiSelPlayer@@AAEXPAVKWndButton@@_N@Z 004220d0 f   UiSelPlayer.obj
 0001:00021180       ?OnEnterGame@KUiSelPlayer@@AAEXXZ 00422180 f   UiSelPlayer.obj
 0001:000211c0       ?OnNew@KUiSelPlayer@@AAEXXZ 004221c0 f   UiSelPlayer.obj
 0001:000211f0       ?OnDel@KUiSelPlayer@@AAEXXZ 004221f0 f   UiSelPlayer.obj
 0001:00021220       ?OnCancel@KUiSelPlayer@@AAEXXZ 00422220 f   UiSelPlayer.obj
 0001:00021240       ?GetActiveBtn@KUiSelPlayer@@AAEPAVKWndButton@@XZ 00422240 f   UiSelPlayer.obj
 0001:000212b0       ??0KUiChannelSubscibe@@QAE@XZ 004222b0 f   UiChannelSubscibe.obj
 0001:000212c0       ??1KUiChannelSubscibe@@QAE@XZ 004222c0 f   UiChannelSubscibe.obj
 0001:000212f0       ?CreateUnit@ServerNotify@@UAEHPBD@Z 004222f0 f   UiChatCentre.obj
 0001:00021310       ?RenameUnitGroup@ServerNotify@@UAEHPBD00ABV?$list@V?$basic_string@DU?$char_traits@D@std@@V?$allocator@D@2@@std@@V?$allocator@V?$basic_string@DU?$char_traits@D@std@@V?$allocator@D@2@@std@@@2@@std@@@Z 00422310 f   UiChatCentre.obj
 0001:00021410       ?DeleteUnitGroup@ServerNotify@@UAEHPBD0ABV?$list@V?$basic_string@DU?$char_traits@D@std@@V?$allocator@D@2@@std@@V?$allocator@V?$basic_string@DU?$char_traits@D@std@@V?$allocator@D@2@@std@@@2@@std@@@Z 00422410 f   UiChatCentre.obj
 0001:00021510       ?MoveUnitGroup@ServerNotify@@UAEHPBD00ABV?$list@V?$basic_string@DU?$char_traits@D@std@@V?$allocator@D@2@@std@@V?$allocator@V?$basic_string@DU?$char_traits@D@std@@V?$allocator@D@2@@std@@@2@@std@@@Z 00422510 f   UiChatCentre.obj
 0001:00021610       ?DeleteUnitMember@ServerNotify@@UAEHPBD0@Z 00422610 f   UiChatCentre.obj
 0001:00021640       ?MoveUnitMember@ServerNotify@@UAEHPBD00@Z 00422640 f   UiChatCentre.obj
 0001:00021830       ?SendSyncData@ServerNotify@@QAEXPBD@Z 00422830 f   UiChatCentre.obj
 0001:000218a0       ?SendNotifyGroupFriend@ServerNotify@@QAEXPBDABV?$basic_string@DU?$char_traits@D@std@@V?$allocator@D@2@@std@@ABV?$list@V?$basic_string@DU?$char_traits@D@std@@V?$allocator@D@2@@std@@V?$allocator@V?$basic_string@DU?$char_traits@D@std@@V?$allocator@D@2@@std@@@2@@3@@Z 004228a0 f   UiChatCentre.obj
 0001:00021b30       ?SendNotifyDeleteFriend@ServerNotify@@QAEXPBD0@Z 00422b30 f   UiChatCentre.obj
 0001:00021ba0       ??0KUiChatCentre@@AAE@XZ   00422ba0 f   UiChatCentre.obj
 0001:00022050       ??_GKUiChatCentre@@EAEPAXI@Z 00423050 f i UiChatCentre.obj
 0001:00022050       ??_EKUiChatCentre@@EAEPAXI@Z 00423050 f i UiChatCentre.obj
 0001:00022070       ??1KUiChatCentre@@EAE@XZ   00423070 f i UiChatCentre.obj
 0001:00022190       ??1FriendUnit@KUiChatCentre@@QAE@XZ 00423190 f i UiChatCentre.obj
 0001:000222e0       ??1?$map@V?$basic_string@DU?$char_traits@D@std@@V?$allocator@D@2@@std@@V12@U?$less@V?$basic_string@DU?$char_traits@D@std@@V?$allocator@D@2@@std@@@2@V?$allocator@V?$basic_string@DU?$char_traits@D@std@@V?$allocator@D@2@@std@@@2@@std@@QAE@XZ 004232e0 f i UiChatCentre.obj
 0001:000223e0       ??1?$map@V?$basic_string@DU?$char_traits@D@std@@V?$allocator@D@2@@std@@EU?$less@V?$basic_string@DU?$char_traits@D@std@@V?$allocator@D@2@@std@@@2@V?$allocator@E@2@@std@@QAE@XZ 004233e0 f i UiChatCentre.obj
 0001:000224e0       ??1GROUPINFO@KUiChatCentre@@QAE@XZ 004234e0 f i UiChatCentre.obj
 0001:00022520       ??0FriendUnit@KUiChatCentre@@QAE@XZ 00423520 f i UiChatCentre.obj
 0001:000226c0       ??0GROUPINFO@KUiChatCentre@@QAE@XZ 004236c0 f i UiChatCentre.obj
 0001:000226e0       ?GetIfVisible@KUiChatCentre@@SAPAV1@XZ 004236e0 f   UiChatCentre.obj
 0001:00022700       ?OpenWindow@KUiChatCentre@@SAPAV1@_N@Z 00423700 f   UiChatCentre.obj
 0001:000227d0       ?Initialize@KUiChatCentre@@AAEXXZ 004237d0 f   UiChatCentre.obj
 0001:000228c0       ?CloseWindow@KUiChatCentre@@SAX_N@Z 004238c0 f   UiChatCentre.obj
 0001:00022900       ?LoadScheme@KUiChatCentre@@SAXPBD@Z 00423900 f   UiChatCentre.obj
 0001:000229b0       ?LoadScheme@KUiChatCentre@@AAEXPAVKIniFile@@@Z 004239b0 f   UiChatCentre.obj
 0001:00022d10       ?CreateSeverUnit@KUiChatCentre@@SAXXZ 00423d10 f   UiChatCentre.obj
 0001:00022d90       ?LoadPrivateSetting@KUiChatCentre@@SAHPAVKIniFile@@@Z 00423d90 f   UiChatCentre.obj
 0001:00022f30       ?SavePrivateSetting@KUiChatCentre@@SAHPAVKIniFile@@@Z 00423f30 f   UiChatCentre.obj
 0001:00023000       ?WndProc@KUiChatCentre@@EAEHIIH@Z 00424000 f   UiChatCentre.obj
 0001:00023270       ?OnMoveFriendToGroup@KUiChatCentre@@AAEXHH@Z 00424270 f   UiChatCentre.obj
 0001:00023300       ?OnSelGroupMenu@KUiChatCentre@@AAEXHH@Z 00424300 f   UiChatCentre.obj
 0001:00023400       ?DragWndSize@KUiChatCentre@@AAEXH@Z 00424400 f   UiChatCentre.obj
 0001:000234d0       ?OnSelFriendMenu@KUiChatCentre@@AAEXHH@Z 004244d0 f   UiChatCentre.obj
 0001:00023560       ?OnClickGroupBtn@KUiChatCentre@@AAE_NPAVKWndWindow@@_N@Z 00424560 f   UiChatCentre.obj
 0001:000235d0       ?SendFriendMsg@KUiChatCentre@@AAEXH_N@Z 004245d0 f   UiChatCentre.obj
 0001:00023610       ?UpdateData@KUiChatCentre@@SAXW4UICHATCENTRE_UPDATE@@IH@Z 00424610 f   UiChatCentre.obj
 0001:00023680       ?IsMyFriend@KUiChatCentre@@SA_NPAD@Z 00424680 f   UiChatCentre.obj
 0001:000237f0       ?AddFriendInfo@KUiChatCentre@@SA_NHPAD0@Z 004247f0 f   UiChatCentre.obj
 0001:00023d00       ?FriendStatus@KUiChatCentre@@SA_NHPADE@Z 00424d00 f   UiChatCentre.obj
 0001:00023fc0       ?NewGroup@KUiChatCentre@@SAXHPBD@Z 00424fc0 f   UiChatCentre.obj
 0001:000241c0       ?ReplaceGroupName@KUiChatCentre@@SAXHPBD0@Z 004251c0 f   UiChatCentre.obj
 0001:00024560       ?MoveFriendToGroup@KUiChatCentre@@SAXHPBD0@Z 00425560 f   UiChatCentre.obj
 0001:00024800       ?MoveGroupToGroup@KUiChatCentre@@SAXHPBD0_N@Z 00425800 f   UiChatCentre.obj
 0001:00024c60       ?FindUnitIndex@KUiChatCentre@@SAHPBD@Z 00425c60 f   UiChatCentre.obj
 0001:00024cd0       ?FindUnitIndexByRoleNameAtServerUnit@KUiChatCentre@@SAHPAD@Z 00425cd0 f   UiChatCentre.obj
 0001:00024e60       ?FindAddinUnitIndex@KUiChatCentre@@SAHPBD@Z 00425e60 f   UiChatCentre.obj
 0001:00024ee0       ?AddAddinUnit@KUiChatCentre@@SAHPBDPAUFriendNotify@@@Z 00425ee0 f   UiChatCentre.obj
 0001:00025030       ?RemoveAddinUnit@KUiChatCentre@@SAHPBD@Z 00426030 f   UiChatCentre.obj
 0001:00025380       ?DeleteFriend@KUiChatCentre@@SAXHPAD_N@Z 00426380 f   UiChatCentre.obj
 0001:00025560       ?OnClickButton@KUiChatCentre@@AAEXPAVKWndWindow@@@Z 00426560 f   UiChatCentre.obj
 0001:00025610       ?OnSelUnit@KUiChatCentre@@AAEXH@Z 00426610 f   UiChatCentre.obj
 0001:00025650       ?OnScrollList@KUiChatCentre@@AAEX_N@Z 00426650 f   UiChatCentre.obj
 0001:00025680       ?CancelMenu@KUiChatCentre@@AAEXXZ 00426680 f   UiChatCentre.obj
 0001:000256c0       ?PopupupGroupMenu@KUiChatCentre@@AAEXH@Z 004266c0 f   UiChatCentre.obj
 0001:00025730       ?PopupFriendMenu@KUiChatCentre@@AAEXH@Z 00426730 f   UiChatCentre.obj
 0001:000257a0       ?PopupSelGroupMenu@KUiChatCentre@@AAEXH@Z 004267a0 f   UiChatCentre.obj
 0001:000258a0       ?PopupSelUnitMenu@KUiChatCentre@@AAEXXZ 004268a0 f   UiChatCentre.obj
 0001:00025980       ?ClearInterface@KUiChatCentre@@AAEXXZ 00426980 f   UiChatCentre.obj
 0001:000259c0       ?ClearFriendList@KUiChatCentre@@AAEXXZ 004269c0 f   UiChatCentre.obj
 0001:00025a00       ?ClearUnitData@KUiChatCentre@@AAEXH@Z 00426a00 f   UiChatCentre.obj
 0001:00025c30       ?UpdateAll@KUiChatCentre@@AAEXH@Z 00426c30 f   UiChatCentre.obj
 0001:00025e30       ?UpdateGroup@KUiChatCentre@@AAEXH@Z 00426e30 f   UiChatCentre.obj
 0001:00026500       ?UpdateFriend@KUiChatCentre@@AAEXPAUKUiPlayerItem@@H@Z 00427500 f   UiChatCentre.obj
 0001:00026540       ?FindGroupIndex@FriendUnit@KUiChatCentre@@QAEHABV?$basic_string@DU?$char_traits@D@std@@V?$allocator@D@2@@std@@@Z 00427540 f   UiChatCentre.obj
 0001:000265a0       ?UpdateInterface@KUiChatCentre@@AAEXXZ 004275a0 f   UiChatCentre.obj
 0001:00026970       ?PaintWindow@KUiChatCentre@@EAEXXZ 00427970 f   UiChatCentre.obj
 0001:000269f0       ?AdjustSize@KUiChatCentre@@AAEXH@Z 004279f0 f   UiChatCentre.obj
 0001:00026b50       ?PtInWindow@KUiChatCentre@@EAEHHH@Z 00427b50 f   UiChatCentre.obj
 0001:00026bf0       ??Eiterator@?$_Tree@V?$basic_string@DU?$char_traits@D@std@@V?$allocator@D@2@@std@@U?$pair@$$CBV?$basic_string@DU?$char_traits@D@std@@V?$allocator@D@2@@std@@V12@@2@U_Kfn@?$map@V?$basic_string@DU?$char_traits@D@std@@V?$allocator@D@2@@std@@V12@U?$less@V?$basic_string@DU?$char_traits@D@std@@V?$allocator@D@2@@std@@@2@V?$allocator@V?$basic_string@DU?$char_traits@D@std@@V?$allocator@D@2@@std@@@2@@2@U?$less@V?$basic_string@DU?$char_traits@D@std@@V?$allocator@D@2@@std@@@2@V?$allocator@V?$basic_string@DU?$char_traits@D@std@@V?$allocator@D@2@@std@@@2@@std@@QAE?AV012@H@Z 00427bf0 f i UiChatCentre.obj
 0001:00026c50       ??1?$list@V?$basic_string@DU?$char_traits@D@std@@V?$allocator@D@2@@std@@V?$allocator@V?$basic_string@DU?$char_traits@D@std@@V?$allocator@D@2@@std@@@2@@std@@QAE@XZ 00427c50 f i UiChatCentre.obj
 0001:00026cb0       ??1?$pair@$$CBV?$basic_string@DU?$char_traits@D@std@@V?$allocator@D@2@@std@@V12@@std@@QAE@XZ 00427cb0 f i UiChatCentre.obj
 0001:00026d20       ??1?$pair@$$CBV?$basic_string@DU?$char_traits@D@std@@V?$allocator@D@2@@std@@E@std@@QAE@XZ 00427d20 f i UiChatCentre.obj
 0001:00026d60       ?insert@?$map@V?$basic_string@DU?$char_traits@D@std@@V?$allocator@D@2@@std@@V12@U?$less@V?$basic_string@DU?$char_traits@D@std@@V?$allocator@D@2@@std@@@2@V?$allocator@V?$basic_string@DU?$char_traits@D@std@@V?$allocator@D@2@@std@@@2@@std@@QAE?AU?$pair@Viterator@?$_Tree@V?$basic_string@DU?$char_traits@D@std@@V?$allocator@D@2@@std@@U?$pair@$$CBV?$basic_string@DU?$char_traits@D@std@@V?$allocator@D@2@@std@@V12@@2@U_Kfn@?$map@V?$basic_string@DU?$char_traits@D@std@@V?$allocator@D@2@@std@@V12@U?$less@V?$basic_string@DU?$char_traits@D@std@@V?$allocator@D@2@@std@@@2@V?$allocator@V?$basic_string@DU?$char_traits@D@std@@V?$allocator@D@2@@std@@@2@@2@U?$less@V?$basic_string@DU?$char_traits@D@std@@V?$allocator@D@2@@std@@@2@V?$allocator@V?$basic_string@DU?$char_traits@D@std@@V?$allocator@D@2@@std@@@2@@std@@_N@2@ABU?$pair@$$CBV?$basic_string@DU?$char_traits@D@std@@V?$allocator@D@2@@std@@V12@@2@@Z 00427d60 f i UiChatCentre.obj
 0001:00026e60       ??0?$_Tree@V?$basic_string@DU?$char_traits@D@std@@V?$allocator@D@2@@std@@U?$pair@$$CBV?$basic_string@DU?$char_traits@D@std@@V?$allocator@D@2@@std@@V12@@2@U_Kfn@?$map@V?$basic_string@DU?$char_traits@D@std@@V?$allocator@D@2@@std@@V12@U?$less@V?$basic_string@DU?$char_traits@D@std@@V?$allocator@D@2@@std@@@2@V?$allocator@V?$basic_string@DU?$char_traits@D@std@@V?$allocator@D@2@@std@@@2@@2@U?$less@V?$basic_string@DU?$char_traits@D@std@@V?$allocator@D@2@@std@@@2@V?$allocator@V?$basic_string@DU?$char_traits@D@std@@V?$allocator@D@2@@std@@@2@@std@@QAE@ABU?$less@V?$basic_string@DU?$char_traits@D@std@@V?$allocator@D@2@@std@@@1@_NABV?$allocator@V?$basic_string@DU?$char_traits@D@std@@V?$allocator@D@2@@std@@@1@@Z 00427e60 f i UiChatCentre.obj
 0001:00026e90       ?begin@?$_Tree@V?$basic_string@DU?$char_traits@D@std@@V?$allocator@D@2@@std@@U?$pair@$$CBV?$basic_string@DU?$char_traits@D@std@@V?$allocator@D@2@@std@@V12@@2@U_Kfn@?$map@V?$basic_string@DU?$char_traits@D@std@@V?$allocator@D@2@@std@@V12@U?$less@V?$basic_string@DU?$char_traits@D@std@@V?$allocator@D@2@@std@@@2@V?$allocator@V?$basic_string@DU?$char_traits@D@std@@V?$allocator@D@2@@std@@@2@@2@U?$less@V?$basic_string@DU?$char_traits@D@std@@V?$allocator@D@2@@std@@@2@V?$allocator@V?$basic_string@DU?$char_traits@D@std@@V?$allocator@D@2@@std@@@2@@std@@QAE?AViterator@12@XZ 00427e90 f i UiChatCentre.obj
 0001:00026ea0       ?erase@?$_Tree@V?$basic_string@DU?$char_traits@D@std@@V?$allocator@D@2@@std@@U?$pair@$$CBV?$basic_string@DU?$char_traits@D@std@@V?$allocator@D@2@@std@@V12@@2@U_Kfn@?$map@V?$basic_string@DU?$char_traits@D@std@@V?$allocator@D@2@@std@@V12@U?$less@V?$basic_string@DU?$char_traits@D@std@@V?$allocator@D@2@@std@@@2@V?$allocator@V?$basic_string@DU?$char_traits@D@std@@V?$allocator@D@2@@std@@@2@@2@U?$less@V?$basic_string@DU?$char_traits@D@std@@V?$allocator@D@2@@std@@@2@V?$allocator@V?$basic_string@DU?$char_traits@D@std@@V?$allocator@D@2@@std@@@2@@std@@QAE?AViterator@12@V312@@Z 00427ea0 f i UiChatCentre.obj
 0001:00027300       ?erase@?$_Tree@V?$basic_string@DU?$char_traits@D@std@@V?$allocator@D@2@@std@@U?$pair@$$CBV?$basic_string@DU?$char_traits@D@std@@V?$allocator@D@2@@std@@V12@@2@U_Kfn@?$map@V?$basic_string@DU?$char_traits@D@std@@V?$allocator@D@2@@std@@V12@U?$less@V?$basic_string@DU?$char_traits@D@std@@V?$allocator@D@2@@std@@@2@V?$allocator@V?$basic_string@DU?$char_traits@D@std@@V?$allocator@D@2@@std@@@2@@2@U?$less@V?$basic_string@DU?$char_traits@D@std@@V?$allocator@D@2@@std@@@2@V?$allocator@V?$basic_string@DU?$char_traits@D@std@@V?$allocator@D@2@@std@@@2@@std@@QAE?AViterator@12@V312@0@Z 00428300 f i UiChatCentre.obj
 0001:000273e0       ?find@?$_Tree@V?$basic_string@DU?$char_traits@D@std@@V?$allocator@D@2@@std@@U?$pair@$$CBV?$basic_string@DU?$char_traits@D@std@@V?$allocator@D@2@@std@@V12@@2@U_Kfn@?$map@V?$basic_string@DU?$char_traits@D@std@@V?$allocator@D@2@@std@@V12@U?$less@V?$basic_string@DU?$char_traits@D@std@@V?$allocator@D@2@@std@@@2@V?$allocator@V?$basic_string@DU?$char_traits@D@std@@V?$allocator@D@2@@std@@@2@@2@U?$less@V?$basic_string@DU?$char_traits@D@std@@V?$allocator@D@2@@std@@@2@V?$allocator@V?$basic_string@DU?$char_traits@D@std@@V?$allocator@D@2@@std@@@2@@std@@QAE?AViterator@12@ABV?$basic_string@DU?$char_traits@D@std@@V?$allocator@D@2@@2@@Z 004283e0 f i UiChatCentre.obj
 0001:00027470       ??0?$pair@$$CBV?$basic_string@DU?$char_traits@D@std@@V?$allocator@D@2@@std@@V12@@std@@QAE@ABV?$basic_string@DU?$char_traits@D@std@@V?$allocator@D@2@@1@0@Z 00428470 f i UiChatCentre.obj
 0001:000275a0       ?insert@?$map@V?$basic_string@DU?$char_traits@D@std@@V?$allocator@D@2@@std@@EU?$less@V?$basic_string@DU?$char_traits@D@std@@V?$allocator@D@2@@std@@@2@V?$allocator@E@2@@std@@QAE?AU?$pair@Viterator@?$_Tree@V?$basic_string@DU?$char_traits@D@std@@V?$allocator@D@2@@std@@U?$pair@$$CBV?$basic_string@DU?$char_traits@D@std@@V?$allocator@D@2@@std@@E@2@U_Kfn@?$map@V?$basic_string@DU?$char_traits@D@std@@V?$allocator@D@2@@std@@EU?$less@V?$basic_string@DU?$char_traits@D@std@@V?$allocator@D@2@@std@@@2@V?$allocator@E@2@@2@U?$less@V?$basic_string@DU?$char_traits@D@std@@V?$allocator@D@2@@std@@@2@V?$allocator@E@2@@std@@_N@2@ABU?$pair@$$CBV?$basic_string@DU?$char_traits@D@std@@V?$allocator@D@2@@std@@E@2@@Z 004285a0 f i UiChatCentre.obj
 0001:000276a0       ?begin@?$_Tree@V?$basic_string@DU?$char_traits@D@std@@V?$allocator@D@2@@std@@U?$pair@$$CBV?$basic_string@DU?$char_traits@D@std@@V?$allocator@D@2@@std@@E@2@U_Kfn@?$map@V?$basic_string@DU?$char_traits@D@std@@V?$allocator@D@2@@std@@EU?$less@V?$basic_string@DU?$char_traits@D@std@@V?$allocator@D@2@@std@@@2@V?$allocator@E@2@@2@U?$less@V?$basic_string@DU?$char_traits@D@std@@V?$allocator@D@2@@std@@@2@V?$allocator@E@2@@std@@QAE?AViterator@12@XZ 004286a0 f i UiChatCentre.obj
 0001:000276b0       ?erase@?$_Tree@V?$basic_string@DU?$char_traits@D@std@@V?$allocator@D@2@@std@@U?$pair@$$CBV?$basic_string@DU?$char_traits@D@std@@V?$allocator@D@2@@std@@E@2@U_Kfn@?$map@V?$basic_string@DU?$char_traits@D@std@@V?$allocator@D@2@@std@@EU?$less@V?$basic_string@DU?$char_traits@D@std@@V?$allocator@D@2@@std@@@2@V?$allocator@E@2@@2@U?$less@V?$basic_string@DU?$char_traits@D@std@@V?$allocator@D@2@@std@@@2@V?$allocator@E@2@@std@@QAE?AViterator@12@V312@0@Z 004286b0 f i UiChatCentre.obj
 0001:00027790       ?find@?$_Tree@V?$basic_string@DU?$char_traits@D@std@@V?$allocator@D@2@@std@@U?$pair@$$CBV?$basic_string@DU?$char_traits@D@std@@V?$allocator@D@2@@std@@E@2@U_Kfn@?$map@V?$basic_string@DU?$char_traits@D@std@@V?$allocator@D@2@@std@@EU?$less@V?$basic_string@DU?$char_traits@D@std@@V?$allocator@D@2@@std@@@2@V?$allocator@E@2@@2@U?$less@V?$basic_string@DU?$char_traits@D@std@@V?$allocator@D@2@@std@@@2@V?$allocator@E@2@@std@@QAE?AViterator@12@ABV?$basic_string@DU?$char_traits@D@std@@V?$allocator@D@2@@2@@Z 00428790 f i UiChatCentre.obj
 0001:00027820       ??0?$pair@$$CBV?$basic_string@DU?$char_traits@D@std@@V?$allocator@D@2@@std@@E@std@@QAE@ABV?$basic_string@DU?$char_traits@D@std@@V?$allocator@D@2@@1@ABE@Z 00428820 f i UiChatCentre.obj
 0001:00027970       ?insert@?$list@V?$basic_string@DU?$char_traits@D@std@@V?$allocator@D@2@@std@@V?$allocator@V?$basic_string@DU?$char_traits@D@std@@V?$allocator@D@2@@std@@@2@@std@@QAE?AViterator@12@V312@ABV?$basic_string@DU?$char_traits@D@std@@V?$allocator@D@2@@2@@Z 00428970 f i UiChatCentre.obj
 0001:000279d0       ?erase@?$list@V?$basic_string@DU?$char_traits@D@std@@V?$allocator@D@2@@std@@V?$allocator@V?$basic_string@DU?$char_traits@D@std@@V?$allocator@D@2@@std@@@2@@std@@QAE?AViterator@12@V312@0@Z 004289d0 f i UiChatCentre.obj
 0001:00027a60       ?_Buynode@?$list@V?$basic_string@DU?$char_traits@D@std@@V?$allocator@D@2@@std@@V?$allocator@V?$basic_string@DU?$char_traits@D@std@@V?$allocator@D@2@@std@@@2@@std@@IAEPAU_Node@12@PAU312@0@Z 00428a60 f i UiChatCentre.obj
 0001:00027a90       ?lower_bound@?$_Tree@V?$basic_string@DU?$char_traits@D@std@@V?$allocator@D@2@@std@@U?$pair@$$CBV?$basic_string@DU?$char_traits@D@std@@V?$allocator@D@2@@std@@V12@@2@U_Kfn@?$map@V?$basic_string@DU?$char_traits@D@std@@V?$allocator@D@2@@std@@V12@U?$less@V?$basic_string@DU?$char_traits@D@std@@V?$allocator@D@2@@std@@@2@V?$allocator@V?$basic_string@DU?$char_traits@D@std@@V?$allocator@D@2@@std@@@2@@2@U?$less@V?$basic_string@DU?$char_traits@D@std@@V?$allocator@D@2@@std@@@2@V?$allocator@V?$basic_string@DU?$char_traits@D@std@@V?$allocator@D@2@@std@@@2@@std@@QAE?AViterator@12@ABV?$basic_string@DU?$char_traits@D@std@@V?$allocator@D@2@@2@@Z 00428a90 f i UiChatCentre.obj
 0001:00027af0       ?_Copy@?$_Tree@V?$basic_string@DU?$char_traits@D@std@@V?$allocator@D@2@@std@@U?$pair@$$CBV?$basic_string@DU?$char_traits@D@std@@V?$allocator@D@2@@std@@V12@@2@U_Kfn@?$map@V?$basic_string@DU?$char_traits@D@std@@V?$allocator@D@2@@std@@V12@U?$less@V?$basic_string@DU?$char_traits@D@std@@V?$allocator@D@2@@std@@@2@V?$allocator@V?$basic_string@DU?$char_traits@D@std@@V?$allocator@D@2@@std@@@2@@2@U?$less@V?$basic_string@DU?$char_traits@D@std@@V?$allocator@D@2@@std@@@2@V?$allocator@V?$basic_string@DU?$char_traits@D@std@@V?$allocator@D@2@@std@@@2@@std@@IAEXABV12@@Z 00428af0 f i UiChatCentre.obj
 0001:00027be0       ?_Erase@?$_Tree@V?$basic_string@DU?$char_traits@D@std@@V?$allocator@D@2@@std@@U?$pair@$$CBV?$basic_string@DU?$char_traits@D@std@@V?$allocator@D@2@@std@@V12@@2@U_Kfn@?$map@V?$basic_string@DU?$char_traits@D@std@@V?$allocator@D@2@@std@@V12@U?$less@V?$basic_string@DU?$char_traits@D@std@@V?$allocator@D@2@@std@@@2@V?$allocator@V?$basic_string@DU?$char_traits@D@std@@V?$allocator@D@2@@std@@@2@@2@U?$less@V?$basic_string@DU?$char_traits@D@std@@V?$allocator@D@2@@std@@@2@V?$allocator@V?$basic_string@DU?$char_traits@D@std@@V?$allocator@D@2@@std@@@2@@std@@IAEXPAU_Node@12@@Z 00428be0 f i UiChatCentre.obj
 0001:00027c30       ?_Init@?$_Tree@V?$basic_string@DU?$char_traits@D@std@@V?$allocator@D@2@@std@@U?$pair@$$CBV?$basic_string@DU?$char_traits@D@std@@V?$allocator@D@2@@std@@V12@@2@U_Kfn@?$map@V?$basic_string@DU?$char_traits@D@std@@V?$allocator@D@2@@std@@V12@U?$less@V?$basic_string@DU?$char_traits@D@std@@V?$allocator@D@2@@std@@@2@V?$allocator@V?$basic_string@DU?$char_traits@D@std@@V?$allocator@D@2@@std@@@2@@2@U?$less@V?$basic_string@DU?$char_traits@D@std@@V?$allocator@D@2@@std@@@2@V?$allocator@V?$basic_string@DU?$char_traits@D@std@@V?$allocator@D@2@@std@@@2@@std@@IAEXXZ 00428c30 f i UiChatCentre.obj
 0001:00027cd0       ?_Min@?$_Tree@V?$basic_string@DU?$char_traits@D@std@@V?$allocator@D@2@@std@@U?$pair@$$CBV?$basic_string@DU?$char_traits@D@std@@V?$allocator@D@2@@std@@V12@@2@U_Kfn@?$map@V?$basic_string@DU?$char_traits@D@std@@V?$allocator@D@2@@std@@V12@U?$less@V?$basic_string@DU?$char_traits@D@std@@V?$allocator@D@2@@std@@@2@V?$allocator@V?$basic_string@DU?$char_traits@D@std@@V?$allocator@D@2@@std@@@2@@2@U?$less@V?$basic_string@DU?$char_traits@D@std@@V?$allocator@D@2@@std@@@2@V?$allocator@V?$basic_string@DU?$char_traits@D@std@@V?$allocator@D@2@@std@@@2@@std@@KAPAU_Node@12@PAU312@@Z 00428cd0 f i UiChatCentre.obj
 0001:00027cf0       ?_Inc@const_iterator@?$_Tree@V?$basic_string@DU?$char_traits@D@std@@V?$allocator@D@2@@std@@U?$pair@$$CBV?$basic_string@DU?$char_traits@D@std@@V?$allocator@D@2@@std@@V12@@2@U_Kfn@?$map@V?$basic_string@DU?$char_traits@D@std@@V?$allocator@D@2@@std@@V12@U?$less@V?$basic_string@DU?$char_traits@D@std@@V?$allocator@D@2@@std@@@2@V?$allocator@V?$basic_string@DU?$char_traits@D@std@@V?$allocator@D@2@@std@@@2@@2@U?$less@V?$basic_string@DU?$char_traits@D@std@@V?$allocator@D@2@@std@@@2@V?$allocator@V?$basic_string@DU?$char_traits@D@std@@V?$allocator@D@2@@std@@@2@@std@@QAEXXZ 00428cf0 f i UiChatCentre.obj
 0001:00027d40       ?erase@?$_Tree@V?$basic_string@DU?$char_traits@D@std@@V?$allocator@D@2@@std@@U?$pair@$$CBV?$basic_string@DU?$char_traits@D@std@@V?$allocator@D@2@@std@@E@2@U_Kfn@?$map@V?$basic_string@DU?$char_traits@D@std@@V?$allocator@D@2@@std@@EU?$less@V?$basic_string@DU?$char_traits@D@std@@V?$allocator@D@2@@std@@@2@V?$allocator@E@2@@2@U?$less@V?$basic_string@DU?$char_traits@D@std@@V?$allocator@D@2@@std@@@2@V?$allocator@E@2@@std@@QAE?AViterator@12@V312@@Z 00428d40 f i UiChatCentre.obj
 0001:00028170       ?_Copy@?$_Tree@V?$basic_string@DU?$char_traits@D@std@@V?$allocator@D@2@@std@@U?$pair@$$CBV?$basic_string@DU?$char_traits@D@std@@V?$allocator@D@2@@std@@E@2@U_Kfn@?$map@V?$basic_string@DU?$char_traits@D@std@@V?$allocator@D@2@@std@@EU?$less@V?$basic_string@DU?$char_traits@D@std@@V?$allocator@D@2@@std@@@2@V?$allocator@E@2@@2@U?$less@V?$basic_string@DU?$char_traits@D@std@@V?$allocator@D@2@@std@@@2@V?$allocator@E@2@@std@@IAEXABV12@@Z 00429170 f i UiChatCentre.obj
 0001:00028260       ?_Erase@?$_Tree@V?$basic_string@DU?$char_traits@D@std@@V?$allocator@D@2@@std@@U?$pair@$$CBV?$basic_string@DU?$char_traits@D@std@@V?$allocator@D@2@@std@@E@2@U_Kfn@?$map@V?$basic_string@DU?$char_traits@D@std@@V?$allocator@D@2@@std@@EU?$less@V?$basic_string@DU?$char_traits@D@std@@V?$allocator@D@2@@std@@@2@V?$allocator@E@2@@2@U?$less@V?$basic_string@DU?$char_traits@D@std@@V?$allocator@D@2@@std@@@2@V?$allocator@E@2@@std@@IAEXPAU_Node@12@@Z 00429260 f i UiChatCentre.obj
 0001:000282b0       ??Eiterator@?$_Tree@V?$basic_string@DU?$char_traits@D@std@@V?$allocator@D@2@@std@@U?$pair@$$CBV?$basic_string@DU?$char_traits@D@std@@V?$allocator@D@2@@std@@E@2@U_Kfn@?$map@V?$basic_string@DU?$char_traits@D@std@@V?$allocator@D@2@@std@@EU?$less@V?$basic_string@DU?$char_traits@D@std@@V?$allocator@D@2@@std@@@2@V?$allocator@E@2@@2@U?$less@V?$basic_string@DU?$char_traits@D@std@@V?$allocator@D@2@@std@@@2@V?$allocator@E@2@@std@@QAE?AV012@H@Z 004292b0 f i UiChatCentre.obj
 0001:00028310       ?erase@?$list@V?$basic_string@DU?$char_traits@D@std@@V?$allocator@D@2@@std@@V?$allocator@V?$basic_string@DU?$char_traits@D@std@@V?$allocator@D@2@@std@@@2@@std@@QAE?AViterator@12@V312@@Z 00429310 f i UiChatCentre.obj
 0001:00028380       ??Eiterator@?$list@V?$basic_string@DU?$char_traits@D@std@@V?$allocator@D@2@@std@@V?$allocator@V?$basic_string@DU?$char_traits@D@std@@V?$allocator@D@2@@std@@@2@@std@@QAE?AV012@H@Z 00429380 f i UiChatCentre.obj
 0001:00028390       ?_Copy@?$_Tree@V?$basic_string@DU?$char_traits@D@std@@V?$allocator@D@2@@std@@U?$pair@$$CBV?$basic_string@DU?$char_traits@D@std@@V?$allocator@D@2@@std@@V12@@2@U_Kfn@?$map@V?$basic_string@DU?$char_traits@D@std@@V?$allocator@D@2@@std@@V12@U?$less@V?$basic_string@DU?$char_traits@D@std@@V?$allocator@D@2@@std@@@2@V?$allocator@V?$basic_string@DU?$char_traits@D@std@@V?$allocator@D@2@@std@@@2@@2@U?$less@V?$basic_string@DU?$char_traits@D@std@@V?$allocator@D@2@@std@@@2@V?$allocator@V?$basic_string@DU?$char_traits@D@std@@V?$allocator@D@2@@std@@@2@@std@@IAEPAU_Node@12@PAU312@0@Z 00429390 f i UiChatCentre.obj
 0001:00028420       ?_Insert@?$_Tree@V?$basic_string@DU?$char_traits@D@std@@V?$allocator@D@2@@std@@U?$pair@$$CBV?$basic_string@DU?$char_traits@D@std@@V?$allocator@D@2@@std@@V12@@2@U_Kfn@?$map@V?$basic_string@DU?$char_traits@D@std@@V?$allocator@D@2@@std@@V12@U?$less@V?$basic_string@DU?$char_traits@D@std@@V?$allocator@D@2@@std@@@2@V?$allocator@V?$basic_string@DU?$char_traits@D@std@@V?$allocator@D@2@@std@@@2@@2@U?$less@V?$basic_string@DU?$char_traits@D@std@@V?$allocator@D@2@@std@@@2@V?$allocator@V?$basic_string@DU?$char_traits@D@std@@V?$allocator@D@2@@std@@@2@@std@@IAE?AViterator@12@PAU_Node@12@0ABU?$pair@$$CBV?$basic_string@DU?$char_traits@D@std@@V?$allocator@D@2@@std@@V12@@2@@Z 00429420 f i UiChatCentre.obj
 0001:00028690       ?_Lbound@?$_Tree@V?$basic_string@DU?$char_traits@D@std@@V?$allocator@D@2@@std@@U?$pair@$$CBV?$basic_string@DU?$char_traits@D@std@@V?$allocator@D@2@@std@@V12@@2@U_Kfn@?$map@V?$basic_string@DU?$char_traits@D@std@@V?$allocator@D@2@@std@@V12@U?$less@V?$basic_string@DU?$char_traits@D@std@@V?$allocator@D@2@@std@@@2@V?$allocator@V?$basic_string@DU?$char_traits@D@std@@V?$allocator@D@2@@std@@@2@@2@U?$less@V?$basic_string@DU?$char_traits@D@std@@V?$allocator@D@2@@std@@@2@V?$allocator@V?$basic_string@DU?$char_traits@D@std@@V?$allocator@D@2@@std@@@2@@std@@IBEPAU_Node@12@ABV?$basic_string@DU?$char_traits@D@std@@V?$allocator@D@2@@2@@Z 00429690 f i UiChatCentre.obj
 0001:000286e0       ?_Copy@?$_Tree@V?$basic_string@DU?$char_traits@D@std@@V?$allocator@D@2@@std@@U?$pair@$$CBV?$basic_string@DU?$char_traits@D@std@@V?$allocator@D@2@@std@@E@2@U_Kfn@?$map@V?$basic_string@DU?$char_traits@D@std@@V?$allocator@D@2@@std@@EU?$less@V?$basic_string@DU?$char_traits@D@std@@V?$allocator@D@2@@std@@@2@V?$allocator@E@2@@2@U?$less@V?$basic_string@DU?$char_traits@D@std@@V?$allocator@D@2@@std@@@2@V?$allocator@E@2@@std@@IAEPAU_Node@12@PAU312@0@Z 004296e0 f i UiChatCentre.obj
 0001:00028770       ?_Insert@?$_Tree@V?$basic_string@DU?$char_traits@D@std@@V?$allocator@D@2@@std@@U?$pair@$$CBV?$basic_string@DU?$char_traits@D@std@@V?$allocator@D@2@@std@@E@2@U_Kfn@?$map@V?$basic_string@DU?$char_traits@D@std@@V?$allocator@D@2@@std@@EU?$less@V?$basic_string@DU?$char_traits@D@std@@V?$allocator@D@2@@std@@@2@V?$allocator@E@2@@2@U?$less@V?$basic_string@DU?$char_traits@D@std@@V?$allocator@D@2@@std@@@2@V?$allocator@E@2@@std@@IAE?AViterator@12@PAU_Node@12@0ABU?$pair@$$CBV?$basic_string@DU?$char_traits@D@std@@V?$allocator@D@2@@std@@E@2@@Z 00429770 f i UiChatCentre.obj
 0001:000289e0       ?_Min@?$_Tree@V?$basic_string@DU?$char_traits@D@std@@V?$allocator@D@2@@std@@U?$pair@$$CBV?$basic_string@DU?$char_traits@D@std@@V?$allocator@D@2@@std@@E@2@U_Kfn@?$map@V?$basic_string@DU?$char_traits@D@std@@V?$allocator@D@2@@std@@EU?$less@V?$basic_string@DU?$char_traits@D@std@@V?$allocator@D@2@@std@@@2@V?$allocator@E@2@@2@U?$less@V?$basic_string@DU?$char_traits@D@std@@V?$allocator@D@2@@std@@@2@V?$allocator@E@2@@std@@KAPAU_Node@12@PAU312@@Z 004299e0 f i UiChatCentre.obj
 0001:00028a00       ?_Buynode@?$_Tree@V?$basic_string@DU?$char_traits@D@std@@V?$allocator@D@2@@std@@U?$pair@$$CBV?$basic_string@DU?$char_traits@D@std@@V?$allocator@D@2@@std@@E@2@U_Kfn@?$map@V?$basic_string@DU?$char_traits@D@std@@V?$allocator@D@2@@std@@EU?$less@V?$basic_string@DU?$char_traits@D@std@@V?$allocator@D@2@@std@@@2@V?$allocator@E@2@@2@U?$less@V?$basic_string@DU?$char_traits@D@std@@V?$allocator@D@2@@std@@@2@V?$allocator@E@2@@std@@IAEPAU_Node@12@PAU312@W4_Redbl@12@@Z 00429a00 f i UiChatCentre.obj
 0001:00028a20       ?_Dec@const_iterator@?$_Tree@V?$basic_string@DU?$char_traits@D@std@@V?$allocator@D@2@@std@@U?$pair@$$CBV?$basic_string@DU?$char_traits@D@std@@V?$allocator@D@2@@std@@V12@@2@U_Kfn@?$map@V?$basic_string@DU?$char_traits@D@std@@V?$allocator@D@2@@std@@V12@U?$less@V?$basic_string@DU?$char_traits@D@std@@V?$allocator@D@2@@std@@@2@V?$allocator@V?$basic_string@DU?$char_traits@D@std@@V?$allocator@D@2@@std@@@2@@2@U?$less@V?$basic_string@DU?$char_traits@D@std@@V?$allocator@D@2@@std@@@2@V?$allocator@V?$basic_string@DU?$char_traits@D@std@@V?$allocator@D@2@@std@@@2@@std@@QAEXXZ 00429a20 f i UiChatCentre.obj
 0001:00028a80       ?_Dec@const_iterator@?$_Tree@V?$basic_string@DU?$char_traits@D@std@@V?$allocator@D@2@@std@@U?$pair@$$CBV?$basic_string@DU?$char_traits@D@std@@V?$allocator@D@2@@std@@E@2@U_Kfn@?$map@V?$basic_string@DU?$char_traits@D@std@@V?$allocator@D@2@@std@@EU?$less@V?$basic_string@DU?$char_traits@D@std@@V?$allocator@D@2@@std@@@2@V?$allocator@E@2@@2@U?$less@V?$basic_string@DU?$char_traits@D@std@@V?$allocator@D@2@@std@@@2@V?$allocator@E@2@@std@@QAEXXZ 00429a80 f i UiChatCentre.obj
 0001:00028ae0       ?_Inc@const_iterator@?$_Tree@V?$basic_string@DU?$char_traits@D@std@@V?$allocator@D@2@@std@@U?$pair@$$CBV?$basic_string@DU?$char_traits@D@std@@V?$allocator@D@2@@std@@E@2@U_Kfn@?$map@V?$basic_string@DU?$char_traits@D@std@@V?$allocator@D@2@@std@@EU?$less@V?$basic_string@DU?$char_traits@D@std@@V?$allocator@D@2@@std@@@2@V?$allocator@E@2@@2@U?$less@V?$basic_string@DU?$char_traits@D@std@@V?$allocator@D@2@@std@@@2@V?$allocator@E@2@@std@@QAEXXZ 00429ae0 f i UiChatCentre.obj
 0001:00028b30       ?_Construct@std@@YAXPAV?$basic_string@DU?$char_traits@D@std@@V?$allocator@D@2@@1@ABV21@@Z 00429b30 f i UiChatCentre.obj
 0001:00028ca0       ??3@YAXPAX0@Z              00429ca0 f i UiChatCentre.obj
 0001:00028cb0       ?_Construct@std@@YAXPAU?$pair@$$CBV?$basic_string@DU?$char_traits@D@std@@V?$allocator@D@2@@std@@V12@@1@ABU21@@Z 00429cb0 f i UiChatCentre.obj
 0001:00028e10       ?_Construct@std@@YAXPAU?$pair@$$CBV?$basic_string@DU?$char_traits@D@std@@V?$allocator@D@2@@std@@E@1@ABU21@@Z 00429e10 f i UiChatCentre.obj
 0001:00028f70       ??_G?$pair@$$CBV?$basic_string@DU?$char_traits@D@std@@V?$allocator@D@2@@std@@V12@@std@@QAEPAXI@Z 00429f70 f i UiChatCentre.obj
 0001:00028f90       ??_G?$pair@$$CBV?$basic_string@DU?$char_traits@D@std@@V?$allocator@D@2@@std@@E@std@@QAEPAXI@Z 00429f90 f i UiChatCentre.obj
 0001:00028ff0       ??0KUiChatPhrase@@QAE@XZ   00429ff0 f   UiChatPhrase.obj
 0001:00029010       ??1KUiChatPhrase@@QAE@XZ   0042a010 f   UiChatPhrase.obj
 0001:00029050       ?ClearAllPhrase@KUiChatPhrase@@QAEXXZ 0042a050 f   UiChatPhrase.obj
 0001:00029070       ?GetPhrase@KUiChatPhrase@@QAEHHPAD@Z 0042a070 f   UiChatPhrase.obj
 0001:000290c0       ?SetPhrase@KUiChatPhrase@@QAEHHPADH@Z 0042a0c0 f   UiChatPhrase.obj
 0001:00029130       ?GetPhraseCount@KUiChatPhrase@@QAEHXZ 0042a130 f   UiChatPhrase.obj
 0001:00029140       ?SavePrivateSetting@KUiChatPhrase@@QAEHPAVKIniFile@@PBDH@Z 0042a140 f   UiChatPhrase.obj
 0001:000291e0       ?LoadEntireEmote@KUiChatPhrase@@QAEHXZ 0042a1e0 f   UiChatPhrase.obj
 0001:000292d0       ?SetEmote@KUiChatPhrase@@QAEHPAD000H@Z 0042a2d0 f   UiChatPhrase.obj
 0001:00029420       ?LoadEmotePhrase@KUiChatPhrase@@AAEHPAVKIniFile@@@Z 0042a420 f   UiChatPhrase.obj
 0001:000294a0       ?LoadMenuEmote@KUiChatPhrase@@AAEHPAVKIniFile@@@Z 0042a4a0 f   UiChatPhrase.obj
 0001:00029530       ?HandleLoad@KUiChatPhrase@@AAEHPAVKIniFile@@PAUEMOTE_PHRASE@1@HPBD@Z 0042a530 f   UiChatPhrase.obj
 0001:00029690       ?ConstructFunctionAlias@KUiChatPhrase@@QAEHXZ 0042a690 f   UiChatPhrase.obj
 0001:00029a60       ?GetEmoteCount@KUiChatPhrase@@QAEHW4EMOTE_TYPE@1@@Z 0042aa60 f   UiChatPhrase.obj
 0001:00029a80       ?GetEmote@KUiChatPhrase@@QAEHPBDPADHH@Z 0042aa80 f   UiChatPhrase.obj
 0001:00029ad0       ?GetEmote@KUiChatPhrase@@QAEHHPADHH@Z 0042aad0 f   UiChatPhrase.obj
 0001:00029be0       ?GetMenuEmote@KUiChatPhrase@@QAEHPBDPADHH@Z 0042abe0 f   UiChatPhrase.obj
 0001:00029c10       ?GetMenuEmote@KUiChatPhrase@@QAEHHPADHH@Z 0042ac10 f   UiChatPhrase.obj
 0001:00029cd0       ?GetMenuEmoteName@KUiChatPhrase@@QAEHHPADH@Z 0042acd0 f   UiChatPhrase.obj
 0001:00029d40       ?FindEmote@KUiChatPhrase@@AAEHW4EMOTE_TYPE@1@PBD@Z 0042ad40 f   UiChatPhrase.obj
 0001:00029e00       ?ConvertEmoteString@KUiChatPhrase@@QAEHPADHPBD1@Z 0042ae00 f   UiChatPhrase.obj
 0001:00029f90       ?begin@?$list@V?$basic_string@DU?$char_traits@D@std@@V?$allocator@D@2@@std@@V?$allocator@V?$basic_string@DU?$char_traits@D@std@@V?$allocator@D@2@@std@@@2@@std@@QAE?AViterator@12@XZ 0042af90 f i UiChatPhrase.obj
 0001:00029fa0       ?OpenWindow@KUiChatStatus@@SAPAV1@XZ 0042afa0 f   UiChatStatus.obj
 0001:0002a100       ??_EKUiChatStatus@@EAEPAXI@Z 0042b100 f i UiChatStatus.obj
 0001:0002a100       ??_GKUiChatStatus@@EAEPAXI@Z 0042b100 f i UiChatStatus.obj
 0001:0002a120       ??1KUiChatStatus@@EAE@XZ   0042b120 f i UiChatStatus.obj
 0001:0002a240       ?GetIfVisible@KUiChatStatus@@SAPAV1@XZ 0042b240 f   UiChatStatus.obj
 0001:0002a260       ?CloseWindow@KUiChatStatus@@SAXXZ 0042b260 f   UiChatStatus.obj
 0001:0002a280       ?Initialize@KUiChatStatus@@AAEXXZ 0042b280 f   UiChatStatus.obj
 0001:0002a380       ?LoadScheme@KUiChatStatus@@SAXPBD@Z 0042b380 f   UiChatStatus.obj
 0001:0002a580       ?WndProc@KUiChatStatus@@EAEHIIH@Z 0042b580 f   UiChatStatus.obj
 0001:0002a7c0       ?OnAddMsg@KUiChatStatus@@AAEXXZ 0042b7c0 f   UiChatStatus.obj
 0001:0002a830       ?OnSelMsg@KUiChatStatus@@AAEXH@Z 0042b830 f   UiChatStatus.obj
 0001:0002a880       ?OnSetDefMsg@KUiChatStatus@@AAEXXZ 0042b880 f   UiChatStatus.obj
 0001:0002a8d0       ??1KUiInformation@@UAE@XZ  0042b8d0 f i UiInformation.obj
 0001:0002a940       ?UIMessageBox@@YAXPBDPAVKWndWindow@@00I@Z 0042b940 f   UiInformation.obj
 0001:0002a970       ?UiCloseMessageBox@@YAXXZ  0042b970 f   UiInformation.obj
 0001:0002a980       ??0KUiInformation@@QAE@XZ  0042b980 f   UiInformation.obj
 0001:0002aa00       ??_GKUiInformation@@UAEPAXI@Z 0042ba00 f i UiInformation.obj
 0001:0002aa00       ??_EKUiInformation@@UAEPAXI@Z 0042ba00 f i UiInformation.obj
 0001:0002aa20       ?Initialize@KUiInformation@@QAEXXZ 0042ba20 f   UiInformation.obj
 0001:0002aa70       ?LoadScheme@KUiInformation@@QAEXPBD@Z 0042ba70 f   UiInformation.obj
 0001:0002aba0       ?Show@KUiInformation@@QAEXPBD00PAVKWndWindow@@IH@Z 0042bba0 f   UiInformation.obj
 0001:0002acb0       ?Hide@KUiInformation@@AAEXH@Z 0042bcb0 f   UiInformation.obj
 0001:0002ad00       ?Close@KUiInformation@@QAEXXZ 0042bd00 f   UiInformation.obj
 0001:0002ad20       ?WndProc@KUiInformation@@EAEHIIH@Z 0042bd20 f   UiInformation.obj
 0001:0002ae10       ?UIMessageBox2@@YAXPBDH0PAVKWndWindow@@I@Z 0042be10 f   UiInformation2.obj
 0001:0002ae50       ??0KUiInformation2@@QAE@XZ 0042be50 f   UiInformation2.obj
 0001:0002aed0       ?TopChildFromPoint@KUiInformation2@@UAEPAVKWndWindow@@HH@Z 0042bed0 f i UiInformation2.obj
 0001:0002aee0       ??_GKUiInformation2@@UAEPAXI@Z 0042bee0 f i UiInformation2.obj
 0001:0002aee0       ??_EKUiInformation2@@UAEPAXI@Z 0042bee0 f i UiInformation2.obj
 0001:0002af00       ?SpeakWords@KUiInformation2@@QAEXPAUKUiInformationParam@@H@Z 0042bf00 f   UiInformation2.obj
 0001:0002b050       ?Initialize@KUiInformation2@@QAEXXZ 0042c050 f   UiInformation2.obj
 0001:0002b090       ?LoadScheme@KUiInformation2@@QAEXPBD@Z 0042c090 f   UiInformation2.obj
 0001:0002b170       ?Show@KUiInformation2@@QAEXPBDH0PAVKWndWindow@@I@Z 0042c170 f   UiInformation2.obj
 0001:0002b1d0       ?Hide@KUiInformation2@@UAEXXZ 0042c1d0 f   UiInformation2.obj
 0001:0002b2b0       ?WndProc@KUiInformation2@@EAEHIIH@Z 0042c2b0 f   UiInformation2.obj
 0001:0002b350       ?Close@KUiInformation2@@QAEXXZ 0042c350 f   UiInformation2.obj
 0001:0002b390       ??1KUiInformation2@@UAE@XZ 0042c390 f   UiInformation2.obj
 0001:0002b400       ??0KUiTeamManage@@AAE@XZ   0042c400 f   UiTeamManage.obj
 0001:0002b530       ??_EKUiTeamManage@@EAEPAXI@Z 0042c530 f i UiTeamManage.obj
 0001:0002b530       ??_GKUiTeamManage@@EAEPAXI@Z 0042c530 f i UiTeamManage.obj
 0001:0002b550       ??1KUiTeamManage@@EAE@XZ   0042c550 f i UiTeamManage.obj
 0001:0002b6a0       ?GetIfVisible@KUiTeamManage@@SAPAV1@XZ 0042c6a0 f   UiTeamManage.obj
 0001:0002b6c0       ?OpenWindow@KUiTeamManage@@SAPAV1@XZ 0042c6c0 f   UiTeamManage.obj
 0001:0002b770       ?CloseWindow@KUiTeamManage@@SAXXZ 0042c770 f   UiTeamManage.obj
 0001:0002b7a0       ?Initialize@KUiTeamManage@@AAEXXZ 0042c7a0 f   UiTeamManage.obj
 0001:0002b8c0       ?LoadScheme@KUiTeamManage@@AAEXPAVKIniFile@@@Z 0042c8c0 f   UiTeamManage.obj
 0001:0002b9f0       ?LoadScheme@KUiTeamManage@@SAXPBD@Z 0042c9f0 f   UiTeamManage.obj
 0001:0002baa0       ?WndProc@KUiTeamManage@@MAEHIIH@Z 0042caa0 f   UiTeamManage.obj
 0001:0002bc20       ?OnSelTeamMember@KUiTeamManage@@IAEXH@Z 0042cc20 f   UiTeamManage.obj
 0001:0002bcd0       ?OnSelNearby@KUiTeamManage@@IAEXH@Z 0042ccd0 f   UiTeamManage.obj
 0001:0002bd20       ?Clear@KUiTeamManage@@IAEXXZ 0042cd20 f   UiTeamManage.obj
 0001:0002be00       ?UpdateData@KUiTeamManage@@QAEXPAUKUiPlayerTeam@@@Z 0042ce00 f   UiTeamManage.obj
 0001:0002bf80       ?OnAppoint@KUiTeamManage@@IAEXXZ 0042cf80 f   UiTeamManage.obj
 0001:0002bfb0       ?OnKick@KUiTeamManage@@IAEXXZ 0042cfb0 f   UiTeamManage.obj
 0001:0002bfe0       ?OnInvite@KUiTeamManage@@IAEXXZ 0042cfe0 f   UiTeamManage.obj
 0001:0002c030       ?OnRefresh@KUiTeamManage@@IAEXXZ 0042d030 f   UiTeamManage.obj
 0001:0002c0d0       ?OnLeave@KUiTeamManage@@IAEXXZ 0042d0d0 f   UiTeamManage.obj
 0001:0002c0f0       ?OpenWindow@KUiHeaderControlBar@@SAPAV1@XZ 0042d0f0 f   UiHeaderControlBar.obj
 0001:0002c180       ??_EKUiHeaderControlBar@@EAEPAXI@Z 0042d180 f i UiHeaderControlBar.obj
 0001:0002c180       ??_GKUiHeaderControlBar@@EAEPAXI@Z 0042d180 f i UiHeaderControlBar.obj
 0001:0002c1a0       ??1KUiHeaderControlBar@@EAE@XZ 0042d1a0 f i UiHeaderControlBar.obj
 0001:0002c1b0       ?CloseWindow@KUiHeaderControlBar@@SAXXZ 0042d1b0 f   UiHeaderControlBar.obj
 0001:0002c1d0       ?Initialize@KUiHeaderControlBar@@AAEXXZ 0042d1d0 f   UiHeaderControlBar.obj
 0001:0002c220       ?LoadScheme@KUiHeaderControlBar@@SAXPBD@Z 0042d220 f   UiHeaderControlBar.obj
 0001:0002c2d0       ?DefaultScheme@KUiHeaderControlBar@@SAXPBD@Z 0042d2d0 f   UiHeaderControlBar.obj
 0001:0002c3b0       ?Breathe@KUiHeaderControlBar@@EAEXXZ 0042d3b0 f   UiHeaderControlBar.obj
 0001:0002c3c0       ?VerticalSplitTwoWindow@@YAHPAVKWndWindow@@0H@Z 0042d3c0 f   UiMsgCentrePad.obj
 0001:0002c4c0       ?WndProc@KSysMsgCentrePad@@UAEHIIH@Z 0042d4c0 f   UiMsgCentrePad.obj
 0001:0002c630       ?ScrollBottom@KSysMsgCentrePad@@QAEXXZ 0042d630 f   UiMsgCentrePad.obj
 0001:0002c670       ?OpenWindow@KUiMsgCentrePad@@SAPAV1@XZ 0042d670 f   UiMsgCentrePad.obj
 0001:0002c710       ?CloseWindow@KUiMsgCentrePad@@SAX_N@Z 0042d710 f   UiMsgCentrePad.obj
 0001:0002c770       ??0KUiMsgCentrePad@@AAE@XZ 0042d770 f   UiMsgCentrePad.obj
 0001:0002c8c0       ??_EKUiMsgCentrePad@@EAEPAXI@Z 0042d8c0 f i UiMsgCentrePad.obj
 0001:0002c8c0       ??_GKUiMsgCentrePad@@EAEPAXI@Z 0042d8c0 f i UiMsgCentrePad.obj
 0001:0002c8e0       ??1KUiMsgCentrePad@@EAE@XZ 0042d8e0 f i UiMsgCentrePad.obj
 0001:0002ca10       ??1KSysMsgCentrePad@@UAE@XZ 0042da10 f i UiMsgCentrePad.obj
 0001:0002ca90       ??_EKSysMsgCentrePad@@UAEPAXI@Z 0042da90 f i UiMsgCentrePad.obj
 0001:0002ca90       ??_GKSysMsgCentrePad@@UAEPAXI@Z 0042da90 f i UiMsgCentrePad.obj
 0001:0002cab0       ?SetAutoDelMsgInterval@KUiMsgCentrePad@@AAEXI@Z 0042dab0 f   UiMsgCentrePad.obj
 0001:0002cad0       ?SystemMessageArrival@KUiMsgCentrePad@@SAXPBDG@Z 0042dad0 f   UiMsgCentrePad.obj
 0001:0002cb50       ?ChannelMessageArrival@KUiMsgCentrePad@@AAEXHPADPBDGPAVKWndMessageListBox@@_N@Z 0042db50 f   UiMsgCentrePad.obj
 0001:0002cd90       ?MSNMessageArrival@KUiMsgCentrePad@@AAEXPAD0PBDG@Z 0042dd90 f   UiMsgCentrePad.obj
 0001:0002ce60       ?ShowMSNMessage@KUiMsgCentrePad@@AAEXPADPBDGTKRColor@@22G@Z 0042de60 f   UiMsgCentrePad.obj
 0001:0002cfe0       ?NewChannelMessageArrival@KUiMsgCentrePad@@SAHKPADPBDG@Z 0042dfe0 f   UiMsgCentrePad.obj
 0001:0002d050       ?NewMSNMessageArrival@KUiMsgCentrePad@@SAXPAD0PBDG@Z 0042e050 f   UiMsgCentrePad.obj
 0001:0002d080       ?ShowSomeoneMessage@KUiMsgCentrePad@@SAXPADPBDG@Z 0042e080 f   UiMsgCentrePad.obj
 0001:0002d120       ?OpenChannel@KUiMsgCentrePad@@SAXPADKE@Z 0042e120 f   UiMsgCentrePad.obj
 0001:0002d240       ?CloseActivateChannel@KUiMsgCentrePad@@AAEXH@Z 0042e240 f   UiMsgCentrePad.obj
 0001:0002d290       ?QueryAllChannel@KUiMsgCentrePad@@SAXXZ 0042e290 f   UiMsgCentrePad.obj
 0001:0002d2c0       ?ReplaceChannelName@KUiMsgCentrePad@@SAXPADI0@Z 0042e2c0 f   UiMsgCentrePad.obj
 0001:0002d380       ?ReplaceSpecialField@KUiMsgCentrePad@@SA_NPAD0@Z 0042e380 f   UiMsgCentrePad.obj
 0001:0002d5c0       ?CloseSelfChannel@KUiMsgCentrePad@@SAXW4SelfChannel@1@@Z 0042e5c0 f   UiMsgCentrePad.obj
 0001:0002d600       ?GetChannelSubscribe@KUiMsgCentrePad@@SA_NH@Z 0042e600 f   UiMsgCentrePad.obj
 0001:0002d640       ?IsChannelType@KUiMsgCentrePad@@SA_NHW4SelfChannel@1@@Z 0042e640 f   UiMsgCentrePad.obj
 0001:0002d690       ?FindActivateChannelResourceIndex@KUiMsgCentrePad@@AAEHPAD@Z 0042e690 f   UiMsgCentrePad.obj
 0001:0002d740       ?FindActivateChannelIndex@KUiMsgCentrePad@@AAEHPAD@Z 0042e740 f   UiMsgCentrePad.obj
 0001:0002d7d0       ?FindActivateChannelIndex@KUiMsgCentrePad@@AAEHK@Z 0042e7d0 f   UiMsgCentrePad.obj
 0001:0002d800       ?FindActivateChannelCost@KUiMsgCentrePad@@AAEEK@Z 0042e800 f   UiMsgCentrePad.obj
 0001:0002d850       ?FindChannelResourceIndex@KUiMsgCentrePad@@AAEHPAD@Z 0042e850 f   UiMsgCentrePad.obj
 0001:0002d8d0       ?FindActivateChannelIndexByKey@KUiMsgCentrePad@@AAEHPAD@Z 0042e8d0 f   UiMsgCentrePad.obj
 0001:0002d950       ?IsNeverCloseActivateChannel@KUiMsgCentrePad@@AAEHH@Z 0042e950 f   UiMsgCentrePad.obj
 0001:0002d9a0       ?GetChannelMenuinfo@KUiMsgCentrePad@@SA_NHPAG0PATKRColor@@1PADPAF@Z 0042e9a0 f   UiMsgCentrePad.obj
 0001:0002db10       ?GetChannelID@KUiMsgCentrePad@@SAKH@Z 0042eb10 f   UiMsgCentrePad.obj
 0001:0002db50       ?GetChannelTitle@KUiMsgCentrePad@@SAPADH@Z 0042eb50 f   UiMsgCentrePad.obj
 0001:0002dba0       ?GetChannelCount@KUiMsgCentrePad@@SAKXZ 0042eba0 f   UiMsgCentrePad.obj
 0001:0002dbc0       ?GetChannelIndex@KUiMsgCentrePad@@SAHPAD@Z 0042ebc0 f   UiMsgCentrePad.obj
 0001:0002dbe0       ?GetChannelIndex@KUiMsgCentrePad@@SAHK@Z 0042ebe0 f   UiMsgCentrePad.obj
 0001:0002dc00       ?GetChannelCost@KUiMsgCentrePad@@SAEK@Z 0042ec00 f   UiMsgCentrePad.obj
 0001:0002dc20       ?PushChannelData@KUiMsgCentrePad@@SAHKPBDH@Z 0042ec20 f   UiMsgCentrePad.obj
 0001:0002dd50       ?GetChannelData@KUiMsgCentrePad@@SAHAAKAAEAAPADAAH@Z 0042ed50 f   UiMsgCentrePad.obj
 0001:0002de00       ?PopChannelData@KUiMsgCentrePad@@SAHK@Z 0042ee00 f   UiMsgCentrePad.obj
 0001:0002ded0       ?GetPeopleMenuinfo@KUiMsgCentrePad@@SA_NPADPAG1PATKRColor@@2@Z 0042eed0 f   UiMsgCentrePad.obj
 0001:0002dfb0       ?SendQueryChannelID@KUiMsgCentrePad@@AAEXH@Z 0042efb0 f   UiMsgCentrePad.obj
 0001:0002e060       ?SendChannelSubscribe@KUiMsgCentrePad@@AAEXH_N@Z 0042f060 f   UiMsgCentrePad.obj
 0001:0002e0d0       ?AddActivateChannel@KUiMsgCentrePad@@AAEHABUKChannelActivateInfo@@@Z 0042f0d0 f   UiMsgCentrePad.obj
 0001:0002e1d0       ?ReleaseActivateChannel@KUiMsgCentrePad@@AAEHH@Z 0042f1d0 f   UiMsgCentrePad.obj
 0001:0002e250       ?ReleaseActivateChannelAll@KUiMsgCentrePad@@SAHXZ 0042f250 f   UiMsgCentrePad.obj
 0001:0002e2a0       ?Initialize@KUiMsgCentrePad@@AAEXXZ 0042f2a0 f   UiMsgCentrePad.obj
 0001:0002e370       ?Breathe@KUiMsgCentrePad@@UAEXXZ 0042f370 f   UiMsgCentrePad.obj
 0001:0002e3c0       ?LoadScheme@KUiMsgCentrePad@@SAXPBD@Z 0042f3c0 f   UiMsgCentrePad.obj
 0001:0002e480       ?DefaultScheme@KUiMsgCentrePad@@SAXPBD@Z 0042f480 f   UiMsgCentrePad.obj
 0001:0002e590       ?HideAllMessage@KUiMsgCentrePad@@SAXXZ 0042f590 f   UiMsgCentrePad.obj
 0001:0002e5c0       ?ShowAllMessage@KUiMsgCentrePad@@SAXXZ 0042f5c0 f   UiMsgCentrePad.obj
 0001:0002e5f0       ?LoadScheme@KUiMsgCentrePad@@AAEXPAVKIniFile@@@Z 0042f5f0 f   UiMsgCentrePad.obj
 0001:0002f120       ?PtInWindow@KUiMsgCentrePad@@EAEHHH@Z 00430120 f   UiMsgCentrePad.obj
 0001:0002f1b0       ?WndProc@KUiMsgCentrePad@@EAEHIIH@Z 004301b0 f   UiMsgCentrePad.obj
 0001:0002f4c0       ?GetMessageSendName@KUiMsgCentrePad@@AAEHPAVKWndWindow@@HPAD@Z 004304c0 f   UiMsgCentrePad.obj
 0001:0002f520       ?GetMessageSendName@KUiMsgCentrePad@@AAEHPAVKWndWindow@@HHPAD@Z 00430520 f   UiMsgCentrePad.obj
 0001:0002f560       ?PaintWindow@KUiMsgCentrePad@@EAEXXZ 00430560 f   UiMsgCentrePad.obj
 0001:0002f6c0       ?DragWndPos@KUiMsgCentrePad@@AAEXH@Z 004306c0 f   UiMsgCentrePad.obj
 0001:0002f750       ?DragWndSize@KUiMsgCentrePad@@AAEXH@Z 00430750 f   UiMsgCentrePad.obj
 0001:0002f800       ?ChanageHeight@KUiMsgCentrePad@@AAEHH_N@Z 00430800 f   UiMsgCentrePad.obj
 0001:0002f8b0       ?Clear@KUiMsgCentrePad@@SAXXZ 004308b0 f   UiMsgCentrePad.obj
 0001:0002f8e0       ?PopupChannelMenu@KUiMsgCentrePad@@AAEXHH@Z 004308e0 f   UiMsgCentrePad.obj
 0001:0002fa80       ?CheckChannel@KUiMsgCentrePad@@SAHH_N@Z 00430a80 f   UiMsgCentrePad.obj
 0001:0002fbc0       ?FilterTextColor@KUiMsgCentrePad@@AAEHPADGABTKRColor@@@Z 00430bc0 f   UiMsgCentrePad.obj
 0001:0002fc00       ?SetFontSize@KUiMsgCentrePad@@SAXH@Z 00430c00 f   UiMsgCentrePad.obj
 0001:0002fc20       ?GetFontSize@KUiMsgCentrePad@@SAHXZ 00430c20 f   UiMsgCentrePad.obj
 0001:0002fc30       ?SetChannelTextColor@KUiMsgCentrePad@@SAHPADKK@Z 00430c30 f   UiMsgCentrePad.obj
 0001:0002fca0       ?GetChannelTextColor@KUiMsgCentrePad@@SAPADHAAK0@Z 00430ca0 f   UiMsgCentrePad.obj
 0001:0002fd00       ?SetMSNTextColor@KUiMsgCentrePad@@SAXHKK@Z 00430d00 f   UiMsgCentrePad.obj
 0001:0002fdc0       ?GetMSNTextColor@KUiMsgCentrePad@@SAXHAAK0@Z 00430dc0 f   UiMsgCentrePad.obj
 0001:0002fe40       ?OpenWindow@KUiToolsControlBar@@SAPAV1@XZ 00430e40 f   UiToolsControlBar.obj
 0001:0002fed0       ??_GKUiToolsControlBar@@EAEPAXI@Z 00430ed0 f i UiToolsControlBar.obj
 0001:0002fed0       ??_EKUiToolsControlBar@@EAEPAXI@Z 00430ed0 f i UiToolsControlBar.obj
 0001:0002fef0       ??1KUiToolsControlBar@@EAE@XZ 00430ef0 f i UiToolsControlBar.obj
 0001:0002ff00       ?CloseWindow@KUiToolsControlBar@@SAXXZ 00430f00 f   UiToolsControlBar.obj
 0001:0002ff20       ?Initialize@KUiToolsControlBar@@AAEXXZ 00430f20 f   UiToolsControlBar.obj
 0001:0002ff70       ?LoadScheme@KUiToolsControlBar@@SAXPBD@Z 00430f70 f   UiToolsControlBar.obj
 0001:00030020       ?DefaultScheme@KUiToolsControlBar@@SAXPBD@Z 00431020 f   UiToolsControlBar.obj
 0001:00030100       ?Breathe@KUiToolsControlBar@@EAEXXZ 00431100 f   UiToolsControlBar.obj
 0001:00030110       ??0KUiShop@@AAE@XZ         00431110 f   UiShop.obj
 0001:000301d0       ??_EKUiShop@@EAEPAXI@Z     004311d0 f i UiShop.obj
 0001:000301d0       ??_GKUiShop@@EAEPAXI@Z     004311d0 f i UiShop.obj
 0001:000301f0       ??1KUiShop@@EAE@XZ         004311f0 f i UiShop.obj
 0001:000302b0       ?GetIfVisible@KUiShop@@SAPAV1@XZ 004312b0 f   UiShop.obj
 0001:000302c0       ?OpenWindow@KUiShop@@SAPAV1@XZ 004312c0 f   UiShop.obj
 0001:00030390       ?CloseWindow@KUiShop@@SAXXZ 00431390 f   UiShop.obj
 0001:000303d0       ?Initialize@KUiShop@@AAEXXZ 004313d0 f   UiShop.obj
 0001:00030480       ?LoadScheme@KUiShop@@SAXPBD@Z 00431480 f   UiShop.obj
 0001:00030600       ?CancelTrade@KUiShop@@SAXXZ 00431600 f   UiShop.obj
 0001:00030610       ?WndProc@KUiShop@@UAEHIIH@Z 00431610 f   UiShop.obj
 0001:00030710       ?OnBuyItem@KUiShop@@AAEXPAUKUiDraggedObject@@_N@Z 00431710 f   UiShop.obj
 0001:000307d0       ?OnClickButton@KUiShop@@AAEXPAVKWndButton@@H@Z 004317d0 f   UiShop.obj
 0001:00030900       ?SetPage@KUiShop@@AAEXH@Z  00431900 f   UiShop.obj
 0001:00030980       ?UpdateData@KUiShop@@UAEXXZ 00431980 f   UiShop.obj
 0001:00030a60       ?Clear@KUiShop@@AAEXXZ     00431a60 f   UiShop.obj
 0001:00030aa0       ?OpenWindow@KUiTrade@@SAPAV1@PAUKUiPlayerItem@@@Z 00431aa0 f   UiTrade.obj
 0001:00030bc0       ?GetIfVisible@KUiTrade@@SAPAV1@XZ 00431bc0 f   UiTrade.obj
 0001:00030bd0       ?CloseWindow@KUiTrade@@SAXXZ 00431bd0 f   UiTrade.obj
 0001:00030c00       ??0KUiTrade@@AAE@XZ        00431c00 f   UiTrade.obj
 0001:00030d50       ??_GKUiTrade@@EAEPAXI@Z    00431d50 f i UiTrade.obj
 0001:00030d50       ??_EKUiTrade@@EAEPAXI@Z    00431d50 f i UiTrade.obj
 0001:00030d70       ??1KUiTrade@@EAE@XZ        00431d70 f   UiTrade.obj
 0001:00030e90       ?Initialize@KUiTrade@@AAEXXZ 00431e90 f   UiTrade.obj
 0001:00031010       ?LoadScheme@KUiTrade@@SAXPBD@Z 00432010 f   UiTrade.obj
 0001:000310c0       ?LoadScheme@KUiTrade@@AAEXPAVKIniFile@@@Z 004320c0 f   UiTrade.obj
 0001:000312c0       ?UpdateTakewithItems@KUiTrade@@AAEXXZ 004322c0 f   UiTrade.obj
 0001:00031390       ?OnChangedTakewithItem@KUiTrade@@QAEXPAUKUiObjAtRegion@@H@Z 00432390 f   UiTrade.obj
 0001:00031420       ?OnSelfChangedItem@KUiTrade@@QAEXPAUKUiObjAtRegion@@H@Z 00432420 f   UiTrade.obj
 0001:000314c0       ?OnOppositeChangedItem@KUiTrade@@QAEXPAUKUiObjAtRegion@@H@Z 004324c0 f   UiTrade.obj
 0001:00031550       ?UpdateOperData@KUiTrade@@QAEXXZ 00432550 f   UiTrade.obj
 0001:000316b0       ?WndProc@KUiTrade@@EAEHIIH@Z 004326b0 f   UiTrade.obj
 0001:000317d0       ?Breathe@KUiTrade@@EAEXXZ  004327d0 f   UiTrade.obj
 0001:000317f0       ?OnItemPickDrop@KUiTrade@@AAEXPAUITEM_PICKDROP_PLACE@@0@Z 004327f0 f   UiTrade.obj
 0001:00031920       ?OnAdjustMoney@KUiTrade@@AAEX_N@Z 00432920 f   UiTrade.obj
 0001:000319a0       ?OnAdjustedMoney@KUiTrade@@AAEXXZ 004329a0 f   UiTrade.obj
 0001:00031a00       ?OnModififyMoney@KUiTrade@@AAEXXZ 00432a00 f   UiTrade.obj
 0001:00031a70       ?OnTrade@KUiTrade@@AAEXXZ  00432a70 f   UiTrade.obj
 0001:00031a90       ?OnOk@KUiTrade@@AAEXH@Z    00432a90 f   UiTrade.obj
 0001:00031ac0       ?OnCancelTrade@KUiTrade@@AAEXXZ 00432ac0 f   UiTrade.obj
 0001:00031ae0       ?UpdateTradeEnd@KUiTrade@@QAEXH@Z 00432ae0 f   UiTrade.obj
 0001:00031af0       ?OpenWindow@KUiTradeConfirm@@SAPAV1@PAUKUiObjAtContRegion@@PAUKUiItemBuySelInfo@@W4TRADE_CONFIRM_ACTION@@@Z 00432af0 f   UiTradeConfirmWnd.obj
 0001:00031cf0       ??0KUiTradeConfirm@@AAE@XZ 00432cf0 f   UiTradeConfirmWnd.obj
 0001:00031db0       ??_GKUiTradeConfirm@@EAEPAXI@Z 00432db0 f i UiTradeConfirmWnd.obj
 0001:00031db0       ??_EKUiTradeConfirm@@EAEPAXI@Z 00432db0 f i UiTradeConfirmWnd.obj
 0001:00031dd0       ??1KUiTradeConfirm@@EAE@XZ 00432dd0 f i UiTradeConfirmWnd.obj
 0001:00031e90       ?GetIfVisible@KUiTradeConfirm@@SAPAV1@XZ 00432e90 f   UiTradeConfirmWnd.obj
 0001:00031eb0       ?CloseWindow@KUiTradeConfirm@@SAX_N@Z 00432eb0 f   UiTradeConfirmWnd.obj
 0001:00031ee0       ?Show@KUiTradeConfirm@@EAEXXZ 00432ee0 f   UiTradeConfirmWnd.obj
 0001:00031f60       ?Hide@KUiTradeConfirm@@EAEXXZ 00432f60 f   UiTradeConfirmWnd.obj
 0001:00031f80       ?Initialize@KUiTradeConfirm@@AAEHXZ 00432f80 f   UiTradeConfirmWnd.obj
 0001:00032030       ?LoadScheme@KUiTradeConfirm@@AAEXPBD@Z 00433030 f   UiTradeConfirmWnd.obj
 0001:00032210       ?WndProc@KUiTradeConfirm@@EAEHIIH@Z 00433210 f   UiTradeConfirmWnd.obj
 0001:00032350       ?OnBuy@KUiTradeConfirm@@AAEXXZ 00433350 f   UiTradeConfirmWnd.obj
 0001:00032380       ?OnSale@KUiTradeConfirm@@AAEXXZ 00433380 f   UiTradeConfirmWnd.obj
 0001:000323b0       ?OnRepair@KUiTradeConfirm@@AAEXXZ 004333b0 f   UiTradeConfirmWnd.obj
 0001:000323e0       ?OnCancel@KUiTradeConfirm@@AAEXXZ 004333e0 f   UiTradeConfirmWnd.obj
 0001:00032430       ??1KUiGameSpace@@UAE@XZ    00433430 f i UiGame.obj
 0001:00032440       ??0KUiGameSpace@@QAE@XZ    00433440 f i UiGame.obj
 0001:00032460       ??_GKUiGameSpace@@UAEPAXI@Z 00433460 f i UiGame.obj
 0001:00032460       ??_EKUiGameSpace@@UAEPAXI@Z 00433460 f i UiGame.obj
 0001:00032480       ?WndProc@KUiGameSpace@@UAEHIIH@Z 00433480 f   UiGame.obj
 0001:000326e0       ?PaintWindow@KUiGameSpace@@UAEXXZ 004336e0 f   UiGame.obj
 0001:000326f0       ?OnMouseMoveCursor@KUiGameSpace@@QAEXHH@Z 004336f0 f   UiGame.obj
 0001:00032810       ?ProcessPeople@@YAXPAUKUiPlayerItem@@H@Z 00433810 f   UiGame.obj
 0001:000329f0       ?ProcessEmote@@YAXPAD0H@Z  004339f0 f   UiGame.obj
 0001:00032b50       ?PopUpContextPeopleMenu@@YAXABUKUiPlayerItem@@HH@Z 00433b50 f   UiGame.obj
 0001:00032d80       ?PopUpContextEmoteMenu@@YAXPADHH@Z 00433d80 f   UiGame.obj
 0001:00032ed0       ??0KUiSysMsgCentre@@AAE@XZ 00433ed0 f   UiSysMsgCentre.obj
 0001:00032fe0       ??_EKUiSysMsgCentre@@EAEPAXI@Z 00433fe0 f i UiSysMsgCentre.obj
 0001:00032fe0       ??_GKUiSysMsgCentre@@EAEPAXI@Z 00433fe0 f i UiSysMsgCentre.obj
 0001:00033000       ??1KUiSysMsgCentre@@EAE@XZ 00434000 f   UiSysMsgCentre.obj
 0001:00033080       ?OpenWindow@KUiSysMsgCentre@@SAPAV1@XZ 00434080 f   UiSysMsgCentre.obj
 0001:00033110       ?Initialize@KUiSysMsgCentre@@AAEXXZ 00434110 f   UiSysMsgCentre.obj
 0001:000331f0       ?CloseWindow@KUiSysMsgCentre@@SAXXZ 004341f0 f   UiSysMsgCentre.obj
 0001:00033220       ?LoadScheme@KUiSysMsgCentre@@SAXPBD@Z 00434220 f   UiSysMsgCentre.obj
 0001:000332d0       ?LoadScheme@KUiSysMsgCentre@@AAEXPAVKIniFile@@@Z 004342d0 f   UiSysMsgCentre.obj
 0001:00033450       ?WndProc@KUiSysMsgCentre@@EAEHIIH@Z 00434450 f   UiSysMsgCentre.obj
 0001:00033600       ?OnConfirmOperFinished@KUiSysMsgCentre@@AAEXIH@Z 00434600 f   UiSysMsgCentre.obj
 0001:000337c0       ?PtInWindow@KUiSysMsgCentre@@EAEHHH@Z 004347c0 f   UiSysMsgCentre.obj
 0001:00033820       ?Breathe@KUiSysMsgCentre@@EAEXXZ 00434820 f   UiSysMsgCentre.obj
 0001:000338d0       ?AMessageArrival@KUiSysMsgCentre@@SA_NPAUKSystemMessage@@PAX@Z 004348d0 f   UiSysMsgCentre.obj
 0001:00033a00       ?FilterSameMsg@KUiSysMsgCentre@@AAE_NPAUKSystemMessage@@PAX@Z 00434a00 f   UiSysMsgCentre.obj
 0001:00033bd0       ?Clear@KUiSysMsgCentre@@AAEXXZ 00434bd0 f   UiSysMsgCentre.obj
 0001:00033c60       ?GetAMsgSpace@KUiSysMsgCentre@@AAEPAUKSystemMessage@@H@Z 00434c60 f   UiSysMsgCentre.obj
 0001:00033d10       ?SetPopupMsgDest@KUiSysMsgCentre@@AAEXXZ 00434d10 f   UiSysMsgCentre.obj
 0001:00033dd0       ?ConfirmMsg@KUiSysMsgCentre@@AAEXPAUKSystemMessage@@_N@Z 00434dd0 f   UiSysMsgCentre.obj
 0001:00033fc0       ?DeleteMsgInHeap@KUiSysMsgCentre@@AAEXHH_N0@Z 00434fc0 f   UiSysMsgCentre.obj
 0001:00034110       ?MovePopupedMsgToHeap@KUiSysMsgCentre@@AAEXXZ 00435110 f   UiSysMsgCentre.obj
 0001:000341b0       ?AddAMsgToHeap@KUiSysMsgCentre@@AAE_NPAUKSystemMessage@@H_N@Z 004351b0 f   UiSysMsgCentre.obj
 0001:00034240       ?PaintWindow@KUiSysMsgCentre@@EAEXXZ 00435240 f   UiSysMsgCentre.obj
 0001:000344e0       ??0KUiMiniMap@@AAE@XZ      004354e0 f   UiMiniMap.obj
 0001:00034590       ??_GKWndShadow@@UAEPAXI@Z  00435590 f i UiMiniMap.obj
 0001:00034590       ??_EKWndShadow@@UAEPAXI@Z  00435590 f i UiMiniMap.obj
 0001:000345b0       ??1KWndShadow@@UAE@XZ      004355b0 f i UiMiniMap.obj
 0001:000345c0       ??_GKUiMiniMap@@EAEPAXI@Z  004355c0 f i UiMiniMap.obj
 0001:000345c0       ??_EKUiMiniMap@@EAEPAXI@Z  004355c0 f i UiMiniMap.obj
 0001:000345e0       ??1KUiMiniMap@@EAE@XZ      004355e0 f i UiMiniMap.obj
 0001:00034680       ?OpenWindow@KUiMiniMap@@SAPAV1@XZ 00435680 f   UiMiniMap.obj
 0001:00034720       ?GetIfVisible@KUiMiniMap@@SAPAV1@XZ 00435720 f   UiMiniMap.obj
 0001:00034740       ?Initialize@KUiMiniMap@@AAEXXZ 00435740 f   UiMiniMap.obj
 0001:000347d0       ?CloseWindow@KUiMiniMap@@SAXXZ 004357d0 f   UiMiniMap.obj
 0001:00034820       ?LoadScheme@KUiMiniMap@@SAXPBD@Z 00435820 f   UiMiniMap.obj
 0001:000348e0       ?LoadScheme@KUiMiniMap@@AAEXPAVKIniFile@@@Z 004358e0 f   UiMiniMap.obj
 0001:00034a00       ?WndProc@KUiMiniMap@@EAEHIIH@Z 00435a00 f   UiMiniMap.obj
 0001:00034c80       ?StopScrollMap@KUiMiniMap@@AAEXXZ 00435c80 f   UiMiniMap.obj
 0001:00034cb0       ?MapMoveBack@KUiMiniMap@@AAEXXZ 00435cb0 f   UiMiniMap.obj
 0001:00034d00       ?PaintWindow@KUiMiniMap@@EAEXXZ 00435d00 f   UiMiniMap.obj
 0001:00034da0       ?Breathe@KUiMiniMap@@EAEXXZ 00435da0 f   UiMiniMap.obj
 0001:00034de0       ?UpdateSceneTimeInfo@KUiMiniMap@@SAXPAUKUiSceneTimeInfo@@@Z 00435de0 f   UiMiniMap.obj
 0001:00034e30       ?Show@KUiMiniMap@@UAEXXZ   00435e30 f   UiMiniMap.obj
 0001:00034e70       ?Hide@KUiMiniMap@@UAEXXZ   00435e70 f   UiMiniMap.obj
 0001:00034e90       ?MapScroll@KUiMiniMap@@AAEXH@Z 00435e90 f   UiMiniMap.obj
 0001:00034f40       ?MapToggleStatus@@YAXXZ    00435f40 f   UiMiniMap.obj
 0001:00034f70       ?MapSetMode@@YAXW4MINIMAP_MODE@@@Z 00435f70 f   UiMiniMap.obj
 0001:00035020       ?GetColor@KUiSelColor@@SAIH@Z 00436020 f   UiSelColor.obj
 0001:00035050       ?LoadScheme@KUiSelColor@@SAXPBD@Z 00436050 f   UiSelColor.obj
 0001:00035220       ?PopupMenu@KUiSelColor@@SAXPAVKWndWindow@@IHHH@Z 00436220 f   UiSelColor.obj
 0001:00035260       ?CancelMenu@KUiSelColor@@SAXXZ 00436260 f   UiSelColor.obj
 0001:00035270       ??0KUiNewPlayerStartMsg@@AAE@XZ 00436270 f   UiNewPlayerStartMsg.obj
 0001:00035300       ??_GKUiNewPlayerStartMsg@@EAEPAXI@Z 00436300 f i UiNewPlayerStartMsg.obj
 0001:00035300       ??_EKUiNewPlayerStartMsg@@EAEPAXI@Z 00436300 f i UiNewPlayerStartMsg.obj
 0001:00035320       ??1KUiNewPlayerStartMsg@@EAE@XZ 00436320 f   UiNewPlayerStartMsg.obj
 0001:00035430       ?OpenWindow@KUiNewPlayerStartMsg@@SAPAV1@XZ 00436430 f   UiNewPlayerStartMsg.obj
 0001:000354c0       ?CloseWindow@KUiNewPlayerStartMsg@@SAX_N@Z 004364c0 f   UiNewPlayerStartMsg.obj
 0001:00035500       ?Initialize@KUiNewPlayerStartMsg@@AAEXXZ 00436500 f   UiNewPlayerStartMsg.obj
 0001:000355b0       ?LoadList@KUiNewPlayerStartMsg@@AAEXXZ 004365b0 f   UiNewPlayerStartMsg.obj
 0001:00035650       ?LoadScheme@KUiNewPlayerStartMsg@@AAEXPBD@Z 00436650 f   UiNewPlayerStartMsg.obj
 0001:00035780       ?WndProc@KUiNewPlayerStartMsg@@EAEHIIH@Z 00436780 f   UiNewPlayerStartMsg.obj
 0001:000357d0       ?OnKeyDown@KUiNewPlayerStartMsg@@AAEHI@Z 004367d0 f   UiNewPlayerStartMsg.obj
 0001:00035800       ?OnClickButton@KUiNewPlayerStartMsg@@AAEXPAVKWndButton@@@Z 00436800 f   UiNewPlayerStartMsg.obj
 0001:000358b0       ?OnOk@KUiNewPlayerStartMsg@@AAEXXZ 004368b0 f   UiNewPlayerStartMsg.obj
 0001:000358d0       ??0KUiPlayVideo@@QAE@XZ    004368d0 f   UiPlayVideo.obj
 0001:00035940       ??_GKUiPlayVideo@@EAEPAXI@Z 00436940 f i UiPlayVideo.obj
 0001:00035940       ??_EKUiPlayVideo@@EAEPAXI@Z 00436940 f i UiPlayVideo.obj
 0001:00035960       ??1KUiPlayVideo@@EAE@XZ    00436960 f i UiPlayVideo.obj
 0001:00035970       ?OpenWindow@KUiPlayVideo@@SAPAV1@XZ 00436970 f   UiPlayVideo.obj
 0001:00035a00       ?WndProc@KUiPlayVideo@@EAEHIIH@Z 00436a00 f   UiPlayVideo.obj
 0001:00035a80       ?CloseWindow@KUiPlayVideo@@SAX_N@Z 00436a80 f   UiPlayVideo.obj
 0001:00035ac0       ?LoadScheme@KUiPlayVideo@@SAXPBD0@Z 00436ac0 f   UiPlayVideo.obj
 0001:00035b60       ?Initialize@KUiPlayVideo@@AAEHXZ 00436b60 f   UiPlayVideo.obj
 0001:00035c80       ?Terminate@KUiPlayVideo@@AAEXXZ 00436c80 f   UiPlayVideo.obj
 0001:00035cb0       ?OpenVideo@KUiPlayVideo@@QAEHPBD@Z 00436cb0 f   UiPlayVideo.obj
 0001:00035e20       ?CloseVideo@KUiPlayVideo@@QAEX_N@Z 00436e20 f   UiPlayVideo.obj
 0001:00035e80       ?Breathe@KUiPlayVideo@@EAEXXZ 00436e80 f   UiPlayVideo.obj
 0001:00035f10       ?PaintWindow@KUiPlayVideo@@EAEXXZ 00436f10 f   UiPlayVideo.obj
 0001:000360e0       ?OnPlayFinished@KUiPlayVideo@@AAEXXZ 004370e0 f   UiPlayVideo.obj
 0001:00036120       ?SetPosition@KUiPlayVideo@@QAEXHH@Z 00437120 f   UiPlayVideo.obj
 0001:00036140       ?SetSize@KUiPlayVideo@@UAEXHH@Z 00437140 f   UiPlayVideo.obj
 0001:00036160       ?Setting@KUiPlayVideo@@QAEX_N0PAVKWndWindow@@I@Z 00437160 f   UiPlayVideo.obj
 0001:00036180       ??0KUiHelper@@AAE@XZ       00437180 f   UiHelper.obj
 0001:000361a0       ?Breathe@KUiHelper@@EAEXXZ 004371a0 f i UiHelper.obj
 0001:000361b0       ??_EKUiHelper@@EAEPAXI@Z   004371b0 f i UiHelper.obj
 0001:000361b0       ??_GKUiHelper@@EAEPAXI@Z   004371b0 f i UiHelper.obj
 0001:000361d0       ??1KUiHelper@@EAE@XZ       004371d0 f   UiHelper.obj
 0001:000361e0       ?OpenWindow@KUiHelper@@SAPAV1@_N@Z 004371e0 f   UiHelper.obj
 0001:000362a0       ?CloseWindow@KUiHelper@@SAX_N@Z 004372a0 f   UiHelper.obj
 0001:000362d0       ?GetIfVisible@KUiHelper@@SAPAV1@XZ 004372d0 f   UiHelper.obj
 0001:000362f0       ?Initialize@KUiHelper@@AAEXXZ 004372f0 f   UiHelper.obj
 0001:00036330       ?WndProc@KUiHelper@@EAEHIIH@Z 00437330 f   UiHelper.obj
 0001:00036380       ?LoadScheme@KUiHelper@@QAEXPBD@Z 00437380 f   UiHelper.obj
 0001:000364b0       ?Show@KUiHelper@@EAEXXZ    004374b0 f   UiHelper.obj
 0001:00036530       ?SelectInterfacePic@KUiHelper@@SAXXZ 00437530 f   UiHelper.obj
 0001:00036580       ?SelectKeyboardPic@KUiHelper@@SAXXZ 00437580 f   UiHelper.obj
 0001:000365d0       ?SelectWuxingPic@KUiHelper@@SAXXZ 004375d0 f   UiHelper.obj
 0001:00036620       ?GetIfVisible@KUiHelper2@@SAPAV1@XZ 00437620 f   UiHelper2.obj
 0001:00036640       ??0KUiHelper2@@AAE@XZ      00437640 f   UiHelper2.obj
 0001:00036710       ??_EKUiHelper2@@EAEPAXI@Z  00437710 f i UiHelper2.obj
 0001:00036710       ??_GKUiHelper2@@EAEPAXI@Z  00437710 f i UiHelper2.obj
 0001:00036730       ??1KUiHelper2@@EAE@XZ      00437730 f   UiHelper2.obj
 0001:00036830       ?OpenWindow@KUiHelper2@@SAPAV1@_N@Z 00437830 f   UiHelper2.obj
 0001:000368d0       ?Initialize@KUiHelper2@@AAEXXZ 004378d0 f   UiHelper2.obj
 0001:00036990       ?CloseWindow@KUiHelper2@@SAX_N@Z 00437990 f   UiHelper2.obj
 0001:000369c0       ?LoadScheme@KUiHelper2@@SAXPBD@Z 004379c0 f   UiHelper2.obj
 0001:00036b60       ?WndProc@KUiHelper2@@EAEHIIH@Z 00437b60 f   UiHelper2.obj
 0001:00036d30       ?Clear@KUiHelper2@@AAEXXZ  00437d30 f   UiHelper2.obj
 0001:00036d60       ?LoadIndexList@KUiHelper2@@AAEXPBD@Z 00437d60 f   UiHelper2.obj
 0001:00036f70       ?UpdateData@KUiHelper2@@AAEXH@Z 00437f70 f   UiHelper2.obj
 0001:00037080       ?LaunchReconnect@KReconnectWnd@@SA_NH@Z 00438080 f   UiReconnect.obj
 0001:00037160       ??_EKReconnectWnd@@EAEPAXI@Z 00438160 f i UiReconnect.obj
 0001:00037160       ??_GKReconnectWnd@@EAEPAXI@Z 00438160 f i UiReconnect.obj
 0001:00037180       ??1KReconnectWnd@@EAE@XZ   00438180 f i UiReconnect.obj
 0001:00037190       ?IsReconnecttingGoingOn@KReconnectWnd@@SA_NXZ 00438190 f   UiReconnect.obj
 0001:000371a0       ?FirstReconnect@KReconnectWnd@@AAEXXZ 004381a0 f   UiReconnect.obj
 0001:00037210       ?StartReconnect@KReconnectWnd@@AAE_NXZ 00438210 f   UiReconnect.obj
 0001:000372e0       ?Exit@KReconnectWnd@@SAX_N@Z 004382e0 f   UiReconnect.obj
 0001:00037320       ?Breathe@KReconnectWnd@@EAEXXZ 00438320 f   UiReconnect.obj
 0001:00037540       ?WndProc@KReconnectWnd@@EAEHIIH@Z 00438540 f   UiReconnect.obj
 0001:00037580       ?LoadData@KTaskDataFile@@SAXXZ 00438580 f   UiTaskDataFile.obj
 0001:00037710       ?SaveData@KTaskDataFile@@SA_NXZ 00438710 f   UiTaskDataFile.obj
 0001:000378a0       ?GetFileName@KTaskDataFile@@CAXPADH@Z 004388a0 f   UiTaskDataFile.obj
 0001:000378f0       ?ClearAll@KTaskDataFile@@SAXXZ 004388f0 f   UiTaskDataFile.obj
 0001:00037930       ?GetPersonalRecord@KTaskDataFile@@SAHPADH@Z 00438930 f   UiTaskDataFile.obj
 0001:00037970       ?SetPersonalRecord@KTaskDataFile@@SA_NPBDH@Z 00438970 f   UiTaskDataFile.obj
 0001:000379e0       ?RemoveSystemRecord@KTaskDataFile@@SA_NH@Z 004389e0 f   UiTaskDataFile.obj
 0001:00037a40       ?GetSystemRecordCount@KTaskDataFile@@SAHXZ 00438a40 f   UiTaskDataFile.obj
 0001:00037a50       ?GetSystemRecord@KTaskDataFile@@SAPBUTASK_SYSTEM_RECORD@@H@Z 00438a50 f   UiTaskDataFile.obj
 0001:00037a80       ?InsertSystemRecord@KTaskDataFile@@SA_NPAUTASK_SYSTEM_RECORD@@@Z 00438a80 f   UiTaskDataFile.obj
 0001:00037b00       ?AppendSystemRecord@KTaskDataFile@@CAXPAUKTaskSystemRecordNode@1@@Z 00438b00 f   UiTaskDataFile.obj
 0001:00037b40       ?InsertSystemRecord@KTaskDataFile@@CAXPAUKTaskSystemRecordNode@1@@Z 00438b40 f   UiTaskDataFile.obj
 0001:00037b60       ??0KTaskEdit@@QAE@XZ       00438b60 f   UiTaskNote.obj
 0001:00037bc0       ??_GKTaskEdit@@UAEPAXI@Z   00438bc0 f i UiTaskNote.obj
 0001:00037bc0       ??_EKTaskEdit@@UAEPAXI@Z   00438bc0 f i UiTaskNote.obj
 0001:00037be0       ??1KTaskEdit@@UAE@XZ       00438be0 f i UiTaskNote.obj
 0001:00037bf0       ?Initialize@KUiTaskNote_Personal@@QAEXXZ 00438bf0 f   UiTaskNote.obj
 0001:00037c20       ?LoadScheme@KUiTaskNote_Personal@@QAEXPBD@Z 00438c20 f   UiTaskNote.obj
 0001:00037d10       ?UpdateView@KUiTaskNote_Personal@@QAEXXZ 00438d10 f   UiTaskNote.obj
 0001:00037d60       ?UpdateData@KUiTaskNote_Personal@@UAEXXZ 00438d60 f   UiTaskNote.obj
 0001:00037d70       ?WndProc@KUiTaskNote_Personal@@EAEHIIH@Z 00438d70 f   UiTaskNote.obj
 0001:00037db0       ?Show@KUiTaskNote_Personal@@UAEXXZ 00438db0 f   UiTaskNote.obj
 0001:00037dd0       ?Hide@KUiTaskNote_Personal@@UAEXXZ 00438dd0 f   UiTaskNote.obj
 0001:00037df0       ?OnSave@KUiTaskNote_Personal@@AAEXXZ 00438df0 f   UiTaskNote.obj
 0001:00037e20       ?Initialize@KUiTaskNote_System@@QAEXXZ 00438e20 f   UiTaskNote.obj
 0001:00037e40       ?LoadScheme@KUiTaskNote_System@@QAEXPBD@Z 00438e40 f   UiTaskNote.obj
 0001:00037f20       ?WndProc@KUiTaskNote_System@@EAEHIIH@Z 00438f20 f   UiTaskNote.obj
 0001:00037fa0       ?OnDelete@KUiTaskNote_System@@AAEXH@Z 00438fa0 f   UiTaskNote.obj
 0001:00037fe0       ?UpdateView@KUiTaskNote_System@@QAEXXZ 00438fe0 f   UiTaskNote.obj
 0001:00038030       ??0KUiTaskNote@@AAE@XZ     00439030 f   UiTaskNote.obj
 0001:00038140       ??_GKUiTaskNote@@EAEPAXI@Z 00439140 f i UiTaskNote.obj
 0001:00038140       ??_EKUiTaskNote@@EAEPAXI@Z 00439140 f i UiTaskNote.obj
 0001:00038160       ??1KUiTaskNote_System@@UAE@XZ 00439160 f i UiTaskNote.obj
 0001:00038200       ??1KUiTaskNote_Personal@@UAE@XZ 00439200 f i UiTaskNote.obj
 0001:00038290       ??_EKUiTaskNote_System@@UAEPAXI@Z 00439290 f i UiTaskNote.obj
 0001:00038290       ??_GKUiTaskNote_System@@UAEPAXI@Z 00439290 f i UiTaskNote.obj
 0001:000382b0       ??_EKUiTaskNote_Personal@@UAEPAXI@Z 004392b0 f i UiTaskNote.obj
 0001:000382b0       ??_GKUiTaskNote_Personal@@UAEPAXI@Z 004392b0 f i UiTaskNote.obj
 0001:000382d0       ??1KUiTaskNote@@EAE@XZ     004392d0 f   UiTaskNote.obj
 0001:00038420       ?OpenWindow@KUiTaskNote@@SAPAV1@XZ 00439420 f   UiTaskNote.obj
 0001:000384d0       ?CloseWindow@KUiTaskNote@@SAX_N@Z 004394d0 f   UiTaskNote.obj
 0001:00038510       ?GetIfVisible@KUiTaskNote@@SAPAV1@XZ 00439510 f   UiTaskNote.obj
 0001:00038530       ?InitData@KUiTaskNote@@AAEXXZ 00439530 f   UiTaskNote.obj
 0001:00038550       ?SaveData@KUiTaskNote@@AAEXXZ 00439550 f   UiTaskNote.obj
 0001:00038570       ?LoadScheme@KUiTaskNote@@SAXPBD@Z 00439570 f   UiTaskNote.obj
 0001:000386a0       ?Initialize@KUiTaskNote@@AAEXXZ 004396a0 f   UiTaskNote.obj
 0001:00038730       ?WndProc@KUiTaskNote@@EAEHIIH@Z 00439730 f   UiTaskNote.obj
 0001:000387b0       ?OnClose@KUiTaskNote@@AAEXXZ 004397b0 f   UiTaskNote.obj
 0001:000387c0       ?WakeUp@KUiTaskNote@@SAXPBDHI@Z 004397c0 f   UiTaskNote.obj
 0001:00038850       ?OpenWindow@KUiWorldmap@@SAPAV1@XZ 00439850 f   UiWorldMap.obj
 0001:00038930       ??_EKUiWorldmap@@EAEPAXI@Z 00439930 f i UiWorldMap.obj
 0001:00038930       ??_GKUiWorldmap@@EAEPAXI@Z 00439930 f i UiWorldMap.obj
 0001:00038950       ??1KUiWorldmap@@EAE@XZ     00439950 f i UiWorldMap.obj
 0001:000389b0       ?CloseWindow@KUiWorldmap@@SAXXZ 004399b0 f   UiWorldMap.obj
 0001:000389e0       ?GetIfVisible@KUiWorldmap@@SAPAV1@XZ 004399e0 f   UiWorldMap.obj
 0001:00038a00       ?Initialize@KUiWorldmap@@AAEXXZ 00439a00 f   UiWorldMap.obj
 0001:00038b00       ?WndProc@KUiWorldmap@@EAEHIIH@Z 00439b00 f   UiWorldMap.obj
 0001:00038b40       ?UpdateData@KUiWorldmap@@EAEXXZ 00439b40 f   UiWorldMap.obj
 0001:00038cc0       ?Breathe@KUiWorldmap@@EAEXXZ 00439cc0 f   UiWorldMap.obj
 0001:00038ce0       ??0KUiNewsMessage@@AAE@XZ  00439ce0 f   UiNewsMessage.obj
 0001:00038d80       ??_GKUiNewsMessage@@EAEPAXI@Z 00439d80 f i UiNewsMessage.obj
 0001:00038d80       ??_EKUiNewsMessage@@EAEPAXI@Z 00439d80 f i UiNewsMessage.obj
 0001:00038da0       ??1KUiNewsMessage@@EAE@XZ  00439da0 f i UiNewsMessage.obj
 0001:00038e00       ?EnableIdleMsg@KUiNewsMessage@@SAXH@Z 00439e00 f   UiNewsMessage.obj
 0001:00038e60       ?AddMessage@KUiNewsMessage@@AAE_NPAUKNewsMessage@@II@Z 00439e60 f   UiNewsMessage.obj
 0001:00038ec0       ?SeparateMsg@KUiNewsMessage@@AAEPAUKNewsMessageNode@@XZ 00439ec0 f   UiNewsMessage.obj
 0001:00038f20       ?AddToTail@KUiNewsMessage@@AAEXPAUKNewsMessageNode@@@Z 00439f20 f   UiNewsMessage.obj
 0001:00038f60       ?Clear@KUiNewsMessage@@AAEXXZ 00439f60 f   UiNewsMessage.obj
 0001:00038fa0       ?OpenWindow@KUiNewsMessage@@SAPAV1@XZ 00439fa0 f   UiNewsMessage.obj
 0001:00039050       ?GetIfVisible@KUiNewsMessage@@SAPAV1@XZ 0043a050 f   UiNewsMessage.obj
 0001:00039070       ?CloseWindow@KUiNewsMessage@@SAXH@Z 0043a070 f   UiNewsMessage.obj
 0001:000390b0       ?Initialize@KUiNewsMessage@@AAEXXZ 0043a0b0 f   UiNewsMessage.obj
 0001:00039110       ?LoadScheme@KUiNewsMessage@@SAXPBD@Z 0043a110 f   UiNewsMessage.obj
 0001:00039390       ?PtInWindow@KUiNewsMessage@@EAEHHH@Z 0043a390 f   UiNewsMessage.obj
 0001:000393a0       ?MessageArrival@KUiNewsMessage@@SAXPAUKNewsMessage@@PAU_SYSTEMTIME@@@Z 0043a3a0 f   UiNewsMessage.obj
 0001:00039530       ?PaintWindow@KUiNewsMessage@@EAEXXZ 0043a530 f   UiNewsMessage.obj
 0001:000396b0       ?PickAMessage@KUiNewsMessage@@AAE_NXZ 0043a6b0 f   UiNewsMessage.obj
 0001:000397c0       ?PickFromIni@KUiNewsMessage@@AAEXXZ 0043a7c0 f   UiNewsMessage.obj
 0001:00039870       ?Breathe@KUiNewsMessage@@EAEXXZ 0043a870 f   UiNewsMessage.obj
 0001:000398d0       ?ConvertMsg@KUiNewsMessage@@AAEXXZ 0043a8d0 f   UiNewsMessage.obj
 0001:00039970       ?MakeCountingMsg@KUiNewsMessage@@AAE_NXZ 0043a970 f   UiNewsMessage.obj
 0001:00039af0       ?Reset@KUiNewsMessage@@AAEXXZ 0043aaf0 f   UiNewsMessage.obj
 0001:00039b50       ?ScrollMsg@KUiNewsMessage@@AAE_NXZ 0043ab50 f   UiNewsMessage.obj
 0001:0003a0e0       ??0KUiStrengthRank@@QAE@XZ 0043b0e0 f   UiStrengthRank.obj
 0001:0003a1a0       ??_EKUiStrengthRank@@UAEPAXI@Z 0043b1a0 f i UiStrengthRank.obj
 0001:0003a1a0       ??_GKUiStrengthRank@@UAEPAXI@Z 0043b1a0 f i UiStrengthRank.obj
 0001:0003a1c0       ??1KUiStrengthRank@@UAE@XZ 0043b1c0 f   UiStrengthRank.obj
 0001:0003a2b0       ?GetIfVisible@KUiStrengthRank@@SAPAV1@XZ 0043b2b0 f   UiStrengthRank.obj
 0001:0003a2d0       ?OpenWindow@KUiStrengthRank@@SAPAV1@XZ 0043b2d0 f   UiStrengthRank.obj
 0001:0003a370       ?OpenDefaultWindow@KUiStrengthRank@@SAPAV1@H@Z 0043b370 f   UiStrengthRank.obj
 0001:0003a420       ?ArrangeDefaultData@KUiStrengthRank@@AAEXXZ 0043b420 f   UiStrengthRank.obj
 0001:0003a660       ?Initialize@KUiStrengthRank@@AAEXXZ 0043b660 f   UiStrengthRank.obj
 0001:0003a7c0       ?CloseWindow@KUiStrengthRank@@SAX_N@Z 0043b7c0 f   UiStrengthRank.obj
 0001:0003a810       ?Breathe@KUiStrengthRank@@EAEXXZ 0043b810 f   UiStrengthRank.obj
 0001:0003a870       ?WndProc@KUiStrengthRank@@EAEHIIH@Z 0043b870 f   UiStrengthRank.obj
 0001:0003a9e0       ?LoadScheme@KUiStrengthRank@@SAXPBD@Z 0043b9e0 f   UiStrengthRank.obj
 0001:0003ac20       ?ReleasePic@KUiStrengthRank@@AAEXXZ 0043bc20 f   UiStrengthRank.obj
 0001:0003ac60       ?ReleaseData@KUiStrengthRank@@AAEXXZ 0043bc60 f   UiStrengthRank.obj
 0001:0003aed0       ?UpdateRankData@KUiStrengthRank@@AAEXH@Z 0043bed0 f   UiStrengthRank.obj
 0001:0003b0a0       ?LoadIndexIni@KUiStrengthRank@@AAEHPAVKIniFile@@@Z 0043c0a0 f   UiStrengthRank.obj
 0001:0003b210       ?LoadRankIni@KUiStrengthRank@@AAEHPAVKIniFile@@H@Z 0043c210 f   UiStrengthRank.obj
 0001:0003b350       ?SendGetRankToCore@KUiStrengthRank@@AAEXH@Z 0043c350 f   UiStrengthRank.obj
 0001:0003b3c0       ?ConstructIndexView@KUiStrengthRank@@AAEXXZ 0043c3c0 f   UiStrengthRank.obj
 0001:0003b4a0       ?ConstructRankView@KUiStrengthRank@@AAEXXZ 0043c4a0 f   UiStrengthRank.obj
 0001:0003b6e0       ?NewIndexArrive@KUiStrengthRank@@SAXIPAUKRankIndex@@@Z 0043c6e0 f   UiStrengthRank.obj
 0001:0003b770       ?NewRankArrive@KUiStrengthRank@@SAXIPAUKRankMessage@@@Z 0043c770 f   UiStrengthRank.obj
 0001:0003b790       ?AddIndex@KUiStrengthRank@@CAXIPAUKRankIndex@@@Z 0043c790 f   UiStrengthRank.obj
 0001:0003b9e0       ?AddRank@KUiStrengthRank@@CAXIPAUKRankMessage@@@Z 0043c9e0 f   UiStrengthRank.obj
 0001:0003bbc0       ?StoreTempIni@KUiStrengthRank@@CAXXZ 0043cbc0 f   UiStrengthRank.obj
 0001:0003be00       ?StoreNewDataToTempFile@KUiStrengthRank@@CAXIPAUKRankIndex@@@Z 0043ce00 f   UiStrengthRank.obj
 0001:0003bfa0       ?StoreNewDataToTempFile@KUiStrengthRank@@CAXIPAUKRankMessage@@@Z 0043cfa0 f   UiStrengthRank.obj
 0001:0003c100       ?AttachTempFile@KUiStrengthRank@@SAHXZ 0043d100 f   UiStrengthRank.obj
 0001:0003c1c0       ?RemoveTempFile@KUiStrengthRank@@SAXXZ 0043d1c0 f   UiStrengthRank.obj
 0001:0003c210       ?TDrawOutString@@YAHPADHHH@Z 0043d210 f   UiStrengthRank.obj
 0001:0003c2b0       ??_E?$KLinkStruct@UKRankIndexNode@@@@UAEPAXI@Z 0043d2b0 f i UiStrengthRank.obj
 0001:0003c2b0       ??_G?$KLinkStruct@UKRankIndexNode@@@@UAEPAXI@Z 0043d2b0 f i UiStrengthRank.obj
 0001:0003c3b0       ??_E?$KLinkStruct@UKRankNode@@@@UAEPAXI@Z 0043d3b0 f i UiStrengthRank.obj
 0001:0003c3b0       ??_G?$KLinkStruct@UKRankNode@@@@UAEPAXI@Z 0043d3b0 f i UiStrengthRank.obj
 0001:0003c4b0       ?RemoveItem@?$KLinkStruct@UKRankIndexNode@@@@QAEHXZ 0043d4b0 f i UiStrengthRank.obj
 0001:0003c590       ??0KUiPopupPasswordQuery@@QAE@XZ 0043d590 f   UiPopupPasswordQuery.obj
 0001:0003c5f0       ??_GKUiPopupPasswordQuery@@UAEPAXI@Z 0043d5f0 f i UiPopupPasswordQuery.obj
 0001:0003c5f0       ??_EKUiPopupPasswordQuery@@UAEPAXI@Z 0043d5f0 f i UiPopupPasswordQuery.obj
 0001:0003c610       ??1KUiPopupPasswordQuery@@UAE@XZ 0043d610 f   UiPopupPasswordQuery.obj
 0001:0003c680       ?OpenWindow@KUiPopupPasswordQuery@@SAPAV1@PAVKWndWindow@@I@Z 0043d680 f   UiPopupPasswordQuery.obj
 0001:0003c750       ?GetIfVisible@KUiPopupPasswordQuery@@SAPAV1@XZ 0043d750 f   UiPopupPasswordQuery.obj
 0001:0003c770       ?CloseWindow@KUiPopupPasswordQuery@@SAX_N@Z 0043d770 f   UiPopupPasswordQuery.obj
 0001:0003c7a0       ?Initialize@KUiPopupPasswordQuery@@AAEXXZ 0043d7a0 f   UiPopupPasswordQuery.obj
 0001:0003c800       ?LoadScheme@KUiPopupPasswordQuery@@SAXPBD@Z 0043d800 f   UiPopupPasswordQuery.obj
 0001:0003c8f0       ?WndProc@KUiPopupPasswordQuery@@EAEHIIH@Z 0043d8f0 f   UiPopupPasswordQuery.obj
 0001:0003c960       ?OnConfirm@KUiPopupPasswordQuery@@AAEXXZ 0043d960 f   UiPopupPasswordQuery.obj
 0001:0003c9e0       ??0KUiTongAssignBox@@QAE@XZ 0043d9e0 f   UiTongAssignBox.obj
 0001:0003cab0       ??_GKUiTongAssignBox@@UAEPAXI@Z 0043dab0 f i UiTongAssignBox.obj
 0001:0003cab0       ??_EKUiTongAssignBox@@UAEPAXI@Z 0043dab0 f i UiTongAssignBox.obj
 0001:0003cad0       ??1KUiTongAssignBox@@UAE@XZ 0043dad0 f   UiTongAssignBox.obj
 0001:0003cb90       ?OpenWindow@KUiTongAssignBox@@SAPAV1@XZ 0043db90 f   UiTongAssignBox.obj
 0001:0003cc40       ?GetIfVisible@KUiTongAssignBox@@SAPAV1@XZ 0043dc40 f   UiTongAssignBox.obj
 0001:0003cc60       ?CloseWindow@KUiTongAssignBox@@SAX_N@Z 0043dc60 f   UiTongAssignBox.obj
 0001:0003cc90       ?Initialize@KUiTongAssignBox@@AAEXXZ 0043dc90 f   UiTongAssignBox.obj
 0001:0003cd30       ?LoadScheme@KUiTongAssignBox@@SAXPBD@Z 0043dd30 f   UiTongAssignBox.obj
 0001:0003cf80       ?WndProc@KUiTongAssignBox@@UAEHIIH@Z 0043df80 f   UiTongAssignBox.obj
 0001:0003d150       ?LinkToMainWindow@KUiTongAssignBox@@SAXPAVKWndWindow@@@Z 0043e150 f   UiTongAssignBox.obj
 0001:0003d180       ?ArrangeData@KUiTongAssignBox@@SAXHPAD0HH@Z 0043e180 f   UiTongAssignBox.obj
 0001:0003d320       ?UpdateCheckButton@KUiTongAssignBox@@AAEXH@Z 0043e320 f   UiTongAssignBox.obj
 0001:0003d3c0       ?PopupConfirmWindow@KUiTongAssignBox@@AAEXPBDI@Z 0043e3c0 f   UiTongAssignBox.obj
 0001:0003d3f0       ?OnConfirm@KUiTongAssignBox@@AAEXXZ 0043e3f0 f   UiTongAssignBox.obj
 0001:0003d420       ??0KUiTongCreateSheet@@QAE@XZ 0043e420 f   UiTongCreateSheet.obj
 0001:0003d4e0       ??_EKUiTongCreateSheet@@UAEPAXI@Z 0043e4e0 f i UiTongCreateSheet.obj
 0001:0003d4e0       ??_GKUiTongCreateSheet@@UAEPAXI@Z 0043e4e0 f i UiTongCreateSheet.obj
 0001:0003d500       ??1KUiTongCreateSheet@@UAE@XZ 0043e500 f   UiTongCreateSheet.obj
 0001:0003d5c0       ?OpenWindow@KUiTongCreateSheet@@SAPAV1@XZ 0043e5c0 f   UiTongCreateSheet.obj
 0001:0003d660       ?GetIfVisible@KUiTongCreateSheet@@SAPAV1@XZ 0043e660 f   UiTongCreateSheet.obj
 0001:0003d680       ?CloseWindow@KUiTongCreateSheet@@SAX_N@Z 0043e680 f   UiTongCreateSheet.obj
 0001:0003d6b0       ?Initialize@KUiTongCreateSheet@@AAEXXZ 0043e6b0 f   UiTongCreateSheet.obj
 0001:0003d750       ?LoadScheme@KUiTongCreateSheet@@SAXPBD@Z 0043e750 f   UiTongCreateSheet.obj
 0001:0003d920       ?WndProc@KUiTongCreateSheet@@EAEHIIH@Z 0043e920 f   UiTongCreateSheet.obj
 0001:0003d9c0       ?AlignmentButtonCheck@KUiTongCreateSheet@@AAEXW4NPCCAMP@@@Z 0043e9c0 f   UiTongCreateSheet.obj
 0001:0003da50       ?OnDone@KUiTongCreateSheet@@AAEXXZ 0043ea50 f   UiTongCreateSheet.obj
 0001:0003dae0       ??0KUiTongGetString@@AAE@XZ 0043eae0 f   UiTongGetString.obj
 0001:0003db70       ??_GKUiTongGetString@@EAEPAXI@Z 0043eb70 f i UiTongGetString.obj
 0001:0003db70       ??_EKUiTongGetString@@EAEPAXI@Z 0043eb70 f i UiTongGetString.obj
 0001:0003db90       ??1KUiTongGetString@@EAE@XZ 0043eb90 f i UiTongGetString.obj
 0001:0003dc20       ?OpenWindow@KUiTongGetString@@SAPAV1@PBD0PAVKWndWindow@@IHH@Z 0043ec20 f   UiTongGetString.obj
 0001:0003dd70       ?CloseWindow@KUiTongGetString@@SAX_N@Z 0043ed70 f   UiTongGetString.obj
 0001:0003ddb0       ?GetIfVisible@KUiTongGetString@@SAPAV1@XZ 0043edb0 f   UiTongGetString.obj
 0001:0003ddd0       ?Show@KUiTongGetString@@EAEXXZ 0043edd0 f   UiTongGetString.obj
 0001:0003de30       ?Hide@KUiTongGetString@@EAEXXZ 0043ee30 f   UiTongGetString.obj
 0001:0003de50       ?Initialize@KUiTongGetString@@AAEXXZ 0043ee50 f   UiTongGetString.obj
 0001:0003dec0       ?LoadScheme@KUiTongGetString@@SAXPBD@Z 0043eec0 f   UiTongGetString.obj
 0001:0003dff0       ?WndProc@KUiTongGetString@@EAEHIIH@Z 0043eff0 f   UiTongGetString.obj
 0001:0003e070       ?OnOk@KUiTongGetString@@AAEXXZ 0043f070 f   UiTongGetString.obj
 0001:0003e100       ?OnCancel@KUiTongGetString@@AAEXXZ 0043f100 f   UiTongGetString.obj
 0001:0003e130       ??0KUiTongManager@@QAE@XZ  0043f130 f   UiTongManager.obj
 0001:0003e340       ??_GKUiTongManager@@UAEPAXI@Z 0043f340 f i UiTongManager.obj
 0001:0003e340       ??_EKUiTongManager@@UAEPAXI@Z 0043f340 f i UiTongManager.obj
 0001:0003e360       ??1KUiTongManager@@UAE@XZ  0043f360 f   UiTongManager.obj
 0001:0003e540       ?OpenWindow@KUiTongManager@@SAPAV1@XZ 0043f540 f   UiTongManager.obj
 0001:0003e5f0       ?OpenWindow@KUiTongManager@@SAPAV1@PAD@Z 0043f5f0 f   UiTongManager.obj
 0001:0003e610       ?ArrangeComposition@KUiTongManager@@QAEXPAD@Z 0043f610 f   UiTongManager.obj
 0001:0003e720       ?GetIfVisible@KUiTongManager@@SAPAV1@XZ 0043f720 f   UiTongManager.obj
 0001:0003e740       ?CloseWindow@KUiTongManager@@SAX_N@Z 0043f740 f   UiTongManager.obj
 0001:0003e770       ?Initialize@KUiTongManager@@AAEXXZ 0043f770 f   UiTongManager.obj
 0001:0003e8c0       ?LoadScheme@KUiTongManager@@SAXPBD@Z 0043f8c0 f   UiTongManager.obj
 0001:0003ecc0       ?WndProc@KUiTongManager@@UAEHIIH@Z 0043fcc0 f   UiTongManager.obj
 0001:0003f0c0       ?UpdateBtnTheme@KUiTongManager@@AAEXHH@Z 004400c0 f   UiTongManager.obj
 0001:0003f310       ?UpdateTongInfoView@KUiTongManager@@AAEXXZ 00440310 f   UiTongManager.obj
 0001:0003f3d0       ?UpdateTongListView@KUiTongManager@@AAEXXZ 004403d0 f   UiTongManager.obj
 0001:0003f4b0       ?GetCurrentSelectedData@KUiTongManager@@AAEPAV?$KLinkStruct@UKPilgarlicItem@@@@XZ 004404b0 f   UiTongManager.obj
 0001:0003f4e0       ?GetSelectedPlayer@KUiTongManager@@AAEPAUKPilgarlicItem@@XZ 004404e0 f   UiTongManager.obj
 0001:0003f560       ?UpdateListCheckButton@KUiTongManager@@AAEXH@Z 00440560 f   UiTongManager.obj
 0001:0003f5f0       ?ClearTongData@KUiTongManager@@AAEXXZ 004405f0 f   UiTongManager.obj
 0001:0003f8d0       ?PopupConfirmWindow@KUiTongManager@@AAEXPBDI@Z 004408d0 f   UiTongManager.obj
 0001:0003f910       ?NewDataArrive@KUiTongManager@@SAXPAUKUiGameObjectWithName@@PAUKTongMemberItem@@@Z 00440910 f   UiTongManager.obj
 0001:0003fbc0       ?IsPlayerExist@KUiTongManager@@CAHPAUKPilgarlicItem@@PAV?$KLinkStruct@UKPilgarlicItem@@@@@Z 00440bc0 f   UiTongManager.obj
 0001:0003fc40       ?TongInfoArrive@KUiTongManager@@SAXPAUKUiPlayerRelationWithOther@@PAUKTongInfo@@@Z 00440c40 f   UiTongManager.obj
 0001:0003fcf0       ?SaveNewData@KUiTongManager@@CAXPAUKUiGameObjectWithName@@PAUKTongMemberItem@@@Z 00440cf0 f   UiTongManager.obj
 0001:0003feb0       ?SaveWholeData@KUiTongManager@@CAXH@Z 00440eb0 f   UiTongManager.obj
 0001:00040070       ?LoadData@KUiTongManager@@AAEXH@Z 00441070 f   UiTongManager.obj
 0001:000401a0       ?LoadDataHandler@KUiTongManager@@AAEHPAV?$KLinkStruct@UKPilgarlicItem@@@@PBD@Z 004411a0 f   UiTongManager.obj
 0001:00040510       ?RequestData@KUiTongManager@@CAXHH@Z 00441510 f   UiTongManager.obj
 0001:00040570       ?RemoveTempFile@KUiTongManager@@SAHXZ 00441570 f   UiTongManager.obj
 0001:000405c0       ?OnAction@KUiTongManager@@AAEXH@Z 004415c0 f   UiTongManager.obj
 0001:000406e0       ?OnRefresh@KUiTongManager@@AAEXXZ 004416e0 f   UiTongManager.obj
 0001:00040a70       ?ResponseResult@KUiTongManager@@SAXPAUKUiGameObjectWithName@@H@Z 00441a70 f   UiTongManager.obj
 0001:00040af0       ?ResponseLeave@KUiTongManager@@AAEXPAUKUiGameObjectWithName@@H@Z 00441af0 f   UiTongManager.obj
 0001:00040b10       ?ResponseDismiss@KUiTongManager@@AAEXPAUKUiGameObjectWithName@@H@Z 00441b10 f   UiTongManager.obj
 0001:00040c50       ?ResponseDemise@KUiTongManager@@AAEXPAUKUiGameObjectWithName@@H@Z 00441c50 f   UiTongManager.obj
 0001:00040c70       ?ResponseAssign@KUiTongManager@@AAEXPAUKUiGameObjectWithName@@H@Z 00441c70 f   UiTongManager.obj
 0001:00041050       ?ResponseApply@KUiTongManager@@AAEXPAUKUiGameObjectWithName@@H@Z 00442050 f   UiTongManager.obj
 0001:00041270       ?FindPlayer@KUiTongManager@@AAEPAV?$KLinkStruct@UKPilgarlicItem@@@@PAD@Z 00442270 f   UiTongManager.obj
 0001:000412c0       ?HandleFind@KUiTongManager@@AAEPAV?$KLinkStruct@UKPilgarlicItem@@@@PAV2@PAD@Z 004422c0 f   UiTongManager.obj
 0001:00041360       ?StringToHash@@YAKPBDH@Z   00442360 f   UiTongManager.obj
 0001:00041440       ??1?$KLinkStruct@UKPilgarlicItem@@@@UAE@XZ 00442440 f i UiTongManager.obj
 0001:00041510       ?AddItem@?$KLinkStruct@UKPilgarlicItem@@@@QAEPAUKPilgarlicItem@@U2@@Z 00442510 f i UiTongManager.obj
 0001:00041600       ?RemoveItem@?$KLinkStruct@UKPilgarlicItem@@@@QAEHXZ 00442600 f i UiTongManager.obj
 0001:000416c0       ?Clear@?$KLinkStruct@UKPilgarlicItem@@@@QAEXXZ 004426c0 f i UiTongManager.obj
 0001:00041780       ??_G?$KLinkStruct@UKPilgarlicItem@@@@UAEPAXI@Z 00442780 f i UiTongManager.obj
 0001:00041780       ??_E?$KLinkStruct@UKPilgarlicItem@@@@UAEPAXI@Z 00442780 f i UiTongManager.obj
 0001:00041860       ??0KUiTrembleItem@@QAE@XZ  00442860 f   UiTrembleItem.obj
 0001:00041970       ??_EKUiTrembleItem@@UAEPAXI@Z 00442970 f i UiTrembleItem.obj
 0001:00041970       ??_GKUiTrembleItem@@UAEPAXI@Z 00442970 f i UiTrembleItem.obj
 0001:00041990       ??_GKCanGetNumImage@@UAEPAXI@Z 00442990 f i UiTrembleItem.obj
 0001:00041990       ??_EKCanGetNumImage@@UAEPAXI@Z 00442990 f i UiTrembleItem.obj
 0001:000419b0       ??1KCanGetNumImage@@UAE@XZ 004429b0 f i UiTrembleItem.obj
 0001:000419c0       ??1KUiTrembleItem@@UAE@XZ  004429c0 f   UiTrembleItem.obj
 0001:00041ac0       ?OpenWindow@KUiTrembleItem@@SAPAV1@XZ 00442ac0 f   UiTrembleItem.obj
 0001:00041b70       ?GetIfVisible@KUiTrembleItem@@SAPAV1@XZ 00442b70 f   UiTrembleItem.obj
 0001:00041b90       ?CloseWindow@KUiTrembleItem@@SAX_N@Z 00442b90 f   UiTrembleItem.obj
 0001:00041bc0       ?Initialize@KUiTrembleItem@@AAEXXZ 00442bc0 f   UiTrembleItem.obj
 0001:00041ca0       ?LoadScheme@KUiTrembleItem@@SAXPBD@Z 00442ca0 f   UiTrembleItem.obj
 0001:00041e80       ?WndProc@KUiTrembleItem@@EAEHIIH@Z 00442e80 f   UiTrembleItem.obj
 0001:00041ed0       ?Breathe@KUiTrembleItem@@EAEXXZ 00442ed0 f   UiTrembleItem.obj
 0001:00041f50       ?PlayEffect@KUiTrembleItem@@AAEHXZ 00442f50 f   UiTrembleItem.obj
 0001:00041fa0       ?UpdateResult@KUiTrembleItem@@AAEXXZ 00442fa0 f   UiTrembleItem.obj
 0001:00041fb0       ?GetMaxFrame@KCanGetNumImage@@QAEHXZ 00442fb0 f   UiTrembleItem.obj
 0001:00041fc0       ?GetCurrentFrame@KCanGetNumImage@@QAEHXZ 00442fc0 f   UiTrembleItem.obj
 0001:00041fd0       ?UiSoundLoadSetting@@YA_NXZ 00442fd0 f   UiSoundSetting.obj
 0001:000420a0       ?UiSoundPlay@@YAXW4UI_SOUND_INDEX@@@Z 004430a0 f   UiSoundSetting.obj
 0001:000420d0       ?UiSoundPlay@@YAXPAD@Z     004430d0 f   UiSoundSetting.obj
 0001:000420f0       ?CoreDataChangedCallback@@YAXIIH@Z 004430f0 f   GameSpaceChangedNotify.obj
 0001:000428e0       ?CoreDataChanged@KClientCallback@@UAEXIIH@Z 004438e0 f   GameSpaceChangedNotify.obj
 0001:00042970       ?ClearBlackList@@YAXXZ     00443970 f   GameSpaceChangedNotify.obj
 0001:00042a30       ?CreateBlackListUnit@@YAXXZ 00443a30 f   GameSpaceChangedNotify.obj
 0001:00042a50       ?AddBlackList@@YAXPBD0@Z   00443a50 f   GameSpaceChangedNotify.obj
 0001:00042bf0       ?RemoveBlackList@@YAXPAD@Z 00443bf0 f   GameSpaceChangedNotify.obj
 0001:00042d20       ?IsInBlackName@@YA_NPAD@Z  00443d20 f   GameSpaceChangedNotify.obj
 0001:00042e40       ?SaveBlackListPrivateSetting@@YAHPAVKIniFile@@PBDH@Z 00443e40 f   GameSpaceChangedNotify.obj
 0001:00042f20       ?RenameUnitGroup@BlacklistNotify@@UAEHPBD00ABV?$list@V?$basic_string@DU?$char_traits@D@std@@V?$allocator@D@2@@std@@V?$allocator@V?$basic_string@DU?$char_traits@D@std@@V?$allocator@D@2@@std@@@2@@std@@@Z 00443f20 f   GameSpaceChangedNotify.obj
 0001:00043020       ?MoveUnitGroup@BlacklistNotify@@UAEHPBD00ABV?$list@V?$basic_string@DU?$char_traits@D@std@@V?$allocator@D@2@@std@@V?$allocator@V?$basic_string@DU?$char_traits@D@std@@V?$allocator@D@2@@std@@@2@@std@@@Z 00444020 f   GameSpaceChangedNotify.obj
 0001:00043120       ?DeleteUnitGroup@BlacklistNotify@@UAEHPBD0ABV?$list@V?$basic_string@DU?$char_traits@D@std@@V?$allocator@D@2@@std@@V?$allocator@V?$basic_string@DU?$char_traits@D@std@@V?$allocator@D@2@@std@@@2@@std@@@Z 00444120 f   GameSpaceChangedNotify.obj
 0001:00043220       ?DeleteUnitMember@BlacklistNotify@@UAEHPBD0@Z 00444220 f   GameSpaceChangedNotify.obj
 0001:00043250       ?MoveUnitMember@BlacklistNotify@@UAEHPBD00@Z 00444250 f   GameSpaceChangedNotify.obj
 0001:00043440       ?SendNotifyGroupFriend@BlacklistNotify@@QAEXPBDABV?$basic_string@DU?$char_traits@D@std@@V?$allocator@D@2@@std@@ABV?$list@V?$basic_string@DU?$char_traits@D@std@@V?$allocator@D@2@@std@@V?$allocator@V?$basic_string@DU?$char_traits@D@std@@V?$allocator@D@2@@std@@@2@@3@@Z 00444440 f   GameSpaceChangedNotify.obj
 0001:00043590       ?SendNotifyDeleteFriend@BlacklistNotify@@QAEXPBD0@Z 00444590 f   GameSpaceChangedNotify.obj
 0001:000435e0       ?ChannelMessageArrival@KClientCallback@@UAEXKPADPBDG_N@Z 004445e0 f   GameSpaceChangedNotify.obj
 0001:00043730       ?MSNMessageArrival@KClientCallback@@UAEXPAD0PBDG_N@Z 00444730 f   GameSpaceChangedNotify.obj
 0001:000437b0       ?NotifyChannelID@KClientCallback@@UAEXPADKE@Z 004447b0 f   GameSpaceChangedNotify.obj
 0001:000437d0       ?FriendInvite@KClientCallback@@UAEXPAD@Z 004447d0 f   GameSpaceChangedNotify.obj
 0001:00043880       ?AddFriend@KClientCallback@@UAEXPADE@Z 00444880 f   GameSpaceChangedNotify.obj
 0001:00043a10       ?FriendStatus@KClientCallback@@UAEXPADE@Z 00444a10 f   GameSpaceChangedNotify.obj
 0001:00043aa0       ?FriendInfo@KClientCallback@@UAEXPAD00E@Z 00444aa0 f   GameSpaceChangedNotify.obj
 0001:00043b20       ?AddPeople@KClientCallback@@UAEXPAD0@Z 00444b20 f   GameSpaceChangedNotify.obj
 0001:00043b80       ?LevelTips@@YAXH@Z         00444b80 f   GameSpaceChangedNotify.obj
 0001:00043c60       ?FactionTips@@YAXH@Z       00444c60 f   GameSpaceChangedNotify.obj
 0001:00043d50       ?GameWorldTips@@YAXIH@Z    00444d50 f   GameSpaceChangedNotify.obj
 0001:00043d80       ??0?$map@V?$basic_string@DU?$char_traits@D@std@@V?$allocator@D@2@@std@@V12@U?$less@V?$basic_string@DU?$char_traits@D@std@@V?$allocator@D@2@@std@@@2@V?$allocator@V?$basic_string@DU?$char_traits@D@std@@V?$allocator@D@2@@std@@@2@@std@@QAE@ABU?$less@V?$basic_string@DU?$char_traits@D@std@@V?$allocator@D@2@@std@@@1@ABV?$allocator@V?$basic_string@DU?$char_traits@D@std@@V?$allocator@D@2@@std@@@1@@Z 00444d80 f i GameSpaceChangedNotify.obj
 0001:00043e30       ??A?$map@V?$basic_string@DU?$char_traits@D@std@@V?$allocator@D@2@@std@@V12@U?$less@V?$basic_string@DU?$char_traits@D@std@@V?$allocator@D@2@@std@@@2@V?$allocator@V?$basic_string@DU?$char_traits@D@std@@V?$allocator@D@2@@std@@@2@@std@@QAEAAV?$basic_string@DU?$char_traits@D@std@@V?$allocator@D@2@@1@ABV21@@Z 00444e30 f i GameSpaceChangedNotify.obj
 0001:00043f40       ?insert@?$_Tree@V?$basic_string@DU?$char_traits@D@std@@V?$allocator@D@2@@std@@U?$pair@$$CBV?$basic_string@DU?$char_traits@D@std@@V?$allocator@D@2@@std@@V12@@2@U_Kfn@?$map@V?$basic_string@DU?$char_traits@D@std@@V?$allocator@D@2@@std@@V12@U?$less@V?$basic_string@DU?$char_traits@D@std@@V?$allocator@D@2@@std@@@2@V?$allocator@V?$basic_string@DU?$char_traits@D@std@@V?$allocator@D@2@@std@@@2@@2@U?$less@V?$basic_string@DU?$char_traits@D@std@@V?$allocator@D@2@@std@@@2@V?$allocator@V?$basic_string@DU?$char_traits@D@std@@V?$allocator@D@2@@std@@@2@@std@@QAE?AU?$pair@Viterator@?$_Tree@V?$basic_string@DU?$char_traits@D@std@@V?$allocator@D@2@@std@@U?$pair@$$CBV?$basic_string@DU?$char_traits@D@std@@V?$allocator@D@2@@std@@V12@@2@U_Kfn@?$map@V?$basic_string@DU?$char_traits@D@std@@V?$allocator@D@2@@std@@V12@U?$less@V?$basic_string@DU?$char_traits@D@std@@V?$allocator@D@2@@std@@@2@V?$allocator@V?$basic_string@DU?$char_traits@D@std@@V?$allocator@D@2@@std@@@2@@2@U?$less@V?$basic_string@DU?$char_traits@D@std@@V?$allocator@D@2@@std@@@2@V?$allocator@V?$basic_string@DU?$char_traits@D@std@@V?$allocator@D@2@@std@@@2@@std@@_N@2@ABU?$pair@$$CBV?$basic_string@DU?$char_traits@D@std@@V?$allocator@D@2@@std@@V12@@2@@Z 00444f40 f i GameSpaceChangedNotify.obj
 0001:000441d0       ?_Lrotate@?$_Tree@V?$basic_string@DU?$char_traits@D@std@@V?$allocator@D@2@@std@@U?$pair@$$CBV?$basic_string@DU?$char_traits@D@std@@V?$allocator@D@2@@std@@V12@@2@U_Kfn@?$map@V?$basic_string@DU?$char_traits@D@std@@V?$allocator@D@2@@std@@V12@U?$less@V?$basic_string@DU?$char_traits@D@std@@V?$allocator@D@2@@std@@@2@V?$allocator@V?$basic_string@DU?$char_traits@D@std@@V?$allocator@D@2@@std@@@2@@2@U?$less@V?$basic_string@DU?$char_traits@D@std@@V?$allocator@D@2@@std@@@2@V?$allocator@V?$basic_string@DU?$char_traits@D@std@@V?$allocator@D@2@@std@@@2@@std@@IAEXPAU_Node@12@@Z 004451d0 f i GameSpaceChangedNotify.obj
 0001:00044230       ?_Rrotate@?$_Tree@V?$basic_string@DU?$char_traits@D@std@@V?$allocator@D@2@@std@@U?$pair@$$CBV?$basic_string@DU?$char_traits@D@std@@V?$allocator@D@2@@std@@V12@@2@U_Kfn@?$map@V?$basic_string@DU?$char_traits@D@std@@V?$allocator@D@2@@std@@V12@U?$less@V?$basic_string@DU?$char_traits@D@std@@V?$allocator@D@2@@std@@@2@V?$allocator@V?$basic_string@DU?$char_traits@D@std@@V?$allocator@D@2@@std@@@2@@2@U?$less@V?$basic_string@DU?$char_traits@D@std@@V?$allocator@D@2@@std@@@2@V?$allocator@V?$basic_string@DU?$char_traits@D@std@@V?$allocator@D@2@@std@@@2@@std@@IAEXPAU_Node@12@@Z 00445230 f i GameSpaceChangedNotify.obj
 0001:00044290       ?_Buynode@?$_Tree@V?$basic_string@DU?$char_traits@D@std@@V?$allocator@D@2@@std@@U?$pair@$$CBV?$basic_string@DU?$char_traits@D@std@@V?$allocator@D@2@@std@@V12@@2@U_Kfn@?$map@V?$basic_string@DU?$char_traits@D@std@@V?$allocator@D@2@@std@@V12@U?$less@V?$basic_string@DU?$char_traits@D@std@@V?$allocator@D@2@@std@@@2@V?$allocator@V?$basic_string@DU?$char_traits@D@std@@V?$allocator@D@2@@std@@@2@@2@U?$less@V?$basic_string@DU?$char_traits@D@std@@V?$allocator@D@2@@std@@@2@V?$allocator@V?$basic_string@DU?$char_traits@D@std@@V?$allocator@D@2@@std@@@2@@std@@IAEPAU_Node@12@PAU312@W4_Redbl@12@@Z 00445290 f i GameSpaceChangedNotify.obj
 0001:00044360       ??1?$map@V?$basic_string@DU?$char_traits@D@std@@V?$allocator@D@2@@std@@UShortFuncInfo@@Ustring_iless@@V?$allocator@UShortFuncInfo@@@2@@std@@QAE@XZ 00445360 f i ShortcutKey.obj
 0001:00044460       ?HandleKeyInput@KShortcutKeyCentre@@SAHIH@Z 00445460 f   ShortcutKey.obj
 0001:000444b0       ?HandleMouseInput@KShortcutKeyCentre@@SAHIHHH@Z 004454b0 f   ShortcutKey.obj
 0001:00044520       ?Enable@KShortcutKeyCentre@@SAX_N@Z 00445520 f   ShortcutKey.obj
 0001:00044530       ?FindWindowA@@YAHPBD@Z     00445530 f   ShortcutKey.obj
 0001:00044570       ?LuaOpenWindow@@YAHPAUlua_State@@@Z 00445570 f   ShortcutKey.obj
 0001:000447b0       ?FindWndWindow@@YAPAVKWndWindow@@PBD@Z 004457b0 f   ShortcutKey.obj
 0001:00044830       ?LuaMoveWindow@@YAHPAUlua_State@@@Z 00445830 f   ShortcutKey.obj
 0001:000448a0       ?LuaSizeWindow@@YAHPAUlua_State@@@Z 004458a0 f   ShortcutKey.obj
 0001:00044910       ?LuaShowWindow@@YAHPAUlua_State@@@Z 00445910 f   ShortcutKey.obj
 0001:00044980       ?LuaFocusWindow@@YAHPAUlua_State@@@Z 00445980 f   ShortcutKey.obj
 0001:000449d0       ?LuaShortcutSkill@@YAHPAUlua_State@@@Z 004459d0 f   ShortcutKey.obj
 0001:00044a00       ?LuaDirectShortcutSkill@@YAHPAUlua_State@@@Z 00445a00 f   ShortcutKey.obj
 0001:00044a30       ?LuaShortcutUseItem@@YAHPAUlua_State@@@Z 00445a30 f   ShortcutKey.obj
 0001:00044a60       ?FindStatus@@YAHPBD@Z      00445a60 f   ShortcutKey.obj
 0001:00044aa0       ?LuaSwitchStatus@@YAHPAUlua_State@@@Z 00445aa0 f   ShortcutKey.obj
 0001:00044c80       ?LuaSwitchChannel@@YAHPAUlua_State@@@Z 00445c80 f   ShortcutKey.obj
 0001:00044cc0       ?LuaRegisterEvent@@YAHPAUlua_State@@@Z 00445cc0 f   ShortcutKey.obj
 0001:00044d10       ?LuaUnregisterEvent@@YAHPAUlua_State@@@Z 00445d10 f   ShortcutKey.obj
 0001:00044d60       ?LuaSendEvent@@YAHPAUlua_State@@@Z 00445d60 f   ShortcutKey.obj
 0001:00044de0       ?LuaGetAppStatus@@YAHPAUlua_State@@@Z 00445de0 f   ShortcutKey.obj
 0001:00044ea0       ?DescHotKey@hotkey_str@@YA?AV?$basic_string@DU?$char_traits@D@std@@V?$allocator@D@2@@std@@K@Z 00445ea0 f   ShortcutKey.obj
 0001:000451f0       ?ParseHotKey@hotkey_str@@YAKABV?$basic_string@DU?$char_traits@D@std@@V?$allocator@D@2@@std@@@Z 004461f0 f   ShortcutKey.obj
 0001:00045420       ??0PATTERNMAP@?1??ParseHotKey@hotkey_str@@YAKABV?$basic_string@DU?$char_traits@D@std@@V?$allocator@D@2@@std@@@Z@QAE@XZ 00446420 f   ShortcutKey.obj
 0001:00046870       ??1PATTERNMAP@?1??ParseHotKey@hotkey_str@@YAKABV?$basic_string@DU?$char_traits@D@std@@V?$allocator@D@2@@std@@@Z@QAE@XZ 00447870 f i ShortcutKey.obj
 0001:00046970       ??1?$map@V?$basic_string@DU?$char_traits@D@std@@V?$allocator@D@2@@std@@U?$pair@KK@2@Ustring_iless@@V?$allocator@U?$pair@KK@std@@@2@@std@@QAE@XZ 00447970 f i ShortcutKey.obj
 0001:00046a70       ?LuaAddCommand@@YAHPAUlua_State@@@Z 00447a70 f   ShortcutKey.obj
 0001:00046be0       ?LuaRemoveCommand@@YAHPAUlua_State@@@Z 00447be0 f   ShortcutKey.obj
 0001:00046d60       ?LuaMakeFriend@@YAHPAUlua_State@@@Z 00447d60 f   ShortcutKey.obj
 0001:00046dc0       ?LuaCreateTeam@@YAHPAUlua_State@@@Z 00447dc0 f   ShortcutKey.obj
 0001:00046de0       ?LuaJoinTeam@@YAHPAUlua_State@@@Z 00447de0 f   ShortcutKey.obj
 0001:00046e50       ?LuaInviteTeam@@YAHPAUlua_State@@@Z 00447e50 f   ShortcutKey.obj
 0001:00046ec0       ?LuaTrade@@YAHPAUlua_State@@@Z 00447ec0 f   ShortcutKey.obj
 0001:00046f30       ?LuaRevenge@@YAHPAUlua_State@@@Z 00447f30 f   ShortcutKey.obj
 0001:00046fa0       ?LuaFollow@@YAHPAUlua_State@@@Z 00447fa0 f   ShortcutKey.obj
 0001:00047010       ?LuaViewItem@@YAHPAUlua_State@@@Z 00448010 f   ShortcutKey.obj
 0001:00047080       ?LuaPrintScreen@@YAHPAUlua_State@@@Z 00448080 f   ShortcutKey.obj
 0001:00047090       ?LuaClearMessage@@YAHPAUlua_State@@@Z 00448090 f   ShortcutKey.obj
 0001:000470a0       ?LuaSay@@YAHPAUlua_State@@@Z 004480a0 f   ShortcutKey.obj
 0001:00047160       ?LuaChat@@YAHPAUlua_State@@@Z 00448160 f   ShortcutKey.obj
 0001:00047230       ?LuaRegisterFunctionAlias@@YAHPAUlua_State@@@Z 00448230 f   ShortcutKey.obj
 0001:000474c0       ?LuaSayPhrase@@YAHPAUlua_State@@@Z 004484c0 f   ShortcutKey.obj
 0001:000475c0       ?LuaSayEmote@@YAHPAUlua_State@@@Z 004485c0 f   ShortcutKey.obj
 0001:00047610       ?LuaGetCurrentChannelName@@YAHPAUlua_State@@@Z 00448610 f   ShortcutKey.obj
 0001:00047660       ?LuaGetRecentPlayerName@@YAHPAUlua_State@@@Z 00448660 f   ShortcutKey.obj
 0001:000476b0       ?LuaConvertEmotes@@YAHPAUlua_State@@@Z 004486b0 f   ShortcutKey.obj
 0001:000476c0       ?LuaSetEmote@@YAHPAUlua_State@@@Z 004486c0 f   ShortcutKey.obj
 0001:00047750       ?LuaSetScreenShotFolder@@YAHPAUlua_State@@@Z 00448750 f   ShortcutKey.obj
 0001:000477f0       ?LuaSetPhrase@@YAHPAUlua_State@@@Z 004487f0 f   ShortcutKey.obj
 0001:00047860       ?LuaExitGame@@YAHPAUlua_State@@@Z 00448860 f   ShortcutKey.obj
 0001:000478b0       ?LuaExit@@YAHPAUlua_State@@@Z 004488b0 f   ShortcutKey.obj
 0001:000478c0       ?LuaSet3D@@YAHPAUlua_State@@@Z 004488c0 f   ShortcutKey.obj
 0001:00047a40       ?LuaSetFullWindow@@YAHPAUlua_State@@@Z 00448a40 f   ShortcutKey.obj
 0001:00047bc0       ?LuaMoveTo@@YAHPAUlua_State@@@Z 00448bc0 f   ShortcutKey.obj
 0001:00047c40       ?LuaTurnTo@@YAHPAUlua_State@@@Z 00448c40 f   ShortcutKey.obj
 0001:00047c90       ?Mouse_Action@@YAHPAUlua_State@@@Z 00448c90 f   ShortcutKey.obj
 0001:00047de0       ?Mouse_Force0@@YAHPAUlua_State@@@Z 00448de0 f   ShortcutKey.obj
 0001:00047e60       ?Mouse_Force1@@YAHPAUlua_State@@@Z 00448e60 f   ShortcutKey.obj
 0001:00047ee0       ?Mouse_MoveTo@@YAHPAUlua_State@@@Z 00448ee0 f   ShortcutKey.obj
 0001:00047f50       ?Mouse_Menu@@YAHPAUlua_State@@@Z 00448f50 f   ShortcutKey.obj
 0001:00047fc0       ?Mouse_Emote_Menu@@YAHPAUlua_State@@@Z 00448fc0 f   ShortcutKey.obj
 0001:00048030       ?Mouse_Say@@YAHPAUlua_State@@@Z 00449030 f   ShortcutKey.obj
 0001:00048090       ?Mouse_MakeFriend@@YAHPAUlua_State@@@Z 00449090 f   ShortcutKey.obj
 0001:000480f0       ?Mouse_JoinTeam@@YAHPAUlua_State@@@Z 004490f0 f   ShortcutKey.obj
 0001:00048150       ?Mouse_InviteTeam@@YAHPAUlua_State@@@Z 00449150 f   ShortcutKey.obj
 0001:000481b0       ?Mouse_Trade@@YAHPAUlua_State@@@Z 004491b0 f   ShortcutKey.obj
 0001:00048210       ?Mouse_Revenge@@YAHPAUlua_State@@@Z 00449210 f   ShortcutKey.obj
 0001:00048270       ?Mouse_Follow@@YAHPAUlua_State@@@Z 00449270 f   ShortcutKey.obj
 0001:000482d0       ?Mouse_ViewItem@@YAHPAUlua_State@@@Z 004492d0 f   ShortcutKey.obj
 0001:00048330       ?Mouse_BlackList@@YAHPAUlua_State@@@Z 00449330 f   ShortcutKey.obj
 0001:00048390       ?LuaThrowAwayItem@@YAHPAUlua_State@@@Z 00449390 f   ShortcutKey.obj
 0001:000483b0       ?LuaSetChatFontSzie@@YAHPAUlua_State@@@Z 004493b0 f   ShortcutKey.obj
 0001:000483e0       ?LuaSetChannelTextColor@@YAHPAUlua_State@@@Z 004493e0 f   ShortcutKey.obj
 0001:00048450       ?LuaSetMeTextColor@@YAHPAUlua_State@@@Z 00449450 f   ShortcutKey.obj
 0001:000484b0       ?LuaSetFriendTextColor@@YAHPAUlua_State@@@Z 004494b0 f   ShortcutKey.obj
 0001:00048510       ?LuaSetStrangerTextColor@@YAHPAUlua_State@@@Z 00449510 f   ShortcutKey.obj
 0001:00048570       ?LuaDebug@@YAHPAUlua_State@@@Z 00449570 f   ShortcutKey.obj
 0001:000485c0       ?LuaAddBlackList@@YAHPAUlua_State@@@Z 004495c0 f   ShortcutKey.obj
 0001:000486f0       ?LuaRemoveBlackList@@YAHPAUlua_State@@@Z 004496f0 f   ShortcutKey.obj
 0001:00048730       ?LuaCreateAddinUnit@@YAHPAUlua_State@@@Z 00449730 f   ShortcutKey.obj
 0001:00048760       ?LuaDeleteAddinUnit@@YAHPAUlua_State@@@Z 00449760 f   ShortcutKey.obj
 0001:00048790       ?LuaCreateUnitGroup@@YAHPAUlua_State@@@Z 00449790 f   ShortcutKey.obj
 0001:000487e0       ?LuaRenameUnitGroup@@YAHPAUlua_State@@@Z 004497e0 f   ShortcutKey.obj
 0001:00048840       ?LuaMoveUnitGroup@@YAHPAUlua_State@@@Z 00449840 f   ShortcutKey.obj
 0001:000488a0       ?LuaDeleteUnitGroup@@YAHPAUlua_State@@@Z 004498a0 f   ShortcutKey.obj
 0001:000488f0       ?LuaMoveUnitMember@@YAHPAUlua_State@@@Z 004498f0 f   ShortcutKey.obj
 0001:00048950       ?LuaCreateAddinUnitMember@@YAHPAUlua_State@@@Z 00449950 f   ShortcutKey.obj
 0001:000489b0       ?LuaDeleteAddinUnitMember@@YAHPAUlua_State@@@Z 004499b0 f   ShortcutKey.obj
 0001:00048a00       ?LuaSetAddinUnitMemberStatus@@YAHPAUlua_State@@@Z 00449a00 f   ShortcutKey.obj
 0001:00048a70       ?LuaShowSomeoneMessage@@YAHPAUlua_State@@@Z 00449a70 f   ShortcutKey.obj
 0001:00048af0       ?g_GetGameScriptFunNum@@YAHXZ 00449af0 f   ShortcutKey.obj
 0001:00048b00       ?InitScript@KShortcutKeyCentre@@SAHXZ 00449b00 f   ShortcutKey.obj
 0001:00048b40       ?LoadScript@KShortcutKeyCentre@@SAHPAD@Z 00449b40 f   ShortcutKey.obj
 0001:00048b60       ?UninitScript@KShortcutKeyCentre@@SAHXZ 00449b60 f   ShortcutKey.obj
 0001:00048b70       ?ClearScript@KShortcutKeyCentre@@SAHXZ 00449b70 f   ShortcutKey.obj
 0001:00048c60       ?LoadPrivateSetting@KShortcutKeyCentre@@SAHPAVKIniFile@@@Z 00449c60 f   ShortcutKey.obj
 0001:00048d70       ?SavePrivateSetting@KShortcutKeyCentre@@SAHPAVKIniFile@@@Z 00449d70 f   ShortcutKey.obj
 0001:00049a80       ?Compile@@YAIPBDPADI@Z     0044aa80 f   ShortcutKey.obj
 0001:00049df0       ?TranslateExcuteScript@KShortcutKeyCentre@@SAHPBD@Z 0044adf0 f   ShortcutKey.obj
 0001:00049e80       ?ExcuteScript@KShortcutKeyCentre@@SAHPBD@Z 0044ae80 f   ShortcutKey.obj
 0001:00049ed0       ?ExcuteHWNDScript@KShortcutKeyCentre@@SAHPBD@Z 0044aed0 f   ShortcutKey.obj
 0001:00049f10       ?AddCommand@KShortcutKeyCentre@@SAHPAUCOMMAND_SETTING@@@Z 0044af10 f   ShortcutKey.obj
 0001:00049ff0       ?RemoveCommand@KShortcutKeyCentre@@SAHH@Z 0044aff0 f   ShortcutKey.obj
 0001:0004a050       ?RemoveCommandAll@KShortcutKeyCentre@@SAXXZ 0044b050 f   ShortcutKey.obj
 0001:0004a060       ?FindCommand@KShortcutKeyCentre@@SAHK@Z 0044b060 f   ShortcutKey.obj
 0001:0004a0a0       ?FindCommand@KShortcutKeyCentre@@SAHPBD@Z 0044b0a0 f   ShortcutKey.obj
 0001:0004a100       ?FindCommandByScript@KShortcutKeyCentre@@SAHPBD@Z 0044b100 f   ShortcutKey.obj
 0001:0004a160       ?GetCommandKey@KShortcutKeyCentre@@SAKH@Z 0044b160 f   ShortcutKey.obj
 0001:0004a190       ?GetKeyName@KShortcutKeyCentre@@SAPBDK@Z 0044b190 f   ShortcutKey.obj
 0001:0004a2b0       ?RegisterFunctionAlias@KShortcutKeyCentre@@SAHPBD0HABV?$list@V?$basic_string@DU?$char_traits@D@std@@V?$allocator@D@2@@std@@V?$allocator@V?$basic_string@DU?$char_traits@D@std@@V?$allocator@D@2@@std@@@2@@std@@@Z 0044b2b0 f   ShortcutKey.obj
 0001:0004a610       ??0ShortFuncInfo@@QAE@XZ   0044b610 f i ShortcutKey.obj
 0001:0004a680       ??1ShortFuncInfo@@QAE@XZ   0044b680 f i ShortcutKey.obj
 0001:0004a720       ??0?$list@V?$basic_string@DU?$char_traits@D@std@@V?$allocator@D@2@@std@@V?$allocator@V?$basic_string@DU?$char_traits@D@std@@V?$allocator@D@2@@std@@@2@@std@@QAE@ABV?$allocator@V?$basic_string@DU?$char_traits@D@std@@V?$allocator@D@2@@std@@@1@@Z 0044b720 f i ShortcutKey.obj
 0001:0004a750       ??4?$list@V?$basic_string@DU?$char_traits@D@std@@V?$allocator@D@2@@std@@V?$allocator@V?$basic_string@DU?$char_traits@D@std@@V?$allocator@D@2@@std@@@2@@std@@QAEAAV01@ABV01@@Z 0044b750 f i ShortcutKey.obj
 0001:0004a850       ??0?$map@V?$basic_string@DU?$char_traits@D@std@@V?$allocator@D@2@@std@@UShortFuncInfo@@Ustring_iless@@V?$allocator@UShortFuncInfo@@@2@@std@@QAE@ABUstring_iless@@ABV?$allocator@UShortFuncInfo@@@1@@Z 0044b850 f i ShortcutKey.obj
 0001:0004a900       ??1?$pair@$$CBV?$basic_string@DU?$char_traits@D@std@@V?$allocator@D@2@@std@@UShortFuncInfo@@@std@@QAE@XZ 0044b900 f i ShortcutKey.obj
 0001:0004a9f0       ??1?$pair@$$CBV?$basic_string@DU?$char_traits@D@std@@V?$allocator@D@2@@std@@U?$pair@KK@2@@std@@QAE@XZ 0044b9f0 f i ShortcutKey.obj
 0001:0004aa30       ?begin@?$list@V?$basic_string@DU?$char_traits@D@std@@V?$allocator@D@2@@std@@V?$allocator@V?$basic_string@DU?$char_traits@D@std@@V?$allocator@D@2@@std@@@2@@std@@QBE?AVconst_iterator@12@XZ 0044ba30 f i ShortcutKey.obj
 0001:0004aa40       ?end@?$list@V?$basic_string@DU?$char_traits@D@std@@V?$allocator@D@2@@std@@V?$allocator@V?$basic_string@DU?$char_traits@D@std@@V?$allocator@D@2@@std@@@2@@std@@QBE?AVconst_iterator@12@XZ 0044ba40 f i ShortcutKey.obj
 0001:0004aa50       ?insert@?$list@V?$basic_string@DU?$char_traits@D@std@@V?$allocator@D@2@@std@@V?$allocator@V?$basic_string@DU?$char_traits@D@std@@V?$allocator@D@2@@std@@@2@@std@@QAEXViterator@12@Vconst_iterator@12@1@Z 0044ba50 f i ShortcutKey.obj
 0001:0004aac0       ?begin@?$_Tree@V?$basic_string@DU?$char_traits@D@std@@V?$allocator@D@2@@std@@U?$pair@$$CBV?$basic_string@DU?$char_traits@D@std@@V?$allocator@D@2@@std@@UShortFuncInfo@@@2@U_Kfn@?$map@V?$basic_string@DU?$char_traits@D@std@@V?$allocator@D@2@@std@@UShortFuncInfo@@Ustring_iless@@V?$allocator@UShortFuncInfo@@@2@@2@Ustring_iless@@V?$allocator@UShortFuncInfo@@@2@@std@@QAE?AViterator@12@XZ 0044bac0 f i ShortcutKey.obj
 0001:0004aad0       ?find@?$_Tree@V?$basic_string@DU?$char_traits@D@std@@V?$allocator@D@2@@std@@U?$pair@$$CBV?$basic_string@DU?$char_traits@D@std@@V?$allocator@D@2@@std@@UShortFuncInfo@@@2@U_Kfn@?$map@V?$basic_string@DU?$char_traits@D@std@@V?$allocator@D@2@@std@@UShortFuncInfo@@Ustring_iless@@V?$allocator@UShortFuncInfo@@@2@@2@Ustring_iless@@V?$allocator@UShortFuncInfo@@@2@@std@@QAE?AViterator@12@ABV?$basic_string@DU?$char_traits@D@std@@V?$allocator@D@2@@2@@Z 0044bad0 f i ShortcutKey.obj
 0001:0004ab90       ??0?$pair@$$CBV?$basic_string@DU?$char_traits@D@std@@V?$allocator@D@2@@std@@UShortFuncInfo@@@std@@QAE@ABV?$basic_string@DU?$char_traits@D@std@@V?$allocator@D@2@@1@ABUShortFuncInfo@@@Z 0044bb90 f i ShortcutKey.obj
 0001:0004ad10       ?begin@?$_Tree@V?$basic_string@DU?$char_traits@D@std@@V?$allocator@D@2@@std@@U?$pair@$$CBV?$basic_string@DU?$char_traits@D@std@@V?$allocator@D@2@@std@@U?$pair@KK@2@@2@U_Kfn@?$map@V?$basic_string@DU?$char_traits@D@std@@V?$allocator@D@2@@std@@U?$pair@KK@2@Ustring_iless@@V?$allocator@U?$pair@KK@std@@@2@@2@Ustring_iless@@V?$allocator@U?$pair@KK@std@@@2@@std@@QAE?AViterator@12@XZ 0044bd10 f i ShortcutKey.obj
 0001:0004ad20       ?end@?$_Tree@V?$basic_string@DU?$char_traits@D@std@@V?$allocator@D@2@@std@@U?$pair@$$CBV?$basic_string@DU?$char_traits@D@std@@V?$allocator@D@2@@std@@U?$pair@KK@2@@2@U_Kfn@?$map@V?$basic_string@DU?$char_traits@D@std@@V?$allocator@D@2@@std@@U?$pair@KK@2@Ustring_iless@@V?$allocator@U?$pair@KK@std@@@2@@2@Ustring_iless@@V?$allocator@U?$pair@KK@std@@@2@@std@@QBE?AVconst_iterator@12@XZ 0044bd20 f i ShortcutKey.obj
 0001:0004ad30       ?insert@?$_Tree@V?$basic_string@DU?$char_traits@D@std@@V?$allocator@D@2@@std@@U?$pair@$$CBV?$basic_string@DU?$char_traits@D@std@@V?$allocator@D@2@@std@@UShortFuncInfo@@@2@U_Kfn@?$map@V?$basic_string@DU?$char_traits@D@std@@V?$allocator@D@2@@std@@UShortFuncInfo@@Ustring_iless@@V?$allocator@UShortFuncInfo@@@2@@2@Ustring_iless@@V?$allocator@UShortFuncInfo@@@2@@std@@QAE?AU?$pair@Viterator@?$_Tree@V?$basic_string@DU?$char_traits@D@std@@V?$allocator@D@2@@std@@U?$pair@$$CBV?$basic_string@DU?$char_traits@D@std@@V?$allocator@D@2@@std@@UShortFuncInfo@@@2@U_Kfn@?$map@V?$basic_string@DU?$char_traits@D@std@@V?$allocator@D@2@@std@@UShortFuncInfo@@Ustring_iless@@V?$allocator@UShortFuncInfo@@@2@@2@Ustring_iless@@V?$allocator@UShortFuncInfo@@@2@@std@@_N@2@ABU?$pair@$$CBV?$basic_string@DU?$char_traits@D@std@@V?$allocator@D@2@@std@@UShortFuncInfo@@@2@@Z 0044bd30 f i ShortcutKey.obj
 0001:0004aff0       ?erase@?$_Tree@V?$basic_string@DU?$char_traits@D@std@@V?$allocator@D@2@@std@@U?$pair@$$CBV?$basic_string@DU?$char_traits@D@std@@V?$allocator@D@2@@std@@UShortFuncInfo@@@2@U_Kfn@?$map@V?$basic_string@DU?$char_traits@D@std@@V?$allocator@D@2@@std@@UShortFuncInfo@@Ustring_iless@@V?$allocator@UShortFuncInfo@@@2@@2@Ustring_iless@@V?$allocator@UShortFuncInfo@@@2@@std@@QAE?AViterator@12@V312@@Z 0044bff0 f i ShortcutKey.obj
 0001:0004b4f0       ??0const_iterator@?$list@V?$basic_string@DU?$char_traits@D@std@@V?$allocator@D@2@@std@@V?$allocator@V?$basic_string@DU?$char_traits@D@std@@V?$allocator@D@2@@std@@@2@@std@@QAE@PAU_Node@12@@Z 0044c4f0 f i ShortcutKey.obj
 0001:0004b500       ?_Erase@?$_Tree@V?$basic_string@DU?$char_traits@D@std@@V?$allocator@D@2@@std@@U?$pair@$$CBV?$basic_string@DU?$char_traits@D@std@@V?$allocator@D@2@@std@@UShortFuncInfo@@@2@U_Kfn@?$map@V?$basic_string@DU?$char_traits@D@std@@V?$allocator@D@2@@std@@UShortFuncInfo@@Ustring_iless@@V?$allocator@UShortFuncInfo@@@2@@2@Ustring_iless@@V?$allocator@UShortFuncInfo@@@2@@std@@IAEXPAU_Node@12@@Z 0044c500 f i ShortcutKey.obj
 0001:0004b550       ?_Inc@const_iterator@?$_Tree@V?$basic_string@DU?$char_traits@D@std@@V?$allocator@D@2@@std@@U?$pair@$$CBV?$basic_string@DU?$char_traits@D@std@@V?$allocator@D@2@@std@@UShortFuncInfo@@@2@U_Kfn@?$map@V?$basic_string@DU?$char_traits@D@std@@V?$allocator@D@2@@std@@UShortFuncInfo@@Ustring_iless@@V?$allocator@UShortFuncInfo@@@2@@2@Ustring_iless@@V?$allocator@UShortFuncInfo@@@2@@std@@QAEXXZ 0044c550 f i ShortcutKey.obj
 0001:0004b5a0       ?erase@?$_Tree@V?$basic_string@DU?$char_traits@D@std@@V?$allocator@D@2@@std@@U?$pair@$$CBV?$basic_string@DU?$char_traits@D@std@@V?$allocator@D@2@@std@@U?$pair@KK@2@@2@U_Kfn@?$map@V?$basic_string@DU?$char_traits@D@std@@V?$allocator@D@2@@std@@U?$pair@KK@2@Ustring_iless@@V?$allocator@U?$pair@KK@std@@@2@@2@Ustring_iless@@V?$allocator@U?$pair@KK@std@@@2@@std@@QAE?AViterator@12@V312@@Z 0044c5a0 f i ShortcutKey.obj
 0001:0004b9d0       ?lower_bound@?$_Tree@V?$basic_string@DU?$char_traits@D@std@@V?$allocator@D@2@@std@@U?$pair@$$CBV?$basic_string@DU?$char_traits@D@std@@V?$allocator@D@2@@std@@U?$pair@KK@2@@2@U_Kfn@?$map@V?$basic_string@DU?$char_traits@D@std@@V?$allocator@D@2@@std@@U?$pair@KK@2@Ustring_iless@@V?$allocator@U?$pair@KK@std@@@2@@2@Ustring_iless@@V?$allocator@U?$pair@KK@std@@@2@@std@@QBE?AVconst_iterator@12@ABV?$basic_string@DU?$char_traits@D@std@@V?$allocator@D@2@@2@@Z 0044c9d0 f i ShortcutKey.obj
 0001:0004ba50       ?_Erase@?$_Tree@V?$basic_string@DU?$char_traits@D@std@@V?$allocator@D@2@@std@@U?$pair@$$CBV?$basic_string@DU?$char_traits@D@std@@V?$allocator@D@2@@std@@U?$pair@KK@2@@2@U_Kfn@?$map@V?$basic_string@DU?$char_traits@D@std@@V?$allocator@D@2@@std@@U?$pair@KK@2@Ustring_iless@@V?$allocator@U?$pair@KK@std@@@2@@2@Ustring_iless@@V?$allocator@U?$pair@KK@std@@@2@@std@@IAEXPAU_Node@12@@Z 0044ca50 f i ShortcutKey.obj
 0001:0004baa0       ??0?$pair@Viterator@?$_Tree@V?$basic_string@DU?$char_traits@D@std@@V?$allocator@D@2@@std@@U?$pair@$$CBV?$basic_string@DU?$char_traits@D@std@@V?$allocator@D@2@@std@@UShortFuncInfo@@@2@U_Kfn@?$map@V?$basic_string@DU?$char_traits@D@std@@V?$allocator@D@2@@std@@UShortFuncInfo@@Ustring_iless@@V?$allocator@UShortFuncInfo@@@2@@2@Ustring_iless@@V?$allocator@UShortFuncInfo@@@2@@std@@_N@std@@QAE@ABViterator@?$_Tree@V?$basic_string@DU?$char_traits@D@std@@V?$allocator@D@2@@std@@U?$pair@$$CBV?$basic_string@DU?$char_traits@D@std@@V?$allocator@D@2@@std@@UShortFuncInfo@@@2@U_Kfn@?$map@V?$basic_string@DU?$char_traits@D@std@@V?$allocator@D@2@@std@@UShortFuncInfo@@Ustring_iless@@V?$allocator@UShortFuncInfo@@@2@@2@Ustring_iless@@V?$allocator@UShortFuncInfo@@@2@@1@AB_N@Z 0044caa0 f i ShortcutKey.obj
 0001:0004bac0       ??0?$pair@Viterator@?$_Tree@V?$basic_string@DU?$char_traits@D@std@@V?$allocator@D@2@@std@@U?$pair@$$CBV?$basic_string@DU?$char_traits@D@std@@V?$allocator@D@2@@std@@U?$pair@KK@2@@2@U_Kfn@?$map@V?$basic_string@DU?$char_traits@D@std@@V?$allocator@D@2@@std@@U?$pair@KK@2@Ustring_iless@@V?$allocator@U?$pair@KK@std@@@2@@2@Ustring_iless@@V?$allocator@U?$pair@KK@std@@@2@@std@@_N@std@@QAE@ABViterator@?$_Tree@V?$basic_string@DU?$char_traits@D@std@@V?$allocator@D@2@@std@@U?$pair@$$CBV?$basic_string@DU?$char_traits@D@std@@V?$allocator@D@2@@std@@U?$pair@KK@2@@2@U_Kfn@?$map@V?$basic_string@DU?$char_traits@D@std@@V?$allocator@D@2@@std@@U?$pair@KK@2@Ustring_iless@@V?$allocator@U?$pair@KK@std@@@2@@2@Ustring_iless@@V?$allocator@U?$pair@KK@std@@@2@@1@AB_N@Z 0044cac0 f i ShortcutKey.obj
 0001:0004bae0       ?_Insert@?$_Tree@V?$basic_string@DU?$char_traits@D@std@@V?$allocator@D@2@@std@@U?$pair@$$CBV?$basic_string@DU?$char_traits@D@std@@V?$allocator@D@2@@std@@UShortFuncInfo@@@2@U_Kfn@?$map@V?$basic_string@DU?$char_traits@D@std@@V?$allocator@D@2@@std@@UShortFuncInfo@@Ustring_iless@@V?$allocator@UShortFuncInfo@@@2@@2@Ustring_iless@@V?$allocator@UShortFuncInfo@@@2@@std@@IAE?AViterator@12@PAU_Node@12@0ABU?$pair@$$CBV?$basic_string@DU?$char_traits@D@std@@V?$allocator@D@2@@std@@UShortFuncInfo@@@2@@Z 0044cae0 f i ShortcutKey.obj
 0001:0004bd50       ?_Lrotate@?$_Tree@V?$basic_string@DU?$char_traits@D@std@@V?$allocator@D@2@@std@@U?$pair@$$CBV?$basic_string@DU?$char_traits@D@std@@V?$allocator@D@2@@std@@UShortFuncInfo@@@2@U_Kfn@?$map@V?$basic_string@DU?$char_traits@D@std@@V?$allocator@D@2@@std@@UShortFuncInfo@@Ustring_iless@@V?$allocator@UShortFuncInfo@@@2@@2@Ustring_iless@@V?$allocator@UShortFuncInfo@@@2@@std@@IAEXPAU_Node@12@@Z 0044cd50 f i ShortcutKey.obj
 0001:0004bdb0       ?_Rrotate@?$_Tree@V?$basic_string@DU?$char_traits@D@std@@V?$allocator@D@2@@std@@U?$pair@$$CBV?$basic_string@DU?$char_traits@D@std@@V?$allocator@D@2@@std@@UShortFuncInfo@@@2@U_Kfn@?$map@V?$basic_string@DU?$char_traits@D@std@@V?$allocator@D@2@@std@@UShortFuncInfo@@Ustring_iless@@V?$allocator@UShortFuncInfo@@@2@@2@Ustring_iless@@V?$allocator@UShortFuncInfo@@@2@@std@@IAEXPAU_Node@12@@Z 0044cdb0 f i ShortcutKey.obj
 0001:0004be10       ?_Buynode@?$_Tree@V?$basic_string@DU?$char_traits@D@std@@V?$allocator@D@2@@std@@U?$pair@$$CBV?$basic_string@DU?$char_traits@D@std@@V?$allocator@D@2@@std@@UShortFuncInfo@@@2@U_Kfn@?$map@V?$basic_string@DU?$char_traits@D@std@@V?$allocator@D@2@@std@@UShortFuncInfo@@Ustring_iless@@V?$allocator@UShortFuncInfo@@@2@@2@Ustring_iless@@V?$allocator@UShortFuncInfo@@@2@@std@@IAEPAU_Node@12@PAU312@W4_Redbl@12@@Z 0044ce10 f i ShortcutKey.obj
 0001:0004be30       ?_Insert@?$_Tree@V?$basic_string@DU?$char_traits@D@std@@V?$allocator@D@2@@std@@U?$pair@$$CBV?$basic_string@DU?$char_traits@D@std@@V?$allocator@D@2@@std@@U?$pair@KK@2@@2@U_Kfn@?$map@V?$basic_string@DU?$char_traits@D@std@@V?$allocator@D@2@@std@@U?$pair@KK@2@Ustring_iless@@V?$allocator@U?$pair@KK@std@@@2@@2@Ustring_iless@@V?$allocator@U?$pair@KK@std@@@2@@std@@IAE?AViterator@12@PAU_Node@12@0ABU?$pair@$$CBV?$basic_string@DU?$char_traits@D@std@@V?$allocator@D@2@@std@@U?$pair@KK@2@@2@@Z 0044ce30 f i ShortcutKey.obj
 0001:0004c0a0       ?_Dec@const_iterator@?$_Tree@V?$basic_string@DU?$char_traits@D@std@@V?$allocator@D@2@@std@@U?$pair@$$CBV?$basic_string@DU?$char_traits@D@std@@V?$allocator@D@2@@std@@UShortFuncInfo@@@2@U_Kfn@?$map@V?$basic_string@DU?$char_traits@D@std@@V?$allocator@D@2@@std@@UShortFuncInfo@@Ustring_iless@@V?$allocator@UShortFuncInfo@@@2@@2@Ustring_iless@@V?$allocator@UShortFuncInfo@@@2@@std@@QAEXXZ 0044d0a0 f i ShortcutKey.obj
 0001:0004c100       ?_Dec@const_iterator@?$_Tree@V?$basic_string@DU?$char_traits@D@std@@V?$allocator@D@2@@std@@U?$pair@$$CBV?$basic_string@DU?$char_traits@D@std@@V?$allocator@D@2@@std@@U?$pair@KK@2@@2@U_Kfn@?$map@V?$basic_string@DU?$char_traits@D@std@@V?$allocator@D@2@@std@@U?$pair@KK@2@Ustring_iless@@V?$allocator@U?$pair@KK@std@@@2@@2@Ustring_iless@@V?$allocator@U?$pair@KK@std@@@2@@std@@QAEXXZ 0044d100 f i ShortcutKey.obj
 0001:0004c160       ?_Inc@const_iterator@?$_Tree@V?$basic_string@DU?$char_traits@D@std@@V?$allocator@D@2@@std@@U?$pair@$$CBV?$basic_string@DU?$char_traits@D@std@@V?$allocator@D@2@@std@@U?$pair@KK@2@@2@U_Kfn@?$map@V?$basic_string@DU?$char_traits@D@std@@V?$allocator@D@2@@std@@U?$pair@KK@2@Ustring_iless@@V?$allocator@U?$pair@KK@std@@@2@@2@Ustring_iless@@V?$allocator@U?$pair@KK@std@@@2@@std@@QAEXXZ 0044d160 f i ShortcutKey.obj
 0001:0004c1b0       ?_Construct@std@@YAXPAU?$pair@$$CBV?$basic_string@DU?$char_traits@D@std@@V?$allocator@D@2@@std@@U?$pair@KK@2@@1@ABU21@@Z 0044d1b0 f i ShortcutKey.obj
 0001:0004c320       ?_Construct@std@@YAXPAU?$pair@$$CBV?$basic_string@DU?$char_traits@D@std@@V?$allocator@D@2@@std@@UShortFuncInfo@@@1@ABU21@@Z 0044d320 f i ShortcutKey.obj
 0001:0004c3f0       ??_G?$pair@$$CBV?$basic_string@DU?$char_traits@D@std@@V?$allocator@D@2@@std@@UShortFuncInfo@@@std@@QAEPAXI@Z 0044d3f0 f i ShortcutKey.obj
 0001:0004c410       ??_G?$pair@$$CBV?$basic_string@DU?$char_traits@D@std@@V?$allocator@D@2@@std@@U?$pair@KK@2@@std@@QAEPAXI@Z 0044d410 f i ShortcutKey.obj
 0001:0004c470       ??0KUiBase@@QAE@XZ         0044d470 f   UiBase.obj
 0001:0004c540       ??1KUiBase@@QAE@XZ         0044d540 f   UiBase.obj
 0001:0004c640       ?Exit@KUiBase@@QAEXXZ      0044d640 f   UiBase.obj
 0001:0004c660       ?GetUserTempDataFolder@KUiBase@@QAEPBDXZ 0044d660 f   UiBase.obj
 0001:0004c670       ?CleanTempDataFolder@KUiBase@@QAEXXZ 0044d670 f   UiBase.obj
 0001:0004c680       ?ClearFolder@KUiBase@@AAEXPBD_N@Z 0044d680 f   UiBase.obj
 0001:0004c7a0       ?Init@KUiBase@@QAEHXZ      0044d7a0 f   UiBase.obj
 0001:0004c880       ?SetUserAccount@KUiBase@@QAEXPAD0@Z 0044d880 f   UiBase.obj
 0001:0004c8f0       ?CleanPrivateDataFolder@KUiBase@@QAEXXZ 0044d8f0 f   UiBase.obj
 0001:0004c930       ?DeletePrivateDataFile@KUiBase@@QAEXPBD@Z 0044d930 f   UiBase.obj
 0001:0004c9a0       ?LoadPrivateConfig@KUiBase@@QAEXXZ 0044d9a0 f   UiBase.obj
 0001:0004ca20       ?SavePrivateConfig@KUiBase@@QAEHXZ 0044da20 f   UiBase.obj
 0001:0004ca90       ?GetUserPrivateDataFolder@KUiBase@@QAEHPADH@Z 0044da90 f   UiBase.obj
 0001:0004cb20       ?LoadScheme@KUiBase@@QAEHPBD@Z 0044db20 f   UiBase.obj
 0001:0004ce70       ?LoadSchemeForEachWnd@KUiBase@@AAEXXZ 0044de70 f   UiBase.obj
 0001:0004cf10       ?GetSchemePath@KUiBase@@AAEHPBD@Z 0044df10 f   UiBase.obj
 0001:0004d130       ?SchemeCount@KUiBase@@QAEHXZ 0044e130 f   UiBase.obj
 0001:0004d180       ?GetScheme@KUiBase@@QAEHHPAD0@Z 0044e180 f   UiBase.obj
 0001:0004d2d0       ?GetCurSchemePath@KUiBase@@QAEHPADH@Z 0044e2d0 f   UiBase.obj
 0001:0004d330       ?GetCommSettingFile@KUiBase@@QAEPAVKIniFile@@XZ 0044e330 f   UiBase.obj
 0001:0004d3b0       ?CloseCommSettingFile@KUiBase@@QAEX_N@Z 0044e3b0 f   UiBase.obj
 0001:0004d400       ?GetCommConfigFile@KUiBase@@QAEPAVKIniFile@@XZ 0044e400 f   UiBase.obj
 0001:0004d4b0       ?CloseCommConfigFile@KUiBase@@QAEXXZ 0044e4b0 f   UiBase.obj
 0001:0004d4e0       ?GetPrivateSettingFile@KUiBase@@QAEPAVKIniFile@@XZ 0044e4e0 f   UiBase.obj
 0001:0004d5a0       ?ClosePrivateSettingFile@KUiBase@@QAEX_N@Z 0044e5a0 f   UiBase.obj
 0001:0004d690       ?SetStatus@KUiBase@@QAEXW4UISYS_STATUS@@@Z 0044e690 f   UiBase.obj
 0001:0004d6c0       ?SetCurrentCursor@KUiBase@@QAEXXZ 0044e6c0 f   UiBase.obj
 0001:0004d720       ?IsOperationEnable@KUiBase@@QAEHW4UISYS_OPERATION@@@Z 0044e720 f   UiBase.obj
 0001:0004d770       ?RegisterEvent@KUiBase@@QAEXPBDPAX@Z 0044e770 f   UiBase.obj
 0001:0004d950       ?UnregisterEvent@KUiBase@@QAEXPBDPAX@Z 0044e950 f   UiBase.obj
 0001:0004da70       ?NotifyOneEvent@KUiBase@@QAEHPBD0@Z 0044ea70 f   UiBase.obj
 0001:0004dbd0       ?NotifyEvent@KUiBase@@QAEHPBD@Z 0044ebd0 f   UiBase.obj
 0001:0004dcc0       ?CreateUnit@AddinNotify@@UAEHPBD@Z 0044ecc0 f   UiBase.obj
 0001:0004dd10       ?DeleteUnit@AddinNotify@@UAEHPBD@Z 0044ed10 f   UiBase.obj
 0001:0004dd60       ?CreateUnitGroup@AddinNotify@@UAEHPBD0@Z 0044ed60 f   UiBase.obj
 0001:0004ddc0       ?RenameUnitGroup@AddinNotify@@UAEHPBD00ABV?$list@V?$basic_string@DU?$char_traits@D@std@@V?$allocator@D@2@@std@@V?$allocator@V?$basic_string@DU?$char_traits@D@std@@V?$allocator@D@2@@std@@@2@@std@@@Z 0044edc0 f   UiBase.obj
 0001:0004de30       ?DeleteUnitGroup@AddinNotify@@UAEHPBD0ABV?$list@V?$basic_string@DU?$char_traits@D@std@@V?$allocator@D@2@@std@@V?$allocator@V?$basic_string@DU?$char_traits@D@std@@V?$allocator@D@2@@std@@@2@@std@@@Z 0044ee30 f   UiBase.obj
 0001:0004de90       ?MoveUnitGroup@AddinNotify@@UAEHPBD00ABV?$list@V?$basic_string@DU?$char_traits@D@std@@V?$allocator@D@2@@std@@V?$allocator@V?$basic_string@DU?$char_traits@D@std@@V?$allocator@D@2@@std@@@2@@std@@@Z 0044ee90 f   UiBase.obj
 0001:0004df00       ?CreateUnitMember@AddinNotify@@UAEHPBD00@Z 0044ef00 f   UiBase.obj
 0001:0004df70       ?DeleteUnitMember@AddinNotify@@UAEHPBD0@Z 0044ef70 f   UiBase.obj
 0001:0004dfd0       ?MoveUnitMember@AddinNotify@@UAEHPBD00@Z 0044efd0 f   UiBase.obj
 0001:0004e040       ?SetUnitMemberStatus@AddinNotify@@UAEHPBD00@Z 0044f040 f   UiBase.obj
 0001:0004e0d0       ?CreateAddinUnit@@YAXPBD@Z 0044f0d0 f   UiBase.obj
 0001:0004e0f0       ?DeleteAddinUnit@@YAXPBD@Z 0044f0f0 f   UiBase.obj
 0001:0004e100       ??1?$pair@$$CBV?$basic_string@DU?$char_traits@D@std@@V?$allocator@D@2@@std@@PAX@std@@QAE@XZ 0044f100 f i UiBase.obj
 0001:0004e140       ?begin@?$_Tree@V?$basic_string@DU?$char_traits@D@std@@V?$allocator@D@2@@std@@U?$pair@$$CBV?$basic_string@DU?$char_traits@D@std@@V?$allocator@D@2@@std@@PAX@2@U_Kfn@?$map@V?$basic_string@DU?$char_traits@D@std@@V?$allocator@D@2@@std@@PAXU?$less@V?$basic_string@DU?$char_traits@D@std@@V?$allocator@D@2@@std@@@2@V?$allocator@PAX@2@@2@U?$less@V?$basic_string@DU?$char_traits@D@std@@V?$allocator@D@2@@std@@@2@V?$allocator@PAX@2@@std@@QAE?AViterator@12@XZ 0044f140 f i UiBase.obj
 0001:0004e150       ?erase@?$_Tree@V?$basic_string@DU?$char_traits@D@std@@V?$allocator@D@2@@std@@U?$pair@$$CBV?$basic_string@DU?$char_traits@D@std@@V?$allocator@D@2@@std@@PAX@2@U_Kfn@?$map@V?$basic_string@DU?$char_traits@D@std@@V?$allocator@D@2@@std@@PAXU?$less@V?$basic_string@DU?$char_traits@D@std@@V?$allocator@D@2@@std@@@2@V?$allocator@PAX@2@@2@U?$less@V?$basic_string@DU?$char_traits@D@std@@V?$allocator@D@2@@std@@@2@V?$allocator@PAX@2@@std@@QAE?AViterator@12@V312@@Z 0044f150 f i UiBase.obj
 0001:0004e580       ?insert@?$_Tree@V?$basic_string@DU?$char_traits@D@std@@V?$allocator@D@2@@std@@U?$pair@$$CBV?$basic_string@DU?$char_traits@D@std@@V?$allocator@D@2@@std@@PAX@2@U_Kfn@?$map@V?$basic_string@DU?$char_traits@D@std@@V?$allocator@D@2@@std@@PAXU?$less@V?$basic_string@DU?$char_traits@D@std@@V?$allocator@D@2@@std@@@2@V?$allocator@PAX@2@@2@U?$less@V?$basic_string@DU?$char_traits@D@std@@V?$allocator@D@2@@std@@@2@V?$allocator@PAX@2@@std@@QAE?AU?$pair@Viterator@?$_Tree@V?$basic_string@DU?$char_traits@D@std@@V?$allocator@D@2@@std@@U?$pair@$$CBV?$basic_string@DU?$char_traits@D@std@@V?$allocator@D@2@@std@@PAX@2@U_Kfn@?$map@V?$basic_string@DU?$char_traits@D@std@@V?$allocator@D@2@@std@@PAXU?$less@V?$basic_string@DU?$char_traits@D@std@@V?$allocator@D@2@@std@@@2@V?$allocator@PAX@2@@2@U?$less@V?$basic_string@DU?$char_traits@D@std@@V?$allocator@D@2@@std@@@2@V?$allocator@PAX@2@@std@@_N@2@ABU?$pair@$$CBV?$basic_string@DU?$char_traits@D@std@@V?$allocator@D@2@@std@@PAX@2@@Z 0044f580 f i UiBase.obj
 0001:0004e810       ?lower_bound@?$_Tree@V?$basic_string@DU?$char_traits@D@std@@V?$allocator@D@2@@std@@U?$pair@$$CBV?$basic_string@DU?$char_traits@D@std@@V?$allocator@D@2@@std@@PAX@2@U_Kfn@?$map@V?$basic_string@DU?$char_traits@D@std@@V?$allocator@D@2@@std@@PAXU?$less@V?$basic_string@DU?$char_traits@D@std@@V?$allocator@D@2@@std@@@2@V?$allocator@PAX@2@@2@U?$less@V?$basic_string@DU?$char_traits@D@std@@V?$allocator@D@2@@std@@@2@V?$allocator@PAX@2@@std@@QAE?AViterator@12@ABV?$basic_string@DU?$char_traits@D@std@@V?$allocator@D@2@@2@@Z 0044f810 f i UiBase.obj
 0001:0004e870       ?_Erase@?$_Tree@V?$basic_string@DU?$char_traits@D@std@@V?$allocator@D@2@@std@@U?$pair@$$CBV?$basic_string@DU?$char_traits@D@std@@V?$allocator@D@2@@std@@PAX@2@U_Kfn@?$map@V?$basic_string@DU?$char_traits@D@std@@V?$allocator@D@2@@std@@PAXU?$less@V?$basic_string@DU?$char_traits@D@std@@V?$allocator@D@2@@std@@@2@V?$allocator@PAX@2@@2@U?$less@V?$basic_string@DU?$char_traits@D@std@@V?$allocator@D@2@@std@@@2@V?$allocator@PAX@2@@std@@IAEXPAU_Node@12@@Z 0044f870 f i UiBase.obj
 0001:0004e8c0       ?_Lrotate@?$_Tree@V?$basic_string@DU?$char_traits@D@std@@V?$allocator@D@2@@std@@U?$pair@$$CBV?$basic_string@DU?$char_traits@D@std@@V?$allocator@D@2@@std@@PAX@2@U_Kfn@?$map@V?$basic_string@DU?$char_traits@D@std@@V?$allocator@D@2@@std@@PAXU?$less@V?$basic_string@DU?$char_traits@D@std@@V?$allocator@D@2@@std@@@2@V?$allocator@PAX@2@@2@U?$less@V?$basic_string@DU?$char_traits@D@std@@V?$allocator@D@2@@std@@@2@V?$allocator@PAX@2@@std@@IAEXPAU_Node@12@@Z 0044f8c0 f i UiBase.obj
 0001:0004e920       ?_Rrotate@?$_Tree@V?$basic_string@DU?$char_traits@D@std@@V?$allocator@D@2@@std@@U?$pair@$$CBV?$basic_string@DU?$char_traits@D@std@@V?$allocator@D@2@@std@@PAX@2@U_Kfn@?$map@V?$basic_string@DU?$char_traits@D@std@@V?$allocator@D@2@@std@@PAXU?$less@V?$basic_string@DU?$char_traits@D@std@@V?$allocator@D@2@@std@@@2@V?$allocator@PAX@2@@2@U?$less@V?$basic_string@DU?$char_traits@D@std@@V?$allocator@D@2@@std@@@2@V?$allocator@PAX@2@@std@@IAEXPAU_Node@12@@Z 0044f920 f i UiBase.obj
 0001:0004e980       ?_Inc@const_iterator@?$_Tree@V?$basic_string@DU?$char_traits@D@std@@V?$allocator@D@2@@std@@U?$pair@$$CBV?$basic_string@DU?$char_traits@D@std@@V?$allocator@D@2@@std@@PAX@2@U_Kfn@?$map@V?$basic_string@DU?$char_traits@D@std@@V?$allocator@D@2@@std@@PAXU?$less@V?$basic_string@DU?$char_traits@D@std@@V?$allocator@D@2@@std@@@2@V?$allocator@PAX@2@@2@U?$less@V?$basic_string@DU?$char_traits@D@std@@V?$allocator@D@2@@std@@@2@V?$allocator@PAX@2@@std@@QAEXXZ 0044f980 f i UiBase.obj
 0001:0004e9d0       ??0?$pair@Viterator@?$_Tree@V?$basic_string@DU?$char_traits@D@std@@V?$allocator@D@2@@std@@U?$pair@$$CBV?$basic_string@DU?$char_traits@D@std@@V?$allocator@D@2@@std@@PAX@2@U_Kfn@?$map@V?$basic_string@DU?$char_traits@D@std@@V?$allocator@D@2@@std@@PAXU?$less@V?$basic_string@DU?$char_traits@D@std@@V?$allocator@D@2@@std@@@2@V?$allocator@PAX@2@@2@U?$less@V?$basic_string@DU?$char_traits@D@std@@V?$allocator@D@2@@std@@@2@V?$allocator@PAX@2@@std@@_N@std@@QAE@ABViterator@?$_Tree@V?$basic_string@DU?$char_traits@D@std@@V?$allocator@D@2@@std@@U?$pair@$$CBV?$basic_string@DU?$char_traits@D@std@@V?$allocator@D@2@@std@@PAX@2@U_Kfn@?$map@V?$basic_string@DU?$char_traits@D@std@@V?$allocator@D@2@@std@@PAXU?$less@V?$basic_string@DU?$char_traits@D@std@@V?$allocator@D@2@@std@@@2@V?$allocator@PAX@2@@2@U?$less@V?$basic_string@DU?$char_traits@D@std@@V?$allocator@D@2@@std@@@2@V?$allocator@PAX@2@@1@AB_N@Z 0044f9d0 f i UiBase.obj
 0001:0004e9f0       ?_Insert@?$_Tree@V?$basic_string@DU?$char_traits@D@std@@V?$allocator@D@2@@std@@U?$pair@$$CBV?$basic_string@DU?$char_traits@D@std@@V?$allocator@D@2@@std@@PAX@2@U_Kfn@?$map@V?$basic_string@DU?$char_traits@D@std@@V?$allocator@D@2@@std@@PAXU?$less@V?$basic_string@DU?$char_traits@D@std@@V?$allocator@D@2@@std@@@2@V?$allocator@PAX@2@@2@U?$less@V?$basic_string@DU?$char_traits@D@std@@V?$allocator@D@2@@std@@@2@V?$allocator@PAX@2@@std@@IAE?AViterator@12@PAU_Node@12@0ABU?$pair@$$CBV?$basic_string@DU?$char_traits@D@std@@V?$allocator@D@2@@std@@PAX@2@@Z 0044f9f0 f i UiBase.obj
 0001:0004ec60       ?_Buynode@?$_Tree@V?$basic_string@DU?$char_traits@D@std@@V?$allocator@D@2@@std@@U?$pair@$$CBV?$basic_string@DU?$char_traits@D@std@@V?$allocator@D@2@@std@@PAX@2@U_Kfn@?$map@V?$basic_string@DU?$char_traits@D@std@@V?$allocator@D@2@@std@@PAXU?$less@V?$basic_string@DU?$char_traits@D@std@@V?$allocator@D@2@@std@@@2@V?$allocator@PAX@2@@2@U?$less@V?$basic_string@DU?$char_traits@D@std@@V?$allocator@D@2@@std@@@2@V?$allocator@PAX@2@@std@@IAEPAU_Node@12@PAU312@W4_Redbl@12@@Z 0044fc60 f i UiBase.obj
 0001:0004ec80       ?_Dec@const_iterator@?$_Tree@V?$basic_string@DU?$char_traits@D@std@@V?$allocator@D@2@@std@@U?$pair@$$CBV?$basic_string@DU?$char_traits@D@std@@V?$allocator@D@2@@std@@PAX@2@U_Kfn@?$map@V?$basic_string@DU?$char_traits@D@std@@V?$allocator@D@2@@std@@PAXU?$less@V?$basic_string@DU?$char_traits@D@std@@V?$allocator@D@2@@std@@@2@V?$allocator@PAX@2@@2@U?$less@V?$basic_string@DU?$char_traits@D@std@@V?$allocator@D@2@@std@@@2@V?$allocator@PAX@2@@std@@QAEXXZ 0044fc80 f i UiBase.obj
 0001:0004ece0       ?_Construct@std@@YAXPAU?$pair@$$CBV?$basic_string@DU?$char_traits@D@std@@V?$allocator@D@2@@std@@PAX@1@ABU21@@Z 0044fce0 f i UiBase.obj
 0001:0004ee40       ??_G?$pair@$$CBV?$basic_string@DU?$char_traits@D@std@@V?$allocator@D@2@@std@@PAX@std@@QAEPAXI@Z 0044fe40 f i UiBase.obj
 0001:0004ee60       ?CreateObject@Player_Life@@SAPAVKWndWindow@@XZ 0044fe60 f i UiShell.obj
 0001:0004eec0       ??_GPlayer_Life@@UAEPAXI@Z 0044fec0 f i UiShell.obj
 0001:0004eec0       ??_EPlayer_Life@@UAEPAXI@Z 0044fec0 f i UiShell.obj
 0001:0004eee0       ??1Player_Life@@UAE@XZ     0044fee0 f i UiShell.obj
 0001:0004ef50       ?CreateObject@Player_Mana@@SAPAVKWndWindow@@XZ 0044ff50 f i UiShell.obj
 0001:0004efb0       ??_EPlayer_Mana@@UAEPAXI@Z 0044ffb0 f i UiShell.obj
 0001:0004efb0       ??_GPlayer_Mana@@UAEPAXI@Z 0044ffb0 f i UiShell.obj
 0001:0004efd0       ??1Player_Mana@@UAE@XZ     0044ffd0 f i UiShell.obj
 0001:0004f040       ?CreateObject@Player_Stamina@@SAPAVKWndWindow@@XZ 00450040 f i UiShell.obj
 0001:0004f0a0       ??_EPlayer_Stamina@@UAEPAXI@Z 004500a0 f i UiShell.obj
 0001:0004f0a0       ??_GPlayer_Stamina@@UAEPAXI@Z 004500a0 f i UiShell.obj
 0001:0004f0c0       ??1Player_Stamina@@UAE@XZ  004500c0 f i UiShell.obj
 0001:0004f130       ?CreateObject@Player_Exp@@SAPAVKWndWindow@@XZ 00450130 f i UiShell.obj
 0001:0004f190       ??_EPlayer_Exp@@UAEPAXI@Z  00450190 f i UiShell.obj
 0001:0004f190       ??_GPlayer_Exp@@UAEPAXI@Z  00450190 f i UiShell.obj
 0001:0004f1b0       ??1Player_Exp@@UAE@XZ      004501b0 f i UiShell.obj
 0001:0004f220       ?CreateObject@Player_Level@@SAPAVKWndWindow@@XZ 00450220 f i UiShell.obj
 0001:0004f280       ??_EPlayer_Level@@UAEPAXI@Z 00450280 f i UiShell.obj
 0001:0004f280       ??_GPlayer_Level@@UAEPAXI@Z 00450280 f i UiShell.obj
 0001:0004f2a0       ??1Player_Level@@UAE@XZ    004502a0 f i UiShell.obj
 0001:0004f310       ?CreateObject@Player_WorldSort@@SAPAVKWndWindow@@XZ 00450310 f i UiShell.obj
 0001:0004f370       ??_GPlayer_WorldSort@@UAEPAXI@Z 00450370 f i UiShell.obj
 0001:0004f370       ??_EPlayer_WorldSort@@UAEPAXI@Z 00450370 f i UiShell.obj
 0001:0004f390       ??1Player_WorldSort@@UAE@XZ 00450390 f i UiShell.obj
 0001:0004f400       ?CreateObject@Player_Status@@SAPAVKWndWindow@@XZ 00450400 f i UiShell.obj
 0001:0004f460       ??_GPlayer_Status@@UAEPAXI@Z 00450460 f i UiShell.obj
 0001:0004f460       ??_EPlayer_Status@@UAEPAXI@Z 00450460 f i UiShell.obj
 0001:0004f480       ??1Player_Status@@UAE@XZ   00450480 f i UiShell.obj
 0001:0004f490       ?CreateObject@Player_Items@@SAPAVKWndWindow@@XZ 00450490 f i UiShell.obj
 0001:0004f4f0       ??_EPlayer_Items@@UAEPAXI@Z 004504f0 f i UiShell.obj
 0001:0004f4f0       ??_GPlayer_Items@@UAEPAXI@Z 004504f0 f i UiShell.obj
 0001:0004f510       ??1Player_Items@@UAE@XZ    00450510 f i UiShell.obj
 0001:0004f520       ?CreateObject@Player_Skills@@SAPAVKWndWindow@@XZ 00450520 f i UiShell.obj
 0001:0004f580       ??_EPlayer_Skills@@UAEPAXI@Z 00450580 f i UiShell.obj
 0001:0004f580       ??_GPlayer_Skills@@UAEPAXI@Z 00450580 f i UiShell.obj
 0001:0004f5a0       ??1Player_Skills@@UAE@XZ   004505a0 f i UiShell.obj
 0001:0004f5b0       ?CreateObject@Player_Team@@SAPAVKWndWindow@@XZ 004505b0 f i UiShell.obj
 0001:0004f610       ??_EPlayer_Team@@UAEPAXI@Z 00450610 f i UiShell.obj
 0001:0004f610       ??_GPlayer_Team@@UAEPAXI@Z 00450610 f i UiShell.obj
 0001:0004f630       ??1Player_Team@@UAE@XZ     00450630 f i UiShell.obj
 0001:0004f640       ?CreateObject@Player_Faction@@SAPAVKWndWindow@@XZ 00450640 f i UiShell.obj
 0001:0004f6a0       ??_EPlayer_Faction@@UAEPAXI@Z 004506a0 f i UiShell.obj
 0001:0004f6a0       ??_GPlayer_Faction@@UAEPAXI@Z 004506a0 f i UiShell.obj
 0001:0004f6c0       ??1Player_Faction@@UAE@XZ  004506c0 f i UiShell.obj
 0001:0004f6d0       ?CreateObject@Player_Sit@@SAPAVKWndWindow@@XZ 004506d0 f i UiShell.obj
 0001:0004f730       ??_EPlayer_Sit@@UAEPAXI@Z  00450730 f i UiShell.obj
 0001:0004f730       ??_GPlayer_Sit@@UAEPAXI@Z  00450730 f i UiShell.obj
 0001:0004f750       ??1Player_Sit@@UAE@XZ      00450750 f i UiShell.obj
 0001:0004f760       ?CreateObject@Player_Run@@SAPAVKWndWindow@@XZ 00450760 f i UiShell.obj
 0001:0004f7c0       ??_EPlayer_Run@@UAEPAXI@Z  004507c0 f i UiShell.obj
 0001:0004f7c0       ??_GPlayer_Run@@UAEPAXI@Z  004507c0 f i UiShell.obj
 0001:0004f7e0       ??1Player_Run@@UAE@XZ      004507e0 f i UiShell.obj
 0001:0004f7f0       ?CreateObject@Player_Horse@@SAPAVKWndWindow@@XZ 004507f0 f i UiShell.obj
 0001:0004f850       ??_GPlayer_Horse@@UAEPAXI@Z 00450850 f i UiShell.obj
 0001:0004f850       ??_EPlayer_Horse@@UAEPAXI@Z 00450850 f i UiShell.obj
 0001:0004f870       ??1Player_Horse@@UAE@XZ    00450870 f i UiShell.obj
 0001:0004f880       ?CreateObject@Player_Exchange@@SAPAVKWndWindow@@XZ 00450880 f i UiShell.obj
 0001:0004f8e0       ??_EPlayer_Exchange@@UAEPAXI@Z 004508e0 f i UiShell.obj
 0001:0004f8e0       ??_GPlayer_Exchange@@UAEPAXI@Z 004508e0 f i UiShell.obj
 0001:0004f900       ??1Player_Exchange@@UAE@XZ 00450900 f i UiShell.obj
 0001:0004f910       ?CreateObject@Player_PK@@SAPAVKWndWindow@@XZ 00450910 f i UiShell.obj
 0001:0004f970       ??_EPlayer_PK@@UAEPAXI@Z   00450970 f i UiShell.obj
 0001:0004f970       ??_GPlayer_PK@@UAEPAXI@Z   00450970 f i UiShell.obj
 0001:0004f990       ??1Player_PK@@UAE@XZ       00450990 f i UiShell.obj
 0001:0004f9a0       ?UiPostQuitMsg@@YAXXZ      004509a0 f   UiShell.obj
 0001:0004f9b0       ?UiIsAlreadyQuit@@YA_NXZ   004509b0 f   UiShell.obj
 0001:0004f9c0       ?UiInit@@YAHXZ             004509c0 f   UiShell.obj
 0001:0004fb50       ?UiExit@@YAXXZ             00450b50 f   UiShell.obj
 0001:0004fbf0       ?UiStart@@YAHXZ            00450bf0 f   UiShell.obj
 0001:0004fc20       ?UiPaint@@YAXH@Z           00450c20 f   UiShell.obj
 0001:0004fc60       ?UiHeartBeat@@YAHXZ        00450c60 f   UiShell.obj
 0001:0004fcf0       ?UiProcessInput@@YAXIIH@Z  00450cf0 f   UiShell.obj
 0001:0004fd60       ?UiCloseWndsOutGame@@YAX_N@Z 00450d60 f   UiShell.obj
 0001:0004fdc0       ?UiStartGame@@YAXXZ        00450dc0 f   UiShell.obj
 0001:0004fec0       ?UiResumeGame@@YAXXZ       00450ec0 f   UiShell.obj
 0001:0004fed0       ?UiCloseWndsInGame@@YA_N_N@Z 00450ed0 f   UiShell.obj
 0001:000500a0       ?UiEndGame@@YAXXZ          004510a0 f   UiShell.obj
 0001:00050120       ?UiSetScreenSize@@YAXHH@Z  00451120 f   UiShell.obj
 0001:00050140       ?UiOnGameServerConnected@@YAXXZ 00451140 f   UiShell.obj
 0001:00050150       ?UiOnGameServerStartSyncEnd@@YAXXZ 00451150 f   UiShell.obj
 0001:00050170       ?UpdateData@Player_Life@@UAEXXZ 00451170 f   UiShell.obj
 0001:00050200       ?OnButtonClick@Player_Life@@UAEXXZ 00451200 f   UiShell.obj
 0001:00050220       ?UpdateData@Player_Mana@@UAEXXZ 00451220 f   UiShell.obj
 0001:000502b0       ?OnButtonClick@Player_Mana@@UAEXXZ 004512b0 f   UiShell.obj
 0001:000502d0       ?UpdateData@Player_Stamina@@UAEXXZ 004512d0 f   UiShell.obj
 0001:00050360       ?OnButtonClick@Player_Stamina@@UAEXXZ 00451360 f   UiShell.obj
 0001:00050380       ?UpdateData@Player_Exp@@UAEXXZ 00451380 f   UiShell.obj
 0001:00050440       ?OnButtonClick@Player_Exp@@UAEXXZ 00451440 f   UiShell.obj
 0001:00050460       ?GetToolTipInfo@Player_Exp@@UAEHPADH@Z 00451460 f   UiShell.obj
 0001:000504f0       ?UpdateData@Player_Level@@UAEXXZ 004514f0 f   UiShell.obj
 0001:00050540       ?UpdateData@Player_WorldSort@@UAEXXZ 00451540 f   UiShell.obj
 0001:00050590       ?OnButtonClick@Player_WorldSort@@UAEXXZ 00451590 f   UiShell.obj
 0001:000505a0       ?OnButtonClick@Player_Status@@UAEXXZ 004515a0 f   UiShell.obj
 0001:000505b0       ?GetShortKey@Player_Status@@UAEPBDXZ 004515b0 f   UiShell.obj
 0001:000505d0       ?OnButtonClick@Player_Items@@UAEXXZ 004515d0 f   UiShell.obj
 0001:000505e0       ?GetShortKey@Player_Items@@UAEPBDXZ 004515e0 f   UiShell.obj
 0001:00050600       ?OnButtonClick@Player_Skills@@UAEXXZ 00451600 f   UiShell.obj
 0001:00050610       ?GetShortKey@Player_Skills@@UAEPBDXZ 00451610 f   UiShell.obj
 0001:00050630       ?OnButtonClick@Player_Team@@UAEXXZ 00451630 f   UiShell.obj
 0001:00050640       ?GetShortKey@Player_Team@@UAEPBDXZ 00451640 f   UiShell.obj
 0001:00050660       ?OnButtonClick@Player_Faction@@UAEXXZ 00451660 f   UiShell.obj
 0001:00050670       ?GetShortKey@Player_Faction@@UAEPBDXZ 00451670 f   UiShell.obj
 0001:00050680       ?OnButtonClick@Player_Sit@@UAEXXZ 00451680 f   UiShell.obj
 0001:00050690       ?UpdateData@Player_Sit@@UAEXXZ 00451690 f   UiShell.obj
 0001:000506e0       ?GetShortKey@Player_Sit@@UAEPBDXZ 004516e0 f   UiShell.obj
 0001:00050700       ?OnButtonClick@Player_Run@@UAEXXZ 00451700 f   UiShell.obj
 0001:00050710       ?UpdateData@Player_Run@@UAEXXZ 00451710 f   UiShell.obj
 0001:00050760       ?GetShortKey@Player_Run@@UAEPBDXZ 00451760 f   UiShell.obj
 0001:00050780       ?OnButtonClick@Player_Horse@@UAEXXZ 00451780 f   UiShell.obj
 0001:00050790       ?UpdateData@Player_Horse@@UAEXXZ 00451790 f   UiShell.obj
 0001:000507e0       ?GetShortKey@Player_Horse@@UAEPBDXZ 004517e0 f   UiShell.obj
 0001:00050800       ?OnButtonClick@Player_Exchange@@UAEXXZ 00451800 f   UiShell.obj
 0001:00050810       ?UpdateData@Player_Exchange@@UAEXXZ 00451810 f   UiShell.obj
 0001:00050840       ?GetShortKey@Player_Exchange@@UAEPBDXZ 00451840 f   UiShell.obj
 0001:00050860       ?OnButtonClick@Player_PK@@UAEXXZ 00451860 f   UiShell.obj
 0001:00050870       ?UpdateData@Player_PK@@UAEXXZ 00451870 f   UiShell.obj
 0001:000508a0       ?GetShortKey@Player_PK@@UAEPBDXZ 004518a0 f   UiShell.obj
 0001:000508c0       ??0CChatFilter@@QAE@XZ     004518c0 f   ChatFilter.obj
 0001:000508d0       ??_GCChatFilter@@UAEPAXI@Z 004518d0 f i ChatFilter.obj
 0001:000508d0       ??_ECChatFilter@@UAEPAXI@Z 004518d0 f i ChatFilter.obj
 0001:000508f0       ??1CChatFilter@@UAE@XZ     004518f0 f   ChatFilter.obj
 0001:00050900       ?Initialize@CChatFilter@@QAEHXZ 00451900 f   ChatFilter.obj
 0001:00050ab0       ?Uninitialize@CChatFilter@@QAEHXZ 00451ab0 f   ChatFilter.obj
 0001:00050ad0       ?IsTextPass@CChatFilter@@QAEHPBD@Z 00451ad0 f   ChatFilter.obj
 0001:00050af0       ??0CFilterTextLib@@QAE@XZ  00451af0 f   FilterTextLib.obj
 0001:00050b00       ??_ECFilterTextLib@@UAEPAXI@Z 00451b00 f i FilterTextLib.obj
 0001:00050b00       ??_GCFilterTextLib@@UAEPAXI@Z 00451b00 f i FilterTextLib.obj
 0001:00050b20       ??1CFilterTextLib@@UAE@XZ  00451b20 f   FilterTextLib.obj
 0001:00050b30       ?Initialize@CFilterTextLib@@QAEHXZ 00451b30 f   FilterTextLib.obj
 0001:00050b40       ?Uninitialize@CFilterTextLib@@QAEHXZ 00451b40 f   FilterTextLib.obj
 0001:00050b50       ?CreateTextFilter@CFilterTextLib@@QAEJPAPAUITextFilter@@@Z 00451b50 f   FilterTextLib.obj
 0001:00050ba0       ??1KMyApp@@QAE@XZ          00451ba0 f i S3Client.obj
 0001:00050d00       _WinMain@16                00451d00 f   S3Client.obj
 0001:00050d90       ??0KMyApp@@QAE@XZ          00451d90 f   S3Client.obj
 0001:00050e40       ?InitRepresentShell@@YAHHHH@Z 00451e40 f   S3Client.obj
 0001:00050f20       ?GameInit@KMyApp@@UAEHXZ   00451f20 f   S3Client.obj
 0001:00051270       ?GameExit@KMyApp@@UAEHXZ   00452270 f   S3Client.obj
 0001:00051370       ??1KInlinePicSink@@QAE@XZ  00452370 f i S3Client.obj
 0001:000513e0       ?GameLoop@KMyApp@@UAEHXZ   004523e0 f   S3Client.obj
 0001:000514d0       ?HandleInput@KMyApp@@MAEHIIJ@Z 004524d0 f   S3Client.obj
 0001:000515f0       ??0KNetConnectAgent@@QAE@XZ 004525f0 f   NetConnectAgent.obj
 0001:00051630       ??1KNetConnectAgent@@QAE@XZ 00452630 f   NetConnectAgent.obj
 0001:00051640       ?Initialize@KNetConnectAgent@@QAEHXZ 00452640 f   NetConnectAgent.obj
 0001:000516d0       ?Exit@KNetConnectAgent@@QAEXXZ 004526d0 f   NetConnectAgent.obj
 0001:00051730       ?ClientConnectByNumericIp@KNetConnectAgent@@QAEHPBEG@Z 00452730 f   NetConnectAgent.obj
 0001:00051820       ?DisconnectClient@KNetConnectAgent@@QAEXXZ 00452820 f   NetConnectAgent.obj
 0001:00051880       ?ConnectToGameSvr@KNetConnectAgent@@QAEHPBEGPAU_GUID@@@Z 00452880 f   NetConnectAgent.obj
 0001:000519e0       ?DisconnectGameSvr@KNetConnectAgent@@QAEXXZ 004529e0 f   NetConnectAgent.obj
 0001:00051a50       ?SendMsg@KNetConnectAgent@@QAEHPBXH@Z 00452a50 f   NetConnectAgent.obj
 0001:00051a80       ?Breathe@KNetConnectAgent@@QAEXXZ 00452a80 f   NetConnectAgent.obj
 0001:00051bd0       ?RegisterMsgTargetObject@KNetConnectAgent@@QAEXEPAUiKNetMsgTargetObject@@@Z 00452bd0 f   NetConnectAgent.obj
 0001:00051bf0       ?TobeDisconnect@KNetConnectAgent@@QAEXXZ 00452bf0 f   NetConnectAgent.obj
 0001:00051c00       ?UpdateClientRequestTime@KNetConnectAgent@@QAEX_NI@Z 00452c00 f   NetConnectAgent.obj
 0001:00051c60       ?IsConnecting@KNetConnectAgent@@QAEHH@Z 00452c60 f   NetConnectAgent.obj
 0001:00051c80       ?ClientCallBack@@YGXPAXABK@Z 00452c80 f   NetConnectAgent.obj
 0001:00051cc0       ?ProcessSwitchGameSvrMsg@KNetConnectAgent@@AAE_NPAX@Z 00452cc0 f   NetConnectAgent.obj
 0001:00051e00       ?GetIpAddress@@YA_NPBDPAE@Z 00452e00 f   Login.obj
 0001:00051ec0       ?RandMemSet@@YAXHPAE@Z     00452ec0 f   Login.obj
 0001:00051ef0       ??0KLogin@@QAE@XZ          00452ef0 f   Login.obj
 0001:00051f30       ?ClearAccountPassword@KLogin@@AAEX_N0@Z 00452f30 f   Login.obj
 0001:00051f70       ??1KLogin@@QAE@XZ          00452f70 f   Login.obj
 0001:00051f80       ?CreateConnection@KLogin@@QAEHPBE@Z 00452f80 f   Login.obj
 0001:00052010       ?AccountLogin@KLogin@@QAEHPBDABUtagKSG_PASSWORD@@_N@Z 00453010 f   Login.obj
 0001:00052080       ?SelectRole@KLogin@@QAEHH@Z 00453080 f   Login.obj
 0001:00052160       ?CreateRole@KLogin@@QAEHPAUKRoleChiefInfo@@@Z 00453160 f   Login.obj
 0001:00052270       ?DeleteRole@KLogin@@QAEHHABUtagKSG_PASSWORD@@@Z 00453270 f   Login.obj
 0001:00052390       ?NotifyTimeout@KLogin@@QAEXXZ 00453390 f   Login.obj
 0001:000523b0       ?NotifyDisconnect@KLogin@@QAEXXZ 004533b0 f   Login.obj
 0001:000523d0       ?NotifyToStartGame@KLogin@@QAEXXZ 004533d0 f   Login.obj
 0001:00052440       ?ReturnToIdle@KLogin@@QAEXXZ 00453440 f   Login.obj
 0001:00052480       ?AutoLogin@KLogin@@QAEXXZ  00453480 f   Login.obj
 0001:00052500       ?IsAutoLoginEnable@KLogin@@QAEHXZ 00453500 f   Login.obj
 0001:00052540       ?SetRememberAccountFlag@KLogin@@QAEX_N@Z 00453540 f   Login.obj
 0001:00052560       ?SetRememberAllFlag@KLogin@@QAEX_N@Z 00453560 f   Login.obj
 0001:00052580       ?GetRoleInfo@KLogin@@QAEHHPAUKRoleChiefInfo@@@Z 00453580 f   Login.obj
 0001:000525c0       ?ProcessAccountLoginResponse@KLogin@@AAEXPAUKLoginStructHead@@@Z 004535c0 f   Login.obj
 0001:00052750       ?ProcessRoleListResponse@KLogin@@AAEXPAUTProcessData@@@Z 00453750 f   Login.obj
 0001:00052850       ?ProcessCreateRoleResponse@KLogin@@AAEXPAUtagNewDelRoleResponse@@@Z 00453850 f   Login.obj
 0001:000528b0       ?ProcessDeleteRoleResponse@KLogin@@AAEXPAUtagNewDelRoleResponse@@@Z 004538b0 f   Login.obj
 0001:000529d0       ?ProcessToLoginGameServResponse@KLogin@@AAEXPAUtagNotifyPlayerLogin@@@Z 004539d0 f   Login.obj
 0001:00052aa0       ?AcceptNetMsg@KLogin@@UAEXPAX@Z 00453aa0 f   Login.obj
 0001:00052b00       ?GetResult@KLogin@@QAE?AW4LOGIN_LOGIC_RESULT_INFO@@XZ 00453b00 f   Login.obj
 0001:00052b10       ?GetRoleCount@KLogin@@QAEHAAH@Z 00453b10 f   Login.obj
 0001:00052ba0       ?GetLoginAccount@KLogin@@QAE_NPAD@Z 00453ba0 f   Login.obj
 0001:00052bc0       ?LoadLoginChoice@KLogin@@QAEXXZ 00453bc0 f   Login.obj
 0001:00052d70       ?SaveLoginChoice@KLogin@@QAEXXZ 00453d70 f   Login.obj
 0001:00052f10       ?GetServerRegionList@KLogin@@QAEPAUKLoginServer@@AAH0@Z 00453f10 f   Login.obj
 0001:00053080       ?GetServerList@KLogin@@QAEPAUKLoginServer@@HAAH0@Z 00454080 f   Login.obj
 0001:000533c0       ?SetAccountServer@KLogin@@QAEHABUKLoginServer@@@Z 004543c0 f   Login.obj
 0001:000533e0       ?Request@KLogin@@AAEHPBDPBUtagKSG_PASSWORD@@H@Z 004543e0 f   Login.obj
 0001:00053490       ?ConnectAccountServer@KLogin@@AAEHPBE@Z 00454490 f   Login.obj
 0001:00053560       ?RegistNetAgent@KLogin@@AAEXXZ 00454560 f   Login.obj
 0001:000535a0       ?UnRegistNetAgent@KLogin@@AAEXXZ 004545a0 f   Login.obj
 0001:000535e0       ?SetAccountPassword@KLogin@@AAEXPBDPBUtagKSG_PASSWORD@@@Z 004545e0 f   Login.obj
 0001:00053650       ?GetAccountPassword@KLogin@@AAEXPADPAUtagKSG_PASSWORD@@@Z 00454650 f   Login.obj
 0001:000536b0       ?TextMsgFilter@@YAHPBDH@Z  004546b0 f   TextCtrlCmd.obj
 0001:000536e0       ?Error_SetErrorCode@@YAXI@Z 004546e0 f   ErrorCode.obj
 0001:000536f0       ?Error_SetErrorString@@YAXPBD@Z 004546f0 f   ErrorCode.obj
 0001:00053710       ?Error_Box@@YAXXZ          00454710 f   ErrorCode.obj
 0001:00053940       _DeleteFileA@4             00454940 f   kernel32:KERNEL32.dll
 0001:00053946       _GetTempFileNameA@16       00454946 f   kernel32:KERNEL32.dll
 0001:0005394c       _GetTempPathA@8            0045494c f   kernel32:KERNEL32.dll
 0001:00053952       _GetTickCount@0            00454952 f   kernel32:KERNEL32.dll
 0001:00053958       _MulDiv@12                 00454958 f   kernel32:KERNEL32.dll
 0001:0005395e       _FreeLibrary@4             0045495e f   kernel32:KERNEL32.dll
 0001:00053964       _GetProcAddress@8          00454964 f   kernel32:KERNEL32.dll
 0001:0005396a       _LoadLibraryA@4            0045496a f   kernel32:KERNEL32.dll
 0001:00053970       _SystemTimeToTzSpecificLocalTime@12 00454970 f   kernel32:KERNEL32.dll
 0001:00053976       _RemoveDirectoryA@4        00454976 f   kernel32:KERNEL32.dll
 0001:0005397c       _FindClose@4               0045497c f   kernel32:KERNEL32.dll
 0001:00053982       _FindNextFileA@8           00454982 f   kernel32:KERNEL32.dll
 0001:00053988       _SetFileAttributesA@8      00454988 f   kernel32:KERNEL32.dll
 0001:0005398e       _FindFirstFileA@8          0045498e f   kernel32:KERNEL32.dll
 0001:00053994       _GetVersion@0              00454994 f   kernel32:KERNEL32.dll
 0001:0005399a       _FreeConsole@0             0045499a f   kernel32:KERNEL32.dll
 0001:000539a0       _AllocConsole@0            004549a0 f   kernel32:KERNEL32.dll
 0001:000539a6       _Sleep@4                   004549a6 f   kernel32:KERNEL32.dll
 0001:000539ac       _SetCursor@4               004549ac f   user32:USER32.dll
 0001:000539b2       _LoadCursorA@8             004549b2 f   user32:USER32.dll
 0001:000539b8       _LoadCursorFromFileA@4     004549b8 f   user32:USER32.dll
 0001:000539be       _ShowCursor@4              004549be f   user32:USER32.dll
 0001:000539c4       _SetCaretPos@8             004549c4 f   user32:USER32.dll
 0001:000539ca       _CloseClipboard@0          004549ca f   user32:USER32.dll
 0001:000539d0       _EmptyClipboard@0          004549d0 f   user32:USER32.dll
 0001:000539d6       _GetClipboardData@4        004549d6 f   user32:USER32.dll
 0001:000539dc       _OpenClipboard@4           004549dc f   user32:USER32.dll
 0001:000539e2       _GetKeyState@4             004549e2 f   user32:USER32.dll
 0001:000539e8       _SetCursorPos@8            004549e8 f   user32:USER32.dll
 0001:000539ee       _ClientToScreen@8          004549ee f   user32:USER32.dll
 0001:000539f4       _SendMessageA@16           004549f4 f   user32:USER32.dll
 0001:000539fa       _SetWindowTextA@8          004549fa f   user32:USER32.dll
 0001:00053a00       _MessageBoxA@16            00454a00 f   user32:USER32.dll
 0001:00053a06       _SHGetSpecialFolderPathA@16 00454a06 f   shell32:SHELL32.dll
 0001:00053a0c       _lua_tostring              00454a0c f   lualibdll:LuaLibDll.dll
 0001:00053a12       _lua_gettop                00454a12 f   lualibdll:LuaLibDll.dll
 0001:00053a18       _lua_tonumber              00454a18 f   lualibdll:LuaLibDll.dll
 0001:00053a1e       _lua_type                  00454a1e f   lualibdll:LuaLibDll.dll
 0001:00053a24       _lua_pushnumber            00454a24 f   lualibdll:LuaLibDll.dll
 0001:00053a2a       _lua_pushstring            00454a2a f   lualibdll:LuaLibDll.dll
 0001:00053a30       _TEncodeText               00454a30 f   engine:Engine.dll
 0001:00053a36       _TGetEncodedTextLineCount  00454a36 f   engine:Engine.dll
 0001:00053a3c       ??1KIniFile@@QAE@XZ        00454a3c f   engine:Engine.dll
 0001:00053a42       ?GetString@KIniFile@@QAEHPBD00PADK@Z 00454a42 f   engine:Engine.dll
 0001:00053a48       ?GetInteger@KIniFile@@QAEHPBD0HPAH@Z 00454a48 f   engine:Engine.dll
 0001:00053a4e       ?Load@KIniFile@@QAEHPBD@Z  00454a4e f   engine:Engine.dll
 0001:00053a54       ??0KIniFile@@QAE@XZ        00454a54 f   engine:Engine.dll
 0001:00053a5a       _TFindSpecialCtrlInEncodedText 00454a5a f   engine:Engine.dll
 0001:00053a60       ?g_CreatePath@@YAXPAD@Z    00454a60 f   engine:Engine.dll
 0001:00053a66       _AdviseEngine              00454a66 f   engine:Engine.dll
 0001:00053a6c       _UnAdviseEngine            00454a6c f   engine:Engine.dll
 0001:00053a72       ??1KPakFile@@QAE@XZ        00454a72 f   engine:Engine.dll
 0001:00053a78       ??1KFile@@QAE@XZ           00454a78 f   engine:Engine.dll
 0001:00053a7e       ?Close@KFile@@QAEXXZ       00454a7e f   engine:Engine.dll
 0001:00053a84       ?Close@KPakFile@@QAEXXZ    00454a84 f   engine:Engine.dll
 0001:00053a8a       ?Read@KPakFile@@QAEKPAXI@Z 00454a8a f   engine:Engine.dll
 0001:00053a90       ?Write@KFile@@QAEKPAXK@Z   00454a90 f   engine:Engine.dll
 0001:00053a96       ?Size@KPakFile@@QAEKXZ     00454a96 f   engine:Engine.dll
 0001:00053a9c       ?Open@KPakFile@@QAEHPBD@Z  00454a9c f   engine:Engine.dll
 0001:00053aa2       ?Create@KFile@@QAEHPAD@Z   00454aa2 f   engine:Engine.dll
 0001:00053aa8       ??0KFile@@QAE@XZ           00454aa8 f   engine:Engine.dll
 0001:00053aae       ??0KPakFile@@QAE@XZ        00454aae f   engine:Engine.dll
 0001:00053ab4       ??0KIme@@QAE@XZ            00454ab4 f   engine:Engine.dll
 0001:00053aba       ??1KIme@@QAE@XZ            00454aba f   engine:Engine.dll
 0001:00053ac0       ?CloseIME@KIme@@QAEXXZ     00454ac0 f   engine:Engine.dll
 0001:00053ac6       ?DisableLanguageChange@KIme@@QAEXXZ 00454ac6 f   engine:Engine.dll
 0001:00053acc       ?IsIme@KIme@@QAEHXZ        00454acc f   engine:Engine.dll
 0001:00053ad2       ?SetCaretPos@KIme@@QAEXHH@Z 00454ad2 f   engine:Engine.dll
 0001:00053ad8       ?OpenIME@KIme@@QAEXXZ      00454ad8 f   engine:Engine.dll
 0001:00053ade       ?EnableLanguageChange@KIme@@QAEXXZ 00454ade f   engine:Engine.dll
 0001:00053ae4       _TSplitString              00454ae4 f   engine:Engine.dll
 0001:00053aea       _TGetLimitLenString        00454aea f   engine:Engine.dll
 0001:00053af0       _TRemoveCtrlInEncodedText  00454af0 f   engine:Engine.dll
 0001:00053af6       ?GetInteger2@KIniFile@@QAEXPBD0PAH1@Z 00454af6 f   engine:Engine.dll
 0001:00053afc       ?g_GetMainHWnd@@YAPAUHWND__@@XZ 00454afc f   engine:Engine.dll
 0001:00053b02       ?KSG_StringToMD5String@@YAHQADQBD@Z 00454b02 f   engine:Engine.dll
 0001:00053b08       ?WriteInteger@KIniFile@@QAEXPBD0H@Z 00454b08 f   engine:Engine.dll
 0001:00053b0e       ?g_GetFullPath@@YAXPAD0@Z  00454b0e f   engine:Engine.dll
 0001:00053b14       ?GetStruct@KIniFile@@QAEXPBD0PAXK@Z 00454b14 f   engine:Engine.dll
 0001:00053b1a       ?EraseKey@KIniFile@@QAEXPBD0@Z 00454b1a f   engine:Engine.dll
 0001:00053b20       ?WriteStruct@KIniFile@@QAEXPBD0PAXK@Z 00454b20 f   engine:Engine.dll
 0001:00053b26       ?WriteString@KIniFile@@QAEXPBD00@Z 00454b26 f   engine:Engine.dll
 0001:00053b2c       _TClearSpecialCtrlInEncodedText 00454b2c f   engine:Engine.dll
 0001:00053b32       ?Read@KFile@@QAEKPAXK@Z    00454b32 f   engine:Engine.dll
 0001:00053b38       ?Open@KFile@@QAEHPAD@Z     00454b38 f   engine:Engine.dll
 0001:00053b3e       ?Clear@KIniFile@@QAEXXZ    00454b3e f   engine:Engine.dll
 0001:00053b44       _TGetEncodedTextEffectCtrls 00454b44 f   engine:Engine.dll
 0001:00053b4a       _TSplitEncodedString       00454b4a f   engine:Engine.dll
 0001:00053b50       _TGetEncodedTextOutputLenPos 00454b50 f   engine:Engine.dll
 0001:00053b56       ?IsSectionExist@KIniFile@@QAEHPBD@Z 00454b56 f   engine:Engine.dll
 0001:00053b5c       ?Save@KIniFile@@QAEHPBD@Z  00454b5c f   engine:Engine.dll
 0001:00053b62       ?EraseSection@KIniFile@@QAEXPBD@Z 00454b62 f   engine:Engine.dll
 0001:00053b68       ??0KLuaScript@@QAE@XZ      00454b68 f   engine:Engine.dll
 0001:00053b6e       ??1KLuaScript@@UAE@XZ      00454b6e f   engine:Engine.dll
 0001:00053b74       ?g_GetRootPath@@YAXPAD@Z   00454b74 f   engine:Engine.dll
 0001:00053b7a       ?RegisterFunctions@KLuaScript@@QAEHQAUTLua_Funcs@@H@Z 00454b7a f   engine:Engine.dll
 0001:00053b80       ?Init@KLuaScript@@UAEHXZ   00454b80 f   engine:Engine.dll
 0001:00053b86       ?Load@KLuaScript@@UAEHPAD@Z 00454b86 f   engine:Engine.dll
 0001:00053b8c       ?ExecuteCode@KLuaScript@@QAEHXZ 00454b8c f   engine:Engine.dll
 0001:00053b92       ?LoadBuffer@KLuaScript@@QAEHPAEK@Z 00454b92 f   engine:Engine.dll
 0001:00053b98       ?TurnOn@KIme@@QAEXXZ       00454b98 f   engine:Engine.dll
 0001:00053b9e       ?g_FileName2Id@@YAKPAD@Z   00454b9e f   engine:Engine.dll
 0001:00053ba4       _EDOneTimePad_Decipher     00454ba4 f   engine:Engine.dll
 0001:00053baa       ??1KMp3Music@@UAE@XZ       00454baa f   engine:Engine.dll
 0001:00053bb0       ??1KMusic@@UAE@XZ          00454bb0 f   engine:Engine.dll
 0001:00053bb6       ??1KMemClass@@QAE@XZ       00454bb6 f   engine:Engine.dll
 0001:00053bbc       ??1KDirectSound@@QAE@XZ    00454bbc f   engine:Engine.dll
 0001:00053bc2       ??0KPakList@@QAE@XZ        00454bc2 f   engine:Engine.dll
 0001:00053bc8       ??1KPakList@@QAE@XZ        00454bc8 f   engine:Engine.dll
 0001:00053bce       ?Run@KWin32App@@UAEXXZ     00454bce f   engine:Engine.dll
 0001:00053bd4       ?Init@KWin32App@@UAEHPAUHINSTANCE__@@PAD@Z 00454bd4 f   engine:Engine.dll
 0001:00053bda       ?MsgProc@KWin32App@@UAEJPAUHWND__@@IIJ@Z 00454bda f   engine:Engine.dll
 0001:00053be0       ?SetMultiGame@KWin32App@@UAEXH@Z 00454be0 f   engine:Engine.dll
 0001:00053be6       ?ShowMouse@KWin32App@@UAEXH@Z 00454be6 f   engine:Engine.dll
 0001:00053bec       ?InitWindow@KWin32App@@MAEHPAUHINSTANCE__@@@Z 00454bec f   engine:Engine.dll
 0001:00053bf2       ?InitClass@KWin32App@@MAEHPAUHINSTANCE__@@@Z 00454bf2 f   engine:Engine.dll
 0001:00053bf8       ??0KTimer@@QAE@XZ          00454bf8 f   engine:Engine.dll
 0001:00053bfe       ??0KDirectSound@@QAE@XZ    00454bfe f   engine:Engine.dll
 0001:00053c04       ??0KMemClass@@QAE@XZ       00454c04 f   engine:Engine.dll
 0001:00053c0a       ??0KMusic@@QAE@XZ          00454c0a f   engine:Engine.dll
 0001:00053c10       ??0KWin32App@@QAE@XZ       00454c10 f   engine:Engine.dll
 0001:00053c16       ?SetMouseHoverTime@KWin32App@@QAEXI@Z 00454c16 f   engine:Engine.dll
 0001:00053c1c       ?Start@KTimer@@QAEXXZ      00454c1c f   engine:Engine.dll
 0001:00053c22       ?Init@KDirectSound@@QAEHXZ 00454c22 f   engine:Engine.dll
 0001:00053c28       ?Open@KPakList@@QAE_NPBD@Z 00454c28 f   engine:Engine.dll
 0001:00053c2e       ?g_SetFilePath@@YAXPAD@Z   00454c2e f   engine:Engine.dll
 0001:00053c34       ?g_SetRootPath@@YAXPAD@Z   00454c34 f   engine:Engine.dll
 0001:00053c3a       ?Exit@KDirectSound@@QAEXXZ 00454c3a f   engine:Engine.dll
 0001:00053c40       ?GetElapse@KTimer@@QAEKXZ  00454c40 f   engine:Engine.dll
 0001:00053c46       ?g_DebugLog@@YAXPADZZ      00454c46 f   engine:Engine.dll
 0001:00053c4c       _EDOneTimePad_Encipher     00454c4c f   engine:Engine.dll
 0001:00053c52       _CoreGetShell              00454c52 f   CoreClient:CoreClient.dll
 0001:00053c58       _sprintf                   00454c58 f   MSVCRT:MSVCRT.dll
 0001:00053c5e       ___CxxFrameHandler         00454c5e f   MSVCRT:MSVCRT.dll
 0001:00053c70       _free                      00454c70 f   MSVCRT:MSVCRT.dll
 0001:00053c76       _strftime                  00454c76 f   MSVCRT:MSVCRT.dll
 0001:00053c7c       _localtime                 00454c7c f   MSVCRT:MSVCRT.dll
 0001:00053c82       _time                      00454c82 f   MSVCRT:MSVCRT.dll
 0001:00053c88       ??3@YAXPAX@Z               00454c88 f   MSVCRT:MSVCRT.dll
 0001:00053c8e       ??2@YAPAXI@Z               00454c8e f   MSVCRT:MSVCRT.dll
 0001:00053c94       _strncpy                   00454c94 f   MSVCRT:MSVCRT.dll
 0001:00053ca0       __chkstk                   00454ca0 f   MSVCRT:chkstk.obj
 0001:00053ca0       __alloca_probe             00454ca0 f   MSVCRT:chkstk.obj
 0001:00053ccf       __onexit                   00454ccf f   MSVCRT:atonexit.obj
 0001:00053cfb       _atexit                    00454cfb f   MSVCRT:atonexit.obj
 0001:00053d0e       _memmove                   00454d0e f   MSVCRT:MSVCRT.dll
 0001:00053d14       _atoi                      00454d14 f   MSVCRT:MSVCRT.dll
 0001:00053d1a       _malloc                    00454d1a f   MSVCRT:MSVCRT.dll
 0001:00053d20       _realloc                   00454d20 f   MSVCRT:MSVCRT.dll
 0001:00053d26       ??_M@YGXPAXIHP6EX0@Z@Z     00454d26 f   MSVCRT:ehvecdtr.obj
 0001:00053da6       ?__ArrayUnwind@@YGXPAXIHP6EX0@Z@Z 00454da6 f   MSVCRT:ehvecdtr.obj
 0001:00053e1a       ??_L@YGXPAXIHP6EX0@Z1@Z    00454e1a f   MSVCRT:ehvecctr.obj
 0001:00053e9c       _rand                      00454e9c f   MSVCRT:MSVCRT.dll
 0001:00053ea2       __mbsicmp                  00454ea2 f   MSVCRT:MSVCRT.dll
 0001:00053ea8       _strstr                    00454ea8 f   MSVCRT:MSVCRT.dll
 0001:00053eae       _srand                     00454eae f   MSVCRT:MSVCRT.dll
 0001:00053eb4       _mktime                    00454eb4 f   MSVCRT:MSVCRT.dll
 0001:00053eba       _fclose                    00454eba f   MSVCRT:MSVCRT.dll
 0001:00053ec0       _fopen                     00454ec0 f   MSVCRT:MSVCRT.dll
 0001:00053ec6       _remove                    00454ec6 f   MSVCRT:MSVCRT.dll
 0001:00053ecc       __ftol                     00454ecc f   MSVCRT:MSVCRT.dll
 0001:00053ed2       _isgraph                   00454ed2 f   MSVCRT:MSVCRT.dll
 0001:00053ed8       _strchr                    00454ed8 f   MSVCRT:MSVCRT.dll
 0001:00053ede       _sscanf                    00454ede f   MSVCRT:MSVCRT.dll
 0001:00053ee4       _WinMainCRTStartup         00454ee4 f   MSVCRT:crtexew.obj
 0001:00054042       ___dllonexit               00455042 f   MSVCRT:MSVCRT.dll
 0001:00054048       __except_handler3          00455048 f   MSVCRT:MSVCRT.dll
 0001:0005404e       ?terminate@@YAXXZ          0045504e f   MSVCRT:MSVCRT.dll
 0001:00054054       __exit                     00455054 f   MSVCRT:MSVCRT.dll
 0001:0005405a       __XcptFilter               0045505a f   MSVCRT:MSVCRT.dll
 0001:00054060       _exit                      00455060 f   MSVCRT:MSVCRT.dll
 0001:00054066       ___getmainargs             00455066 f   MSVCRT:MSVCRT.dll
 0001:0005406c       __initterm                 0045506c f   MSVCRT:MSVCRT.dll
 0001:00054072       __setdefaultprecision      00455072 f   MSVCRT:fp8.obj
 0001:00054084       ___setusermatherr          00455084 f   MSVCRT:MSVCRT.dll
 0001:0005408a       __matherr                  0045508a f   MSVCRT:merr.obj
 0001:0005408d       __setargv                  0045508d f   MSVCRT:dllargv.obj
 0001:0005408e       ___p__commode              0045508e f   MSVCRT:MSVCRT.dll
 0001:00054094       ___p__fmode                00455094 f   MSVCRT:MSVCRT.dll
 0001:0005409a       ___set_app_type            0045509a f   MSVCRT:MSVCRT.dll
 0001:000540a0       __controlfp                004550a0 f   MSVCRT:MSVCRT.dll
 0001:000540b0       ??1?$basic_string@DU?$char_traits@D@std@@V?$allocator@D@2@@std@@QAE@XZ 004550b0 f   msvcprt:MSVCP60.dll
 0001:000540b6       ?assign@?$basic_string@DU?$char_traits@D@std@@V?$allocator@D@2@@std@@QAEAAV12@PBDI@Z 004550b6 f   msvcprt:MSVCP60.dll
 0001:000540bc       ?_Grow@?$basic_string@DU?$char_traits@D@std@@V?$allocator@D@2@@std@@AAE_NI_N@Z 004550bc f   msvcprt:MSVCP60.dll
 0001:000540c2       ?_Tidy@?$basic_string@DU?$char_traits@D@std@@V?$allocator@D@2@@std@@AAEX_N@Z 004550c2 f   msvcprt:MSVCP60.dll
 0001:000540c8       ?assign@?$basic_string@DU?$char_traits@D@std@@V?$allocator@D@2@@std@@QAEAAV12@ABV12@II@Z 004550c8 f   msvcprt:MSVCP60.dll
 0001:000540ce       ?append@?$basic_string@DU?$char_traits@D@std@@V?$allocator@D@2@@std@@QAEAAV12@ABV12@II@Z 004550ce f   msvcprt:MSVCP60.dll
 0001:000540d4       ?append@?$basic_string@DU?$char_traits@D@std@@V?$allocator@D@2@@std@@QAEAAV12@PBDI@Z 004550d4 f   msvcprt:MSVCP60.dll
 0001:000540da       ?_Copy@?$basic_string@DU?$char_traits@D@std@@V?$allocator@D@2@@std@@AAEXI@Z 004550da f   msvcprt:MSVCP60.dll
 0001:000540e0       ?_Xlen@std@@YAXXZ          004550e0 f   msvcprt:MSVCP60.dll
 0001:000540e6       ??1_Lockit@std@@QAE@XZ     004550e6 f   msvcprt:MSVCP60.dll
 0001:000540ec       ??0_Lockit@std@@QAE@XZ     004550ec f   msvcprt:MSVCP60.dll
 0001:000540f2       ??Mstd@@YA_NABV?$basic_string@DU?$char_traits@D@std@@V?$allocator@D@2@@0@0@Z 004550f2 f   msvcprt:MSVCP60.dll
 0001:000540f8       ??0?$basic_string@DU?$char_traits@D@std@@V?$allocator@D@2@@std@@QAE@ABV01@@Z 004550f8 f   msvcprt:MSVCP60.dll
 0001:000540fe       ??8std@@YA_NABV?$basic_string@DU?$char_traits@D@std@@V?$allocator@D@2@@0@0@Z 004550fe f   msvcprt:MSVCP60.dll
 0001:00054104       ?_Eos@?$basic_string@DU?$char_traits@D@std@@V?$allocator@D@2@@std@@AAEXI@Z 00455104 f   msvcprt:MSVCP60.dll
 0001:0005410a       ??8std@@YA_NABV?$basic_string@DU?$char_traits@D@std@@V?$allocator@D@2@@0@PBD@Z 0045510a f   msvcprt:MSVCP60.dll
 0001:00054110       ?erase@?$basic_string@DU?$char_traits@D@std@@V?$allocator@D@2@@std@@QAEAAV12@II@Z 00455110 f   msvcprt:MSVCP60.dll
 0001:00054116       ?max_size@?$basic_string@DU?$char_traits@D@std@@V?$allocator@D@2@@std@@QBEIXZ 00455116 f   msvcprt:MSVCP60.dll
 0001:0005411c       ?assign@?$basic_string@DU?$char_traits@D@std@@V?$allocator@D@2@@std@@QAEAAV12@ID@Z 0045511c f   msvcprt:MSVCP60.dll
 0001:00054122       ?_Split@?$basic_string@DU?$char_traits@D@std@@V?$allocator@D@2@@std@@AAEXXZ 00455122 f   msvcprt:MSVCP60.dll
 0001:00054128       ?_Xran@std@@YAXXZ          00455128 f   msvcprt:MSVCP60.dll
 0001:00054130       ?AddExpression@CTextFilter@@MAEHPBD@Z 00455130 f   FilterText_StaticLib:FilterText.obj
 0001:00054470       ?Clearup@CTextFilter@@MAEHXZ 00455470 f   FilterText_StaticLib:FilterText.obj
 0001:00054580       ?IsTextPass@CTextFilter@@MAEHPBD@Z 00455580 f   FilterText_StaticLib:FilterText.obj
 0001:00054760       _CreateTextFilter          00455760 f   FilterText_StaticLib:FilterText.obj
 0001:00054790       ?CreateInstance@CTextFilter@@SAPAV1@XZ 00455790 f i FilterText_StaticLib:FilterText.obj
 0001:00054840       ?AddRef@CTextFilter@@MAGKXZ 00455840 f i FilterText_StaticLib:FilterText.obj
 0001:00054850       ?Release@CTextFilter@@MAGKXZ 00455850 f i FilterText_StaticLib:FilterText.obj
 0001:00054880       ??1CTextFilter@@IAE@XZ     00455880 f i FilterText_StaticLib:FilterText.obj
 0001:00054920       ?QueryInterface@CTextFilter@@MAGJABU_GUID@@PAPAX@Z 00455920 f i FilterText_StaticLib:FilterText.obj
 0001:00054930       ??_F?$vector@VRegexp@@V?$allocator@VRegexp@@@std@@@std@@QAEXXZ 00455930 f i FilterText_StaticLib:FilterText.obj
 0001:00054950       ??1?$vector@VRegexp@@V?$allocator@VRegexp@@@std@@@std@@QAE@XZ 00455950 f i FilterText_StaticLib:FilterText.obj
 0001:00054990       ?size@?$vector@VRegexp@@V?$allocator@VRegexp@@@std@@@std@@QBEIXZ 00455990 f i FilterText_StaticLib:FilterText.obj
 0001:000549c0       ?_Destroy@?$vector@VRegexp@@V?$allocator@VRegexp@@@std@@@std@@IAEXPAVRegexp@@0@Z 004559c0 f i FilterText_StaticLib:FilterText.obj
 0001:000549f0       ?insert@?$vector@VRegexp@@V?$allocator@VRegexp@@@std@@@std@@QAEXPAVRegexp@@IABV3@@Z 004559f0 f i FilterText_StaticLib:FilterText.obj
 0001:00054cd0       ?_Ucopy@?$vector@VRegexp@@V?$allocator@VRegexp@@@std@@@std@@IAEPAVRegexp@@PBV3@0PAV3@@Z 00455cd0 f i FilterText_StaticLib:FilterText.obj
 0001:00054d10       ?_Ufill@?$vector@VRegexp@@V?$allocator@VRegexp@@@std@@@std@@IAEXPAVRegexp@@IABV3@@Z 00455d10 f i FilterText_StaticLib:FilterText.obj
 0001:00054d40       ?fill@std@@YAXPAVRegexp@@0ABV2@@Z 00455d40 f i FilterText_StaticLib:FilterText.obj
 0001:00054d70       ?copy_backward@std@@YAPAVRegexp@@PAV2@00@Z 00455d70 f i FilterText_StaticLib:FilterText.obj
 0001:00054db0       ?_Construct@std@@YAXPAVRegexp@@ABV2@@Z 00455db0 f i FilterText_StaticLib:FilterText.obj
 0001:00054e00       ?regerror@CRegErrorHandler@@IBEXPBD@Z 00455e00 f   FilterText_StaticLib:Regexp.obj
 0001:00054eb0       ?regerror@CRegErrorHandler@@IBEXH@Z 00455eb0 f   FilterText_StaticLib:Regexp.obj
 0001:00054ed0       ?GetErrorString@CRegErrorHandler@@QBEABV?$basic_string@DU?$char_traits@D@std@@V?$allocator@D@2@@std@@XZ 00455ed0 f   FilterText_StaticLib:Regexp.obj
 0001:00054ee0       ?ClearErrorString@CRegErrorHandler@@IBEXXZ 00455ee0 f   FilterText_StaticLib:Regexp.obj
 0001:00054f90       ?FindErr@CRegErrorHandler@@CAPBDH@Z 00455f90 f   FilterText_StaticLib:Regexp.obj
 0001:00054fc0       ?regnode@CRegCompiler@@MAEPADH@Z 00455fc0 f   FilterText_StaticLib:Regexp.obj
 0001:00054fe0       ?reginsert@CRegCompiler@@MAEXDPAD@Z 00455fe0 f   FilterText_StaticLib:Regexp.obj
 0001:00055020       ?regtail@CRegCompiler@@MAEXPAD0@Z 00456020 f   FilterText_StaticLib:Regexp.obj
 0001:00055070       ?regoptail@CRegCompiler@@MAEXPAD0@Z 00456070 f   FilterText_StaticLib:Regexp.obj
 0001:00055090       ??0CRegCompilerBase@@QAE@PBD@Z 00456090 f   FilterText_StaticLib:Regexp.obj
 0001:000550c0       ??0CRegValidator@@QAE@PBD@Z 004560c0 f   FilterText_StaticLib:Regexp.obj
 0001:000550f0       ?regnode@CRegValidator@@MAEPADH@Z 004560f0 f i FilterText_StaticLib:Regexp.obj
 0001:00055100       ?regc@CRegValidator@@MAEXH@Z 00456100 f i FilterText_StaticLib:Regexp.obj
 0001:00055110       ?reginsert@CRegValidator@@MAEXDPAD@Z 00456110 f i FilterText_StaticLib:Regexp.obj
 0001:00055120       ?regtail@CRegValidator@@MAEXPAD0@Z 00456120 f i FilterText_StaticLib:Regexp.obj
 0001:00055130       ?regoptail@CRegValidator@@MAEXPAD0@Z 00456130 f i FilterText_StaticLib:Regexp.obj
 0001:00055140       ??0CRegCompiler@@QAE@PBDPAD@Z 00456140 f   FilterText_StaticLib:Regexp.obj
 0001:00055170       ?regc@CRegCompiler@@MAEXH@Z 00456170 f i FilterText_StaticLib:Regexp.obj
 0001:00055190       ??0regexp@@QAE@PBDH@Z      00456190 f   FilterText_StaticLib:Regexp.obj
 0001:00055250       ??1CRegProgramAccessor@@QAE@XZ 00456250 f i FilterText_StaticLib:Regexp.obj
 0001:00055290       ??0regexp@@QAE@ABV0@@Z     00456290 f   FilterText_StaticLib:Regexp.obj
 0001:00055370       ??1regexp@@QAE@XZ          00456370 f   FilterText_StaticLib:Regexp.obj
 0001:000553c0       ?regcomp@regexp@@QAE_NPBD@Z 004563c0 f   FilterText_StaticLib:Regexp.obj
 0001:00055630       ??1CRegValidator@@QAE@XZ   00456630 f i FilterText_StaticLib:Regexp.obj
 0001:00055680       ??1CRegCompiler@@QAE@XZ    00456680 f i FilterText_StaticLib:Regexp.obj
 0001:000556d0       ?getCopy@regexp@@QAEPAV1@XZ 004566d0 f   FilterText_StaticLib:Regexp.obj
 0001:00055730       ?reg@CRegCompilerBase@@QAEPADHPAH@Z 00456730 f   FilterText_StaticLib:Regexp.obj
 0001:000558c0       ?regbranch@CRegCompilerBase@@IAEPADPAH@Z 004568c0 f   FilterText_StaticLib:Regexp.obj
 0001:00055960       ?regpiece@CRegCompilerBase@@IAEPADPAH@Z 00456960 f   FilterText_StaticLib:Regexp.obj
 0001:00055b20       ?regatom@CRegCompilerBase@@IAEPADPAH@Z 00456b20 f   FilterText_StaticLib:Regexp.obj
 0001:00055f10       ??0CRegExecutor@@QAE@PAVregexp@@PAD@Z 00456f10 f   FilterText_StaticLib:Regexp.obj
 0001:00055f40       ?regexec@regexp@@QAE_NPBD@Z 00456f40 f   FilterText_StaticLib:Regexp.obj
 0001:00056110       ??1CRegExecutor@@QAE@XZ    00457110 f i FilterText_StaticLib:Regexp.obj
 0001:00056150       ?regtry@CRegExecutor@@IAE_NPAD@Z 00457150 f   FilterText_StaticLib:Regexp.obj
 0001:000561b0       ?regmatch@CRegExecutor@@IAE_NPAD@Z 004571b0 f   FilterText_StaticLib:Regexp.obj
 0001:00056500       ?regrepeat@CRegExecutor@@IAEIPAD@Z 00457500 f   FilterText_StaticLib:Regexp.obj
 0001:00056590       ??0Regexp@@QAE@XZ          00457590 f   FilterText_StaticLib:Regexp.obj
 0001:000565b0       ??0Regexp@@QAE@PBDH@Z      004575b0 f   FilterText_StaticLib:Regexp.obj
 0001:00056630       ??0Regexp@@QAE@ABV0@@Z     00457630 f   FilterText_StaticLib:Regexp.obj
 0001:00056780       ??4Regexp@@QAEABV0@ABV0@@Z 00457780 f   FilterText_StaticLib:Regexp.obj
 0001:00056920       ??1Regexp@@QAE@XZ          00457920 f   FilterText_StaticLib:Regexp.obj
 0001:00056990       ?Match@Regexp@@QAE_NPBD@Z  00457990 f   FilterText_StaticLib:Regexp.obj
 0001:00056ab0       ?GetReplaceString@Regexp@@QBE?AV?$basic_string@DU?$char_traits@D@std@@V?$allocator@D@2@@std@@PBD@Z 00457ab0 f   FilterText_StaticLib:Regexp.obj
 0001:00056bf0       ?SubStrings@Regexp@@QBEHXZ 00457bf0 f   FilterText_StaticLib:Regexp.obj
 0001:00056cc0       ?SubStart@Regexp@@QBEHI@Z  00457cc0 f   FilterText_StaticLib:Regexp.obj
 0001:00056db0       ?SubLength@Regexp@@QBEHI@Z 00457db0 f   FilterText_StaticLib:Regexp.obj
 0001:00056ea0       ?CompiledOK@Regexp@@QBE_NXZ 00457ea0 f   FilterText_StaticLib:Regexp.obj
 0001:00056eb0       ?safeIndex@Regexp@@ABEHI@Z 00457eb0 f   FilterText_StaticLib:Regexp.obj
 0001:00056ed0       ??ARegexp@@QBE?BV?$basic_string@DU?$char_traits@D@std@@V?$allocator@D@2@@std@@I@Z 00457ed0 f   FilterText_StaticLib:Regexp.obj
 0001:00057040       ?ignoreCase@regexp@@QAEXPBDPAD@Z 00458040 f   FilterText_StaticLib:Regexp.obj
 0001:000570d0       ?GetReplaceString@regexp@@QBE?AV?$basic_string@DU?$char_traits@D@std@@V?$allocator@D@2@@std@@PBD@Z 004580d0 f   FilterText_StaticLib:Regexp.obj
 0001:00057480       ?GetErrorString@Regexp@@QBE?AV?$basic_string@DU?$char_traits@D@std@@V?$allocator@D@2@@std@@XZ 00458480 f   FilterText_StaticLib:Regexp.obj
 0001:000575d0       ?ClearErrorString@Regexp@@ABEXXZ 004585d0 f   FilterText_StaticLib:Regexp.obj
 0001:00057690       _GetModuleHandleA@4        00458690 f   kernel32:KERNEL32.dll
 0001:00057696       _GetStartupInfoA@4         00458696 f   kernel32:KERNEL32.dll
 0001:0005769c       __itoa                     0045869c f   MSVCRT:MSVCRT.dll
 0001:000576a2       __strcmpi                  004586a2 f   MSVCRT:MSVCRT.dll
 0001:000576a8       __strlwr                   004586a8 f   MSVCRT:MSVCRT.dll
 0001:000576ae       __ismbcalpha               004586ae f   MSVCRT:MSVCRT.dll
 0001:000576b4       __purecall                 004586b4 f   MSVCRT:MSVCRT.dll
 0001:000576ba       __mbschr                   004586ba f   MSVCRT:MSVCRT.dll
 0001:000576c0       __mbsstr                   004586c0 f   MSVCRT:MSVCRT.dll
 0001:000576c6       __mbsnbcmp                 004586c6 f   MSVCRT:MSVCRT.dll
 0001:000576cc       _isalnum                   004586cc f   MSVCRT:MSVCRT.dll
 0001:000576d2       __mbscspn                  004586d2 f   MSVCRT:MSVCRT.dll
 0001:000576d8       __mbsspn                   004586d8 f   MSVCRT:MSVCRT.dll
 0001:000576de       _tolower                   004586de f   MSVCRT:MSVCRT.dll
 0001:000576e4       _isalpha                   004586e4 f   MSVCRT:MSVCRT.dll
 0001:000576ea       _toupper                   004586ea f   MSVCRT:MSVCRT.dll
 0001:000576f0       __mbsnbcpy                 004586f0 f   MSVCRT:MSVCRT.dll
 0001:000576f6       _isdigit                   004586f6 f   MSVCRT:MSVCRT.dll
 0002:00000000       __imp__CoreGetShell        0045e000     CoreClient:CoreClient.dll
 0002:00000004       \177CoreClient_NULL_THUNK_DATA 0045e004     CoreClient:CoreClient.dll
 0002:00000008       __imp_?Run@KWin32App@@UAEXXZ 0045e008     engine:Engine.dll
 0002:0000000c       __imp_??1KPakList@@QAE@XZ  0045e00c     engine:Engine.dll
 0002:00000010       __imp_??1KDirectSound@@QAE@XZ 0045e010     engine:Engine.dll
 0002:00000014       __imp_??1KMemClass@@QAE@XZ 0045e014     engine:Engine.dll
 0002:00000018       __imp_??1KMusic@@UAE@XZ    0045e018     engine:Engine.dll
 0002:0000001c       __imp_??1KMp3Music@@UAE@XZ 0045e01c     engine:Engine.dll
 0002:00000020       __imp__EDOneTimePad_Decipher 0045e020     engine:Engine.dll
 0002:00000024       __imp_?g_FileName2Id@@YAKPAD@Z 0045e024     engine:Engine.dll
 0002:00000028       __imp_?g_pIme@@3PAVKIme@@A 0045e028     engine:Engine.dll
 0002:0000002c       __imp_?Init@KWin32App@@UAEHPAUHINSTANCE__@@PAD@Z 0045e02c     engine:Engine.dll
 0002:00000030       __imp_?LoadBuffer@KLuaScript@@QAEHPAEK@Z 0045e030     engine:Engine.dll
 0002:00000034       __imp_?ExecuteCode@KLuaScript@@QAEHXZ 0045e034     engine:Engine.dll
 0002:00000038       __imp_?Load@KLuaScript@@UAEHPAD@Z 0045e038     engine:Engine.dll
 0002:0000003c       __imp_?Init@KLuaScript@@UAEHXZ 0045e03c     engine:Engine.dll
 0002:00000040       __imp_?RegisterFunctions@KLuaScript@@QAEHQAUTLua_Funcs@@H@Z 0045e040     engine:Engine.dll
 0002:00000044       __imp_?g_GetRootPath@@YAXPAD@Z 0045e044     engine:Engine.dll
 0002:00000048       __imp_??1KLuaScript@@UAE@XZ 0045e048     engine:Engine.dll
 0002:0000004c       __imp_??0KLuaScript@@QAE@XZ 0045e04c     engine:Engine.dll
 0002:00000050       __imp_?EraseSection@KIniFile@@QAEXPBD@Z 0045e050     engine:Engine.dll
 0002:00000054       __imp_?TurnOn@KIme@@QAEXXZ 0045e054     engine:Engine.dll
 0002:00000058       __imp_??0KPakList@@QAE@XZ  0045e058     engine:Engine.dll
 0002:0000005c       __imp__EDOneTimePad_Encipher 0045e05c     engine:Engine.dll
 0002:00000060       __imp_?g_DebugLog@@YAXPADZZ 0045e060     engine:Engine.dll
 0002:00000064       __imp_?GetElapse@KTimer@@QAEKXZ 0045e064     engine:Engine.dll
 0002:00000068       __imp_?Exit@KDirectSound@@QAEXXZ 0045e068     engine:Engine.dll
 0002:0000006c       __imp_?g_SetRootPath@@YAXPAD@Z 0045e06c     engine:Engine.dll
 0002:00000070       __imp_?g_SetFilePath@@YAXPAD@Z 0045e070     engine:Engine.dll
 0002:00000074       __imp_?Open@KPakList@@QAE_NPBD@Z 0045e074     engine:Engine.dll
 0002:00000078       __imp_?Init@KDirectSound@@QAEHXZ 0045e078     engine:Engine.dll
 0002:0000007c       __imp_?Start@KTimer@@QAEXXZ 0045e07c     engine:Engine.dll
 0002:00000080       __imp_?SetMouseHoverTime@KWin32App@@QAEXI@Z 0045e080     engine:Engine.dll
 0002:00000084       __imp_??0KWin32App@@QAE@XZ 0045e084     engine:Engine.dll
 0002:00000088       __imp_??0KMusic@@QAE@XZ    0045e088     engine:Engine.dll
 0002:0000008c       __imp_??0KMemClass@@QAE@XZ 0045e08c     engine:Engine.dll
 0002:00000090       __imp_??_7KMp3Music@@6B@   0045e090     engine:Engine.dll
 0002:00000094       __imp_??0KDirectSound@@QAE@XZ 0045e094     engine:Engine.dll
 0002:00000098       __imp_??0KTimer@@QAE@XZ    0045e098     engine:Engine.dll
 0002:0000009c       __imp_?InitClass@KWin32App@@MAEHPAUHINSTANCE__@@@Z 0045e09c     engine:Engine.dll
 0002:000000a0       __imp_?InitWindow@KWin32App@@MAEHPAUHINSTANCE__@@@Z 0045e0a0     engine:Engine.dll
 0002:000000a4       __imp_?ShowMouse@KWin32App@@UAEXH@Z 0045e0a4     engine:Engine.dll
 0002:000000a8       __imp_?SetMultiGame@KWin32App@@UAEXH@Z 0045e0a8     engine:Engine.dll
 0002:000000ac       __imp__TEncodeText         0045e0ac     engine:Engine.dll
 0002:000000b0       __imp__TGetEncodedTextLineCount 0045e0b0     engine:Engine.dll
 0002:000000b4       __imp_??1KIniFile@@QAE@XZ  0045e0b4     engine:Engine.dll
 0002:000000b8       __imp_?GetString@KIniFile@@QAEHPBD00PADK@Z 0045e0b8     engine:Engine.dll
 0002:000000bc       __imp_?GetInteger@KIniFile@@QAEHPBD0HPAH@Z 0045e0bc     engine:Engine.dll
 0002:000000c0       __imp_?Load@KIniFile@@QAEHPBD@Z 0045e0c0     engine:Engine.dll
 0002:000000c4       __imp_??0KIniFile@@QAE@XZ  0045e0c4     engine:Engine.dll
 0002:000000c8       __imp__TFindSpecialCtrlInEncodedText 0045e0c8     engine:Engine.dll
 0002:000000cc       __imp_?g_CreatePath@@YAXPAD@Z 0045e0cc     engine:Engine.dll
 0002:000000d0       __imp__AdviseEngine        0045e0d0     engine:Engine.dll
 0002:000000d4       __imp__UnAdviseEngine      0045e0d4     engine:Engine.dll
 0002:000000d8       __imp_??1KPakFile@@QAE@XZ  0045e0d8     engine:Engine.dll
 0002:000000dc       __imp_??1KFile@@QAE@XZ     0045e0dc     engine:Engine.dll
 0002:000000e0       __imp_?Close@KFile@@QAEXXZ 0045e0e0     engine:Engine.dll
 0002:000000e4       __imp_?Close@KPakFile@@QAEXXZ 0045e0e4     engine:Engine.dll
 0002:000000e8       __imp_?Read@KPakFile@@QAEKPAXI@Z 0045e0e8     engine:Engine.dll
 0002:000000ec       __imp_?Write@KFile@@QAEKPAXK@Z 0045e0ec     engine:Engine.dll
 0002:000000f0       __imp_?Size@KPakFile@@QAEKXZ 0045e0f0     engine:Engine.dll
 0002:000000f4       __imp_?Open@KPakFile@@QAEHPBD@Z 0045e0f4     engine:Engine.dll
 0002:000000f8       __imp_?Create@KFile@@QAEHPAD@Z 0045e0f8     engine:Engine.dll
 0002:000000fc       __imp_??0KFile@@QAE@XZ     0045e0fc     engine:Engine.dll
 0002:00000100       __imp_??0KPakFile@@QAE@XZ  0045e100     engine:Engine.dll
 0002:00000104       __imp_??0KIme@@QAE@XZ      0045e104     engine:Engine.dll
 0002:00000108       __imp_??1KIme@@QAE@XZ      0045e108     engine:Engine.dll
 0002:0000010c       __imp_?CloseIME@KIme@@QAEXXZ 0045e10c     engine:Engine.dll
 0002:00000110       __imp_?DisableLanguageChange@KIme@@QAEXXZ 0045e110     engine:Engine.dll
 0002:00000114       __imp_?IsIme@KIme@@QAEHXZ  0045e114     engine:Engine.dll
 0002:00000118       __imp_?SetCaretPos@KIme@@QAEXHH@Z 0045e118     engine:Engine.dll
 0002:0000011c       __imp_?OpenIME@KIme@@QAEXXZ 0045e11c     engine:Engine.dll
 0002:00000120       __imp_?EnableLanguageChange@KIme@@QAEXXZ 0045e120     engine:Engine.dll
 0002:00000124       __imp__TSplitString        0045e124     engine:Engine.dll
 0002:00000128       __imp__TGetLimitLenString  0045e128     engine:Engine.dll
 0002:0000012c       __imp__TRemoveCtrlInEncodedText 0045e12c     engine:Engine.dll
 0002:00000130       __imp_?GetInteger2@KIniFile@@QAEXPBD0PAH1@Z 0045e130     engine:Engine.dll
 0002:00000134       __imp_?g_GetMainHWnd@@YAPAUHWND__@@XZ 0045e134     engine:Engine.dll
 0002:00000138       __imp_?KSG_StringToMD5String@@YAHQADQBD@Z 0045e138     engine:Engine.dll
 0002:0000013c       __imp_?WriteInteger@KIniFile@@QAEXPBD0H@Z 0045e13c     engine:Engine.dll
 0002:00000140       __imp_?g_GetFullPath@@YAXPAD0@Z 0045e140     engine:Engine.dll
 0002:00000144       __imp_?GetStruct@KIniFile@@QAEXPBD0PAXK@Z 0045e144     engine:Engine.dll
 0002:00000148       __imp_?EraseKey@KIniFile@@QAEXPBD0@Z 0045e148     engine:Engine.dll
 0002:0000014c       __imp_?WriteStruct@KIniFile@@QAEXPBD0PAXK@Z 0045e14c     engine:Engine.dll
 0002:00000150       __imp_?WriteString@KIniFile@@QAEXPBD00@Z 0045e150     engine:Engine.dll
 0002:00000154       __imp__TClearSpecialCtrlInEncodedText 0045e154     engine:Engine.dll
 0002:00000158       __imp_?Read@KFile@@QAEKPAXK@Z 0045e158     engine:Engine.dll
 0002:0000015c       __imp_?Open@KFile@@QAEHPAD@Z 0045e15c     engine:Engine.dll
 0002:00000160       __imp_?Clear@KIniFile@@QAEXXZ 0045e160     engine:Engine.dll
 0002:00000164       __imp__TGetEncodedTextEffectCtrls 0045e164     engine:Engine.dll
 0002:00000168       __imp__TSplitEncodedString 0045e168     engine:Engine.dll
 0002:0000016c       __imp__TGetEncodedTextOutputLenPos 0045e16c     engine:Engine.dll
 0002:00000170       __imp_?IsSectionExist@KIniFile@@QAEHPBD@Z 0045e170     engine:Engine.dll
 0002:00000174       __imp_?Save@KIniFile@@QAEHPBD@Z 0045e174     engine:Engine.dll
 0002:00000178       __imp_?MsgProc@KWin32App@@UAEJPAUHWND__@@IIJ@Z 0045e178     engine:Engine.dll
 0002:0000017c       \177Engine_NULL_THUNK_DATA 0045e17c     engine:Engine.dll
 0002:00000180       __imp__GetStartupInfoA@4   0045e180     kernel32:KERNEL32.dll
 0002:00000184       __imp__Sleep@4             0045e184     kernel32:KERNEL32.dll
 0002:00000188       __imp__AllocConsole@0      0045e188     kernel32:KERNEL32.dll
 0002:0000018c       __imp__FreeConsole@0       0045e18c     kernel32:KERNEL32.dll
 0002:00000190       __imp__GetVersion@0        0045e190     kernel32:KERNEL32.dll
 0002:00000194       __imp__FindFirstFileA@8    0045e194     kernel32:KERNEL32.dll
 0002:00000198       __imp__SetFileAttributesA@8 0045e198     kernel32:KERNEL32.dll
 0002:0000019c       __imp__FindNextFileA@8     0045e19c     kernel32:KERNEL32.dll
 0002:000001a0       __imp__FindClose@4         0045e1a0     kernel32:KERNEL32.dll
 0002:000001a4       __imp__RemoveDirectoryA@4  0045e1a4     kernel32:KERNEL32.dll
 0002:000001a8       __imp__SystemTimeToTzSpecificLocalTime@12 0045e1a8     kernel32:KERNEL32.dll
 0002:000001ac       __imp__LoadLibraryA@4      0045e1ac     kernel32:KERNEL32.dll
 0002:000001b0       __imp__GetProcAddress@8    0045e1b0     kernel32:KERNEL32.dll
 0002:000001b4       __imp__FreeLibrary@4       0045e1b4     kernel32:KERNEL32.dll
 0002:000001b8       __imp__MulDiv@12           0045e1b8     kernel32:KERNEL32.dll
 0002:000001bc       __imp__DeleteFileA@4       0045e1bc     kernel32:KERNEL32.dll
 0002:000001c0       __imp__GetTickCount@0      0045e1c0     kernel32:KERNEL32.dll
 0002:000001c4       __imp__GetTempPathA@8      0045e1c4     kernel32:KERNEL32.dll
 0002:000001c8       __imp__GetTempFileNameA@16 0045e1c8     kernel32:KERNEL32.dll
 0002:000001cc       __imp__GetModuleHandleA@4  0045e1cc     kernel32:KERNEL32.dll
 0002:000001d0       \177KERNEL32_NULL_THUNK_DATA 0045e1d0     kernel32:KERNEL32.dll
 0002:000001d4       __imp__lua_pushstring      0045e1d4     lualibdll:LuaLibDll.dll
 0002:000001d8       __imp__lua_pushnumber      0045e1d8     lualibdll:LuaLibDll.dll
 0002:000001dc       __imp__lua_type            0045e1dc     lualibdll:LuaLibDll.dll
 0002:000001e0       __imp__lua_tonumber        0045e1e0     lualibdll:LuaLibDll.dll
 0002:000001e4       __imp__lua_gettop          0045e1e4     lualibdll:LuaLibDll.dll
 0002:000001e8       __imp__lua_tostring        0045e1e8     lualibdll:LuaLibDll.dll
 0002:000001ec       \177LuaLibDll_NULL_THUNK_DATA 0045e1ec     lualibdll:LuaLibDll.dll
 0002:000001f0       __imp_?_Split@?$basic_string@DU?$char_traits@D@std@@V?$allocator@D@2@@std@@AAEXXZ 0045e1f0     msvcprt:MSVCP60.dll
 0002:000001f4       __imp_?assign@?$basic_string@DU?$char_traits@D@std@@V?$allocator@D@2@@std@@QAEAAV12@ID@Z 0045e1f4     msvcprt:MSVCP60.dll
 0002:000001f8       __imp_?max_size@?$basic_string@DU?$char_traits@D@std@@V?$allocator@D@2@@std@@QBEIXZ 0045e1f8     msvcprt:MSVCP60.dll
 0002:000001fc       __imp_?erase@?$basic_string@DU?$char_traits@D@std@@V?$allocator@D@2@@std@@QAEAAV12@II@Z 0045e1fc     msvcprt:MSVCP60.dll
 0002:00000200       __imp_??8std@@YA_NABV?$basic_string@DU?$char_traits@D@std@@V?$allocator@D@2@@0@PBD@Z 0045e200     msvcprt:MSVCP60.dll
 0002:00000204       __imp_?_Eos@?$basic_string@DU?$char_traits@D@std@@V?$allocator@D@2@@std@@AAEXI@Z 0045e204     msvcprt:MSVCP60.dll
 0002:00000208       __imp_??8std@@YA_NABV?$basic_string@DU?$char_traits@D@std@@V?$allocator@D@2@@0@0@Z 0045e208     msvcprt:MSVCP60.dll
 0002:0000020c       __imp_??0?$basic_string@DU?$char_traits@D@std@@V?$allocator@D@2@@std@@QAE@ABV01@@Z 0045e20c     msvcprt:MSVCP60.dll
 0002:00000210       __imp_??Mstd@@YA_NABV?$basic_string@DU?$char_traits@D@std@@V?$allocator@D@2@@0@0@Z 0045e210     msvcprt:MSVCP60.dll
 0002:00000214       __imp_??0_Lockit@std@@QAE@XZ 0045e214     msvcprt:MSVCP60.dll
 0002:00000218       __imp_??1_Lockit@std@@QAE@XZ 0045e218     msvcprt:MSVCP60.dll
 0002:0000021c       __imp_?_Xlen@std@@YAXXZ    0045e21c     msvcprt:MSVCP60.dll
 0002:00000220       __imp_?_Copy@?$basic_string@DU?$char_traits@D@std@@V?$allocator@D@2@@std@@AAEXI@Z 0045e220     msvcprt:MSVCP60.dll
 0002:00000224       __imp_?append@?$basic_string@DU?$char_traits@D@std@@V?$allocator@D@2@@std@@QAEAAV12@PBDI@Z 0045e224     msvcprt:MSVCP60.dll
 0002:00000228       __imp_?npos@?$basic_string@DU?$char_traits@D@std@@V?$allocator@D@2@@std@@2IB 0045e228     msvcprt:MSVCP60.dll
 0002:0000022c       __imp_?append@?$basic_string@DU?$char_traits@D@std@@V?$allocator@D@2@@std@@QAEAAV12@ABV12@II@Z 0045e22c     msvcprt:MSVCP60.dll
 0002:00000230       __imp_?assign@?$basic_string@DU?$char_traits@D@std@@V?$allocator@D@2@@std@@QAEAAV12@ABV12@II@Z 0045e230     msvcprt:MSVCP60.dll
 0002:00000234       __imp_?_Tidy@?$basic_string@DU?$char_traits@D@std@@V?$allocator@D@2@@std@@AAEX_N@Z 0045e234     msvcprt:MSVCP60.dll
 0002:00000238       __imp_?_Grow@?$basic_string@DU?$char_traits@D@std@@V?$allocator@D@2@@std@@AAE_NI_N@Z 0045e238     msvcprt:MSVCP60.dll
 0002:0000023c       __imp_?_C@?1??_Nullstr@?$basic_string@DU?$char_traits@D@std@@V?$allocator@D@2@@std@@CAPBDXZ@4DB 0045e23c     msvcprt:MSVCP60.dll
 0002:00000240       __imp_?assign@?$basic_string@DU?$char_traits@D@std@@V?$allocator@D@2@@std@@QAEAAV12@PBDI@Z 0045e240     msvcprt:MSVCP60.dll
 0002:00000244       __imp_??1?$basic_string@DU?$char_traits@D@std@@V?$allocator@D@2@@std@@QAE@XZ 0045e244     msvcprt:MSVCP60.dll
 0002:00000248       __imp_?_Xran@std@@YAXXZ    0045e248     msvcprt:MSVCP60.dll
 0002:0000024c       \177MSVCP60_NULL_THUNK_DATA 0045e24c     msvcprt:MSVCP60.dll
 0002:00000250       __imp__strncpy             0045e250     MSVCRT:MSVCRT.dll
 0002:00000254       __imp__memmove             0045e254     MSVCRT:MSVCRT.dll
 0002:00000258       __imp__atoi                0045e258     MSVCRT:MSVCRT.dll
 0002:0000025c       __imp__malloc              0045e25c     MSVCRT:MSVCRT.dll
 0002:00000260       __imp__realloc             0045e260     MSVCRT:MSVCRT.dll
 0002:00000264       __imp__rand                0045e264     MSVCRT:MSVCRT.dll
 0002:00000268       __imp___mbsicmp            0045e268     MSVCRT:MSVCRT.dll
 0002:0000026c       __imp__strstr              0045e26c     MSVCRT:MSVCRT.dll
 0002:00000270       __imp__srand               0045e270     MSVCRT:MSVCRT.dll
 0002:00000274       __imp__mktime              0045e274     MSVCRT:MSVCRT.dll
 0002:00000278       __imp__fclose              0045e278     MSVCRT:MSVCRT.dll
 0002:0000027c       __imp__fopen               0045e27c     MSVCRT:MSVCRT.dll
 0002:00000280       __imp__remove              0045e280     MSVCRT:MSVCRT.dll
 0002:00000284       __imp_??2@YAPAXI@Z         0045e284     MSVCRT:MSVCRT.dll
 0002:00000288       __imp__isgraph             0045e288     MSVCRT:MSVCRT.dll
 0002:0000028c       __imp__strchr              0045e28c     MSVCRT:MSVCRT.dll
 0002:00000290       __imp__sscanf              0045e290     MSVCRT:MSVCRT.dll
 0002:00000294       __imp____dllonexit         0045e294     MSVCRT:MSVCRT.dll
 0002:00000298       __imp___onexit             0045e298     MSVCRT:MSVCRT.dll
 0002:0000029c       __imp___except_handler3    0045e29c     MSVCRT:MSVCRT.dll
 0002:000002a0       __imp_?terminate@@YAXXZ    0045e2a0     MSVCRT:MSVCRT.dll
 0002:000002a4       __imp___exit               0045e2a4     MSVCRT:MSVCRT.dll
 0002:000002a8       __imp___XcptFilter         0045e2a8     MSVCRT:MSVCRT.dll
 0002:000002ac       __imp__exit                0045e2ac     MSVCRT:MSVCRT.dll
 0002:000002b0       __imp___acmdln             0045e2b0     MSVCRT:MSVCRT.dll
 0002:000002b4       __imp____getmainargs       0045e2b4     MSVCRT:MSVCRT.dll
 0002:000002b8       __imp___initterm           0045e2b8     MSVCRT:MSVCRT.dll
 0002:000002bc       __imp____setusermatherr    0045e2bc     MSVCRT:MSVCRT.dll
 0002:000002c0       __imp___adjust_fdiv        0045e2c0     MSVCRT:MSVCRT.dll
 0002:000002c4       __imp____p__commode        0045e2c4     MSVCRT:MSVCRT.dll
 0002:000002c8       __imp____p__fmode          0045e2c8     MSVCRT:MSVCRT.dll
 0002:000002cc       __imp____set_app_type      0045e2cc     MSVCRT:MSVCRT.dll
 0002:000002d0       __imp___controlfp          0045e2d0     MSVCRT:MSVCRT.dll
 0002:000002d4       __imp_??3@YAXPAX@Z         0045e2d4     MSVCRT:MSVCRT.dll
 0002:000002d8       __imp__time                0045e2d8     MSVCRT:MSVCRT.dll
 0002:000002dc       __imp__localtime           0045e2dc     MSVCRT:MSVCRT.dll
 0002:000002e0       __imp__strftime            0045e2e0     MSVCRT:MSVCRT.dll
 0002:000002e4       __imp__free                0045e2e4     MSVCRT:MSVCRT.dll
 0002:000002e8       __imp____CxxFrameHandler   0045e2e8     MSVCRT:MSVCRT.dll
 0002:000002ec       __imp__sprintf             0045e2ec     MSVCRT:MSVCRT.dll
 0002:000002f0       __imp___itoa               0045e2f0     MSVCRT:MSVCRT.dll
 0002:000002f0       __imp__itoa                0045e2f0     MSVCRT:MSVCRT.dll
 0002:000002f4       __imp___strcmpi            0045e2f4     MSVCRT:MSVCRT.dll
 0002:000002f4       __imp__strcmpi             0045e2f4     MSVCRT:MSVCRT.dll
 0002:000002f8       __imp___strlwr             0045e2f8     MSVCRT:MSVCRT.dll
 0002:000002f8       __imp__strlwr              0045e2f8     MSVCRT:MSVCRT.dll
 0002:000002fc       __imp___ismbcalpha         0045e2fc     MSVCRT:MSVCRT.dll
 0002:00000300       __imp___purecall           0045e300     MSVCRT:MSVCRT.dll
 0002:00000304       __imp___mbschr             0045e304     MSVCRT:MSVCRT.dll
 0002:00000308       __imp___mbsstr             0045e308     MSVCRT:MSVCRT.dll
 0002:0000030c       __imp___mbsnbcmp           0045e30c     MSVCRT:MSVCRT.dll
 0002:00000310       __imp__isalnum             0045e310     MSVCRT:MSVCRT.dll
 0002:00000314       __imp___mbscspn            0045e314     MSVCRT:MSVCRT.dll
 0002:00000318       __imp___mbsspn             0045e318     MSVCRT:MSVCRT.dll
 0002:0000031c       __imp__tolower             0045e31c     MSVCRT:MSVCRT.dll
 0002:00000320       __imp__isalpha             0045e320     MSVCRT:MSVCRT.dll
 0002:00000324       __imp__toupper             0045e324     MSVCRT:MSVCRT.dll
 0002:00000328       __imp___mbsnbcpy           0045e328     MSVCRT:MSVCRT.dll
 0002:0000032c       __imp___ftol               0045e32c     MSVCRT:MSVCRT.dll
 0002:00000330       __imp__isdigit             0045e330     MSVCRT:MSVCRT.dll
 0002:00000334       \177MSVCRT_NULL_THUNK_DATA 0045e334     MSVCRT:MSVCRT.dll
 0002:00000338       __imp__SHGetSpecialFolderPathA@16 0045e338     shell32:SHELL32.dll
 0002:0000033c       \177SHELL32_NULL_THUNK_DATA 0045e33c     shell32:SHELL32.dll
 0002:00000340       __imp__ShowCursor@4        0045e340     user32:USER32.dll
 0002:00000344       __imp__SetCaretPos@8       0045e344     user32:USER32.dll
 0002:00000348       __imp__CloseClipboard@0    0045e348     user32:USER32.dll
 0002:0000034c       __imp__EmptyClipboard@0    0045e34c     user32:USER32.dll
 0002:00000350       __imp__GetClipboardData@4  0045e350     user32:USER32.dll
 0002:00000354       __imp__OpenClipboard@4     0045e354     user32:USER32.dll
 0002:00000358       __imp__SetCursor@4         0045e358     user32:USER32.dll
 0002:0000035c       __imp__SetCursorPos@8      0045e35c     user32:USER32.dll
 0002:00000360       __imp__ClientToScreen@8    0045e360     user32:USER32.dll
 0002:00000364       __imp__SendMessageA@16     0045e364     user32:USER32.dll
 0002:00000368       __imp__SetWindowTextA@8    0045e368     user32:USER32.dll
 0002:0000036c       __imp__MessageBoxA@16      0045e36c     user32:USER32.dll
 0002:00000370       __imp__LoadCursorA@8       0045e370     user32:USER32.dll
 0002:00000374       __imp__GetKeyState@4       0045e374     user32:USER32.dll
 0002:00000378       __imp__LoadCursorFromFileA@4 0045e378     user32:USER32.dll
 0002:0000037c       \177USER32_NULL_THUNK_DATA 0045e37c     user32:USER32.dll
 0002:0000039c       ??_7KInlinePicSink@@6B@    0045e39c     TextPic.obj
 0002:000003ac       ??_7KWndButton@@6B@        0045e3ac     WndButton.obj
 0002:000003ec       ??_7KWndImageTextButton@@6B@ 0045e3ec     WndButton.obj
 0002:0000042c       ??_7KWndChessPanel@@6B@    0045e42c     WndChessPanel.obj
 0002:00000460       ??_7KWndEdit@@6B@          0045e460     WndEdit.obj
 0002:00000494       ??_7KWndEdit32@@6B@        0045e494     WndEdit.obj
 0002:000004c8       ??_7KWndEdit512@@6B@       0045e4c8     WndEdit.obj
 0002:000004fc       ??_7KWndImage@@6B@         0045e4fc     WndImage.obj
 0002:00000530       ??_7KWndImagePart@@6B@     0045e530     WndImagePart.obj
 0002:00000564       ??_7KWndLabeledButton@@6B@ 0045e564     WndLabeledButton.obj
 0002:000005a4       ??_7KWndList@@6B@          0045e5a4     WndList.obj
 0002:000005d8       ??_7KWndList2@@6B@         0045e5d8     WndList2.obj
 0002:0000060c       ??_7KWndMessageListBox@@6B@ 0045e60c     WndMessageListBox.obj
 0002:00000640       ??_7KScrollMessageListBox@@6B@ 0045e640     WndMessageListBox.obj
 0002:00000674       ??_7KWndMovingImage@@6B@   0045e674     WndMovingImage.obj
 0002:000006a8       ??_7KWndObjectBox@@6B@     0045e6a8     WndObjContainer.obj
 0002:000006dc       ??_7KWndObjectMatrix@@6B@  0045e6dc     WndObjContainer.obj
 0002:00000710       ??_7KWndPageSet@@6B@       0045e710     WndPage.obj
 0002:00000748       ??_7KWndPureTextBtn@@6B@   0045e748     WndPureTextBtn.obj
 0002:0000077c       ??_7KWndScrollBar@@6B@     0045e77c     WndScrollBar.obj
 0002:000007b0       ??_7KWndShowAnimate@@6B@   0045e7b0     WndShowAnimate.obj
 0002:000007e8       ??_7KWndText@@6B@          0045e7e8     WndText.obj
 0002:0000081c       ??_7KWndText32@@6B@        0045e81c     WndText.obj
 0002:00000850       ??_7KWndText80@@6B@        0045e850     WndText.obj
 0002:00000884       ??_7KWndText256@@6B@       0045e884     WndText.obj
 0002:000008b8       ??_7KWndText512@@6B@       0045e8b8     WndText.obj
 0002:000008ec       ??_7KWndToolBar@@6B@       0045e8ec     WndToolBar.obj
 0002:00000920       ??_7KWndValueImage@@6B@    0045e920     WndValueImage.obj
 0002:00000954       ??_7KWndWindow@@6B@        0045e954     WndWindow.obj
 0002:00000988       ??_7KUiConnectInfo@@6B@    0045e988     UiConnectInfo.obj
 0002:000009bc       ??_7KUiLogin@@6B@          0045e9bc     UiLogin.obj
 0002:000009f4       ??_7KUiLoginBackGround@@6B@ 0045e9f4     UiLoginBg.obj
 0002:00000a28       ??_7KUiSelServer@@6B@      0045ea28     UiSelServer.obj
 0002:00000a60       ??_7KUiContainer@@6B@      0045ea60     UiContainer.obj
 0002:00000a64       ??_7KUiFaceSelector@@6B@   0045ea64     UiFaceSelector.obj
 0002:00000a98       ??_7GameWorld_DateTime@@6B@ 0045ea98     UiPlayerBar.obj
 0002:00000ad8       ??_7KUiPlayerBar@@6B@      0045ead8     UiPlayerBar.obj
 0002:00000b0c       ??_7KImmediaItem@@6B@      0045eb0c     UiPlayerBar.obj
 0002:00000b40       ??_7KUiStatus@@6B@         0045eb40     UiStatus.obj
 0002:00000b78       ??_7KUiOptions@@6B@        0045eb78     UiOptions.obj
 0002:00000bac       ??_7KUiInit@@6B@           0045ebac     UiInit.obj
 0002:00000be4       ??_7KUiGetMoney@@6B@       0045ebe4     UiGetMoney.obj
 0002:00000c18       ??_7KUiItem@@6B@           0045ec18     UiItem.obj
 0002:00000c50       ??_7KUiFightSkillSubPage@@6B@ 0045ec50     UiSkills.obj
 0002:00000c84       ??_7KWndPage@@6B@          0045ec84     UiSkills.obj
 0002:00000cb8       ??_7KUiLiveSkill@@6B@      0045ecb8     UiSkills.obj
 0002:00000cec       ??_7KUiSkills@@6B@         0045ecec     UiSkills.obj
 0002:00000d24       ??_7KUiFightSkill@@6B@     0045ed24     UiSkills.obj
 0002:00000d58       ??_7KUiFightSkillSub@@6B@  0045ed58     UiSkills.obj
 0002:00000d90       ??_7KUiSkillTree@@6B@      0045ed90     UiSkillTree.obj
 0002:00000dc4       ??_7KUiStoreBox@@6B@       0045edc4     UiStoreBox.obj
 0002:00000dfc       ??_7KUiESCDlg@@6B@         0045edfc     UiESCDlg.obj
 0002:00000e34       ??_7KUiGetString@@6B@      0045ee34     UiGetString.obj
 0002:00000e68       ??_7KUiMsgSel@@6B@         0045ee68     UiMsgSel.obj
 0002:00000ea0       ??_7KUiParadeItem@@6B@     0045eea0     UiParadeItem.obj
 0002:00000ed8       ??_7KUiSelPlayerNearby@@6B@ 0045eed8     UiSelPlayerNearby.obj
 0002:00000f10       ??_7KUiNewPlayer@@6B@      0045ef10     UiNewPlayer.obj
 0002:00000f48       ??_7KUiSelNativePlace@@6B@ 0045ef48     UiSelNativePlace.obj
 0002:00000f80       ??_7KUiSelPlayer@@6B@      0045ef80     UiSelPlayer.obj
 0002:00000fbc       ??_7ServerNotify@@6B@      0045efbc     UiChatCentre.obj
 0002:00000fe4       ??_7KUiChatCentre@@6B@     0045efe4     UiChatCentre.obj
 0002:0000101c       ??_7KUiChatStatus@@6B@     0045f01c     UiChatStatus.obj
 0002:00001050       ??_7KUiInformation@@6B@    0045f050     UiInformation.obj
 0002:00001088       ??_7KUiInformation2@@6B@   0045f088     UiInformation2.obj
 0002:000010c0       ??_7KUiTeamManage@@6B@     0045f0c0     UiTeamManage.obj
 0002:000010f8       ??_7KUiHeaderControlBar@@6B@ 0045f0f8     UiHeaderControlBar.obj
 0002:0000112c       ??_7KUiMsgCentrePad@@6B@   0045f12c     UiMsgCentrePad.obj
 0002:00001160       ??_7KSysMsgCentrePad@@6B@  0045f160     UiMsgCentrePad.obj
 0002:00001194       ??_7KUiToolsControlBar@@6B@ 0045f194     UiToolsControlBar.obj
 0002:000011c8       ??_7KUiShop@@6B@           0045f1c8     UiShop.obj
 0002:00001200       ??_7KUiTrade@@6B@          0045f200     UiTrade.obj
 0002:00001238       ??_7KUiTradeConfirm@@6B@   0045f238     UiTradeConfirmWnd.obj
 0002:0000126c       ??_7KUiGameSpace@@6B@      0045f26c     UiGame.obj
 0002:000012a0       ??_7KUiSysMsgCentre@@6B@   0045f2a0     UiSysMsgCentre.obj
 0002:000012d4       ??_7KUiMiniMap@@6B@        0045f2d4     UiMiniMap.obj
 0002:00001308       ??_7KWndShadow@@6B@        0045f308     UiMiniMap.obj
 0002:0000133c       ??_7KUiNewPlayerStartMsg@@6B@ 0045f33c     UiNewPlayerStartMsg.obj
 0002:00001374       ??_7KUiPlayVideo@@6B@      0045f374     UiPlayVideo.obj
 0002:000013a8       ??_7KUiHelper@@6B@         0045f3a8     UiHelper.obj
 0002:000013dc       ??_7KUiHelper2@@6B@        0045f3dc     UiHelper2.obj
 0002:00001414       ??_7KReconnectWnd@@6B@     0045f414     UiReconnect.obj
 0002:00001448       ??_7KTaskEdit@@6B@         0045f448     UiTaskNote.obj
 0002:0000147c       ??_7KUiTaskNote@@6B@       0045f47c     UiTaskNote.obj
 0002:000014b4       ??_7KUiTaskNote_Personal@@6B@ 0045f4b4     UiTaskNote.obj
 0002:000014e8       ??_7KUiTaskNote_System@@6B@ 0045f4e8     UiTaskNote.obj
 0002:0000151c       ??_7KUiWorldmap@@6B@       0045f51c     UiWorldMap.obj
 0002:00001550       ??_7KUiNewsMessage@@6B@    0045f550     UiNewsMessage.obj
 0002:00001584       ??_7?$KLinkStruct@UKRankIndexNode@@@@6B@ 0045f584     UiStrengthRank.obj
 0002:00001588       ??_7?$KLinkStruct@UKRankNode@@@@6B@ 0045f588     UiStrengthRank.obj
 0002:0000158c       ??_7KUiStrengthRank@@6B@   0045f58c     UiStrengthRank.obj
 0002:000015c4       ??_7KUiPopupPasswordQuery@@6B@ 0045f5c4     UiPopupPasswordQuery.obj
 0002:000015f8       ??_7KUiTongAssignBox@@6B@  0045f5f8     UiTongAssignBox.obj
 0002:0000162c       ??_7KUiTongCreateSheet@@6B@ 0045f62c     UiTongCreateSheet.obj
 0002:00001660       ??_7KUiTongGetString@@6B@  0045f660     UiTongGetString.obj
 0002:00001694       ??_7KUiTongManager@@6B@    0045f694     UiTongManager.obj
 0002:000016c8       ??_7?$KLinkStruct@UKPilgarlicItem@@@@6B@ 0045f6c8     UiTongManager.obj
 0002:000016cc       ??_7KUiTrembleItem@@6B@    0045f6cc     UiTrembleItem.obj
 0002:00001700       ??_7KCanGetNumImage@@6B@   0045f700     UiTrembleItem.obj
 0002:00001734       ??_7BlacklistNotify@@6B@   0045f734     GameSpaceChangedNotify.obj
 0002:00001794       ??_7AddinNotify@@6B@       0045f794     UiBase.obj
 0002:000017bc       ??_7Player_Life@@6B@       0045f7bc     UiShell.obj
 0002:000017fc       ??_7Player_Mana@@6B@       0045f7fc     UiShell.obj
 0002:0000183c       ??_7Player_Stamina@@6B@    0045f83c     UiShell.obj
 0002:0000187c       ??_7Player_Exp@@6B@        0045f87c     UiShell.obj
 0002:000018bc       ??_7Player_Level@@6B@      0045f8bc     UiShell.obj
 0002:000018fc       ??_7Player_WorldSort@@6B@  0045f8fc     UiShell.obj
 0002:0000193c       ??_7Player_Status@@6B@     0045f93c     UiShell.obj
 0002:0000197c       ??_7Player_Items@@6B@      0045f97c     UiShell.obj
 0002:000019bc       ??_7Player_Skills@@6B@     0045f9bc     UiShell.obj
 0002:000019fc       ??_7Player_Team@@6B@       0045f9fc     UiShell.obj
 0002:00001a3c       ??_7Player_Faction@@6B@    0045fa3c     UiShell.obj
 0002:00001a7c       ??_7Player_Sit@@6B@        0045fa7c     UiShell.obj
 0002:00001abc       ??_7Player_Run@@6B@        0045fabc     UiShell.obj
 0002:00001afc       ??_7Player_Horse@@6B@      0045fafc     UiShell.obj
 0002:00001b3c       ??_7Player_Exchange@@6B@   0045fb3c     UiShell.obj
 0002:00001b7c       ??_7Player_PK@@6B@         0045fb7c     UiShell.obj
 0002:00001bc0       __real@8@4005c800000000000000 0045fbc0     UiShell.obj
 0002:00001be0       ??_7CChatFilter@@6B@       0045fbe0     ChatFilter.obj
 0002:00001be4       ??_7CFilterTextLib@@6B@    0045fbe4     FilterTextLib.obj
 0002:00001be8       ??_7KClientCallback@@6B@   0045fbe8     S3Client.obj
 0002:00001c0c       ??_7KMyApp@@6B@            0045fc0c     S3Client.obj
 0002:00001c38       _IID_IESClient             0045fc38     NetConnectAgent.obj
 0002:00001c48       _IID_IClientFactory        0045fc48     NetConnectAgent.obj
 0002:00001c58       ??_7KLogin@@6B@            0045fc58     Login.obj
 0002:00001ca0       ??_7CTextFilter@@6B@       0045fca0     FilterText_StaticLib:FilterText.obj
 0002:00001cb8       ??_7ITextFilter@@6B@       0045fcb8     FilterText_StaticLib:FilterText.obj
 0002:00001cd0       ??_7CRegCompilerBase@@6B@  0045fcd0     FilterText_StaticLib:Regexp.obj
 0002:00001ce4       ??_7CRegValidator@@6B@     0045fce4     FilterText_StaticLib:Regexp.obj
 0002:00001cf8       ??_7CRegCompiler@@6B@      0045fcf8     FilterText_StaticLib:Regexp.obj
 0002:00006a00       __IMPORT_DESCRIPTOR_KERNEL32 00464a00     kernel32:KERNEL32.dll
 0002:00006a14       __IMPORT_DESCRIPTOR_USER32 00464a14     user32:USER32.dll
 0002:00006a28       __IMPORT_DESCRIPTOR_SHELL32 00464a28     shell32:SHELL32.dll
 0002:00006a3c       __IMPORT_DESCRIPTOR_LuaLibDll 00464a3c     lualibdll:LuaLibDll.dll
 0002:00006a50       __IMPORT_DESCRIPTOR_Engine 00464a50     engine:Engine.dll
 0002:00006a64       __IMPORT_DESCRIPTOR_CoreClient 00464a64     CoreClient:CoreClient.dll
 0002:00006a78       __IMPORT_DESCRIPTOR_MSVCRT 00464a78     MSVCRT:MSVCRT.dll
 0002:00006a8c       __IMPORT_DESCRIPTOR_MSVCP60 00464a8c     msvcprt:MSVCP60.dll
 0002:00006aa0       __NULL_IMPORT_DESCRIPTOR   00464aa0     kernel32:KERNEL32.dll
 0003:00000000       ___xc_a                    00467000     MSVCRT:cinitexe.obj
 0003:0000006c       ___xc_z                    0046706c     MSVCRT:cinitexe.obj
 0003:00000070       ___xi_a                    00467070     MSVCRT:cinitexe.obj
 0003:00000074       ___xi_z                    00467074     MSVCRT:cinitexe.obj
 0003:00000084       ??_C@_0M@GKGL@DescBgColor?$AA@ 00467084     MouseHover.obj
 0003:00000090       ??_C@_0M@FOLK@PropBgColor?$AA@ 00467090     MouseHover.obj
 0003:0000009c       ??_C@_0N@IGMG@TitleBgColor?$AA@ 0046709c     MouseHover.obj
 0003:000000ac       ??_C@_07DLFK@0?0?50?0?50?$AA@ 004670ac     MouseHover.obj
 0003:000000b4       ??_C@_05MMOI@Frame?$AA@    004670b4     MouseHover.obj
 0003:000000bc       ??_C@_05LADG@Image?$AA@    004670bc     MouseHover.obj
 0003:000000c4       ??_C@_07HCJH@ImgType?$AA@  004670c4     MouseHover.obj
 0003:000000cc       ??_C@_04CLJC@Font?$AA@     004670cc     MouseHover.obj
 0003:000000d4       ??_C@_06GDEP@Indent?$AA@   004670d4     MouseHover.obj
 0003:000000dc       ??_C@_09IFFD@ImgHeight?$AA@ 004670dc     MouseHover.obj
 0003:000000e8       ??_C@_04NLIF@Main?$AA@     004670e8     MouseHover.obj
 0003:000000f0       ??_C@_08FIJH@ImgWidth?$AA@ 004670f0     MouseHover.obj
 0003:000000fc       ??_C@_05KEJO@?$CFs?2?$CFs?$AA@ 004670fc     MouseHover.obj
 0003:00000104       ??_C@_0BB@PBDN@?$LF?$KP?$LD?v?K?$LF?C?w?N?D?W?V?4ini?$AA@ 00467104     MouseHover.obj
 0003:00000118       ?m_uDefBorderLineColor@KPopupMenu@@0IA 00467118     PopupMenu.obj
 0003:0000011c       ?m_uDefTextColor@KPopupMenu@@0IA 0046711c     PopupMenu.obj
 0003:00000120       ?m_uDefTextBorderColor@KPopupMenu@@0IA 00467120     PopupMenu.obj
 0003:00000124       ?m_uDefSelTextColor@KPopupMenu@@0IA 00467124     PopupMenu.obj
 0003:00000128       ?m_uDefSelTextBorderColor@KPopupMenu@@0IA 00467128     PopupMenu.obj
 0003:0000012c       ?m_uDefItemBgColor@KPopupMenu@@0IA 0046712c     PopupMenu.obj
 0003:00000130       ?m_uDefSelItemBgColor@KPopupMenu@@0IA 00467130     PopupMenu.obj
 0003:00000134       ??_C@_0BD@ELAN@SelTextBorderColor?$AA@ 00467134     PopupMenu.obj
 0003:00000148       ??_C@_0N@HCGI@SelTextColor?$AA@ 00467148     PopupMenu.obj
 0003:00000158       ??_C@_0BA@DOFG@TextBorderColor?$AA@ 00467158     PopupMenu.obj
 0003:00000168       ??_C@_09JLCE@TextColor?$AA@ 00467168     PopupMenu.obj
 0003:00000174       ??_C@_0P@NJEN@SelItemBgColor?$AA@ 00467174     PopupMenu.obj
 0003:00000184       ??_C@_0M@FFOC@ItemBgColor?$AA@ 00467184     PopupMenu.obj
 0003:00000190       ??_C@_04PAPL@Menu?$AA@     00467190     PopupMenu.obj
 0003:00000198       ??_C@_0BA@LGOK@BorderLineColor?$AA@ 00467198     PopupMenu.obj
 0003:000001a8       ??_C@_05LBOG@0?00?00?$AA@  004671a8     PopupMenu.obj
 0003:000001b0       ??_C@_0L@LJPG@?2?$LN?$KD?O?$MA?$LN?X?M?$LM?2?$AA@ 004671b0     SpecialFuncs.obj
 0003:000001bc       ??_C@_0BC@EDIC@?$CFY?9?$CFm?9?$CFd_?$CFH?9?$CFM?9?$CFS?$AA@ 004671bc     SpecialFuncs.obj
 0003:000001d0       ??_C@_04BLEC@?4jpg?$AA@    004671d0     SpecialFuncs.obj
 0003:000001d8       ??_C@_04OEJP@?4bmp?$AA@    004671d8     SpecialFuncs.obj
 0003:000001e0       ??_C@_02DILL@?$CFs?$AA@    004671e0     SpecialFuncs.obj
 0003:000001e4       ??_C@_01PCFE@?2?$AA@       004671e4     TextPic.obj
 0003:000001e8       ??_C@_02MECO@?$CFd?$AA@    004671e8     TextPic.obj
 0003:000001ec       ??_C@_05HCNL@Count?$AA@    004671ec     TextPic.obj
 0003:000001f4       ??_C@_04HIKB@Path?$AA@     004671f4     TextPic.obj
 0003:000001fc       ??_C@_0BC@IBHB@?2spr?2Ui?2?A?D?L?l?2?$LB?m?G?i?$AA@ 004671fc     TextPic.obj
 0003:00000210       ??_C@_0BB@EMBC@?2Ui?2ChatPics?4ini?$AA@ 00467210     TextPic.obj
 0003:00000224       ??_C@_04IFAF@KSG_?$AA@     00467224     UiCursor.obj
 0003:0000022c       ?ms_uBtnTipTextColor@KWndButton@@0IA 0046722c     WndButton.obj
 0003:00000230       ??_C@_03GOMD@Tip?$AA@      00467230     WndButton.obj
 0003:00000234       ??_C@_0M@MKOO@SendHoldMsg?$AA@ 00467234     WndButton.obj
 0003:00000240       ??_C@_09EANJ@CheckOver?$AA@ 00467240     WndButton.obj
 0003:0000024c       ??_C@_08BJCD@CheckBox?$AA@ 0046724c     WndButton.obj
 0003:00000258       ??_C@_09HBHD@OverFrame?$AA@ 00467258     WndButton.obj
 0003:00000264       ??_C@_04LGEA@Over?$AA@     00467264     WndButton.obj
 0003:0000026c       ??_C@_0M@DFEN@NoOverSound?$AA@ 0046726c     WndButton.obj
 0003:00000278       ??_C@_0N@IMH@DisableFrame?$AA@ 00467278     WndButton.obj
 0003:00000288       ??_C@_04IH@Down?$AA@       00467288     WndButton.obj
 0003:00000290       ??_C@_02NCFM@Up?$AA@       00467290     WndButton.obj
 0003:00000294       ??_C@_07JJA@?$CFs_Text?$AA@ 00467294     WndButton.obj
 0003:0000029c       ??_C@_08EHCC@?$CFs_Image?$AA@ 0046729c     WndButton.obj
 0003:000002a8       ??_C@_04FIMK@Part?$AA@     004672a8     WndButton.obj
 0003:000002b0       ??_C@_0BC@JPDO@FocusBKColorAlpha?$AA@ 004672b0     WndEdit.obj
 0003:000002c4       ??_C@_0N@CGPA@FocusBKColor?$AA@ 004672c4     WndEdit.obj
 0003:000002d4       ??_C@_0M@MMCC@BorderColor?$AA@ 004672d4     WndEdit.obj
 0003:000002e0       ??_C@_05HIMK@Color?$AA@    004672e0     WndEdit.obj
 0003:000002e8       ??_C@_06BINN@MaxLen?$AA@   004672e8     WndEdit.obj
 0003:000002f0       ??_C@_04FCOP@Type?$AA@     004672f0     WndEdit.obj
 0003:000002f8       ??_C@_08NKKK@Password?$AA@ 004672f8     WndEdit.obj
 0003:00000304       ??_C@_09MOEH@MultiLine?$AA@ 00467304     WndEdit.obj
 0003:00000310       ??_C@_02MFPF@?$KJ?$KG?$AA@ 00467310     WndEdit.obj
 0003:00000314       ??_C@_01FDHG@?$CK?$AA@     00467314     WndEdit.obj
 0003:00000318       ??_C@_02BOCF@?$CK?$CK?$AA@ 00467318     WndEdit.obj
 0003:0000031c       ??_C@_05ODAK@Trans?$AA@    0046731c     WndImage.obj
 0003:00000324       ??_C@_08KAJL@PartType?$AA@ 00467324     WndImagePart.obj
 0003:00000330       ??_C@_05KBP@Label?$AA@     00467330     WndLabeledButton.obj
 0003:00000338       ??_C@_0BA@EGEA@OverBorderColor?$AA@ 00467338     WndLabeledButton.obj
 0003:00000348       ??_C@_09MFFB@OverColor?$AA@ 00467348     WndLabeledButton.obj
 0003:00000354       ??_C@_0N@NCOH@LabelYOffset?$AA@ 00467354     WndLabeledButton.obj
 0003:00000364       ??_C@_08BJHP@MultiSel?$AA@ 00467364     WndList.obj
 0003:00000370       ??_C@_0BF@BMLL@HighLightBorderColor?$AA@ 00467370     WndList.obj
 0003:00000388       ??_C@_0P@DNAA@HighLightColor?$AA@ 00467388     WndList.obj
 0003:00000398       ??_C@_09HGAA@HighLight?$AA@ 00467398     WndList.obj
 0003:000003a4       ??_C@_0P@EAIN@SelBorderColor?$AA@ 004673a4     WndList.obj
 0003:000003b4       ??_C@_08ONGG@SelColor?$AA@ 004673b4     WndList.obj
 0003:000003c0       ??_C@_06GKPC@HAlign?$AA@   004673c0     WndList.obj
 0003:000003c8       ??_C@_09KDIK@NumColumn?$AA@ 004673c8     WndList.obj
 0003:000003d4       ??_C@_0L@HNMA@TextBottom?$AA@ 004673d4     WndMessageListBox.obj
 0003:000003e0       ??_C@_0BA@PDDO@SelBgColorAlpha?$AA@ 004673e0     WndMessageListBox.obj
 0003:000003f0       ??_C@_0L@FHML@SelBgColor?$AA@ 004673f0     WndMessageListBox.obj
 0003:000003fc       ??_C@_07HDMF@Selable?$AA@  004673fc     WndMessageListBox.obj
 0003:00000404       ??_C@_0BE@OFFB@TextLineShadowAlpha?$AA@ 00467404     WndMessageListBox.obj
 0003:00000418       ??_C@_0P@KGGJ@TextLineShadow?$AA@ 00467418     WndMessageListBox.obj
 0003:00000428       ??_C@_0P@KOCO@MsgBorderColor?$AA@ 00467428     WndMessageListBox.obj
 0003:00000438       ??_C@_08IDNK@MsgColor?$AA@ 00467438     WndMessageListBox.obj
 0003:00000444       ??_C@_07KHIO@HitText?$AA@  00467444     WndMessageListBox.obj
 0003:0000044c       ??_C@_0M@FECB@MaxMsgCount?$AA@ 0046744c     WndMessageListBox.obj
 0003:00000458       ??_C@_0N@KPK@MsgLineCount?$AA@ 00467458     WndMessageListBox.obj
 0003:00000468       ??_C@_09NHKJ@?$CFs_Scroll?$AA@ 00467468     WndMessageListBox.obj
 0003:00000474       ??_C@_07CAGF@?$CFs_List?$AA@ 00467474     WndMessageListBox.obj
 0003:0000047c       ??_C@_06KCHC@EndPos?$AA@   0046747c     WndMovingImage.obj
 0003:00000484       ?l_BgColors@@3PAIA         00467484     WndObjContainer.obj
 0003:00000498       ??_C@_0N@DDDF@PutdownColor?$AA@ 00467498     WndObjContainer.obj
 0003:000004a8       ??_C@_0P@KHFC@MouseOverColor?$AA@ 004674a8     WndObjContainer.obj
 0003:000004b8       ??_C@_0N@GMCE@SpecialColor?$AA@ 004674b8     WndObjContainer.obj
 0003:000004c8       ??_C@_0BA@JAKB@NotUseableColor?$AA@ 004674c8     WndObjContainer.obj
 0003:000004d8       ??_C@_0M@LKM@NormalColor?$AA@ 004674d8     WndObjContainer.obj
 0003:000004e4       ??_C@_0N@HFGI@ObjContColor?$AA@ 004674e4     WndObjContainer.obj
 0003:000004f4       ??_C@_05JJGP@Alpha?$AA@    004674f4     WndObjContainer.obj
 0003:000004fc       ??_C@_0M@NAKM@HaveBgColor?$AA@ 004674fc     WndObjContainer.obj
 0003:00000508       ??_C@_0BB@FPBN@EnableClickEmpty?$AA@ 00467508     WndObjContainer.obj
 0003:0000051c       ??_C@_0L@KCPG@UnitBorder?$AA@ 0046751c     WndObjContainer.obj
 0003:00000528       ??_C@_0L@NDOB@AcceptFree?$AA@ 00467528     WndObjContainer.obj
 0003:00000534       ??_C@_06IEAA@VUnits?$AA@   00467534     WndObjContainer.obj
 0003:0000053c       ??_C@_06OMD@HUnits?$AA@    0046753c     WndObjContainer.obj
 0003:00000544       ??_C@_0M@LPNB@CentreAlign?$AA@ 00467544     WndPureTextBtn.obj
 0003:00000550       ??_C@_06HLPD@?$CFs_Btn?$AA@ 00467550     WndScrollBar.obj
 0003:00000558       ??_C@_08LAME@SlideEnd?$AA@ 00467558     WndScrollBar.obj
 0003:00000564       ??_C@_0L@HHCL@SlideBegin?$AA@ 00467564     WndScrollBar.obj
 0003:00000570       ??_C@_08NIBM@PageSize?$AA@ 00467570     WndScrollBar.obj
 0003:0000057c       ??_C@_03GMOG@Max?$AA@      0046757c     WndScrollBar.obj
 0003:00000580       ??_C@_03IPLA@Min?$AA@      00467580     WndScrollBar.obj
 0003:00000584       ??_C@_09CFEL@RepeatImg?$AA@ 00467584     WndScrollBar.obj
 0003:00000590       ??_C@_0BB@HLIF@ShadowColorAlpha?$AA@ 00467590     WndShadow.obj
 0003:000005a4       ??_C@_0M@KJOC@ShadowColor?$AA@ 004675a4     WndShadow.obj
 0003:000005b0       ?ms_nMoveSpeed@KWndShowAnimate@@0HA 004675b0     WndShowAnimate.obj
 0003:000005b4       ?ms_nFullRange@KWndShowAnimate@@0HA 004675b4     WndShowAnimate.obj
 0003:000005b8       ?ms_uMoveTimeInterval@KWndShowAnimate@@0IA 004675b8     WndShowAnimate.obj
 0003:000005bc       ??_C@_08ODNC@StartPos?$AA@ 004675bc     WndShowAnimate.obj
 0003:000005c8       ??_C@_04BNNJ@Text?$AA@     004675c8     WndText.obj
 0003:000005d0       ??_C@_06OADB@VAlign?$AA@   004675d0     WndText.obj
 0003:000005d8       ??_C@_04ELG@?$CFd?$CFc?$AA@ 004675d8     WndText.obj
 0003:000005e0       ??_C@_06BFHN@?$CFd?$CFc?$CFd?$AA@ 004675e0     WndText.obj
 0003:000005e8       ??_C@_08JPHG@Button?$CFd?$AA@ 004675e8     WndToolBar.obj
 0003:000005f4       ??_C@_09GHOH@ClassType?$AA@ 004675f4     WndToolBar.obj
 0003:00000600       ??_C@_08OBLH@DummyWnd?$AA@ 00467600     WndWindow.obj
 0003:0000060c       ??_C@_0L@GHDB@FollowSize?$AA@ 0046760c     WndWindow.obj
 0003:00000618       ??_C@_0L@MEOF@FollowMove?$AA@ 00467618     WndWindow.obj
 0003:00000624       ??_C@_08OBHI@Moveable?$AA@ 00467624     WndWindow.obj
 0003:00000630       ??_C@_07MLHD@Disable?$AA@  00467630     WndWindow.obj
 0003:00000638       ??_C@_03BJDM@Top?$AA@      00467638     WndWindow.obj
 0003:0000063c       ??_C@_04MKGK@Left?$AA@     0046763c     WndWindow.obj
 0003:00000644       ??_C@_06FOPC@Height?$AA@   00467644     WndWindow.obj
 0003:0000064c       ??_C@_05PJLH@Width?$AA@    0046764c     WndWindow.obj
 0003:00000654       ??_C@_0BC@PNEM@?0Rect?3?$CFd?0?$CFd?9?$CFd?0?$CFd?$AA@ 00467654     WndWindow.obj
 0003:00000668       ??_C@_0BF@PHCF@Pos?3?$CFd?0?$CFd?0Size?3?$CFd?0?$CFd?$AA@ 00467668     WndWindow.obj
 0003:00000680       ??_C@_08POMI@?$CFd?0?$CFd?0?$CFd?$AA@ 00467680     WndWindow.obj
 0003:0000068c       ??_C@_07PAHG@LoginBg?$AA@  0046768c     UiConnectInfo.obj
 0003:00000694       ??_C@_04BBDK@Size?$AA@     00467694     UiConnectInfo.obj
 0003:0000069c       ??_C@_03KONP@Pos?$AA@      0046769c     UiConnectInfo.obj
 0003:000006a0       ??_C@_0BE@NCKL@ColorChangeInterval?$AA@ 004676a0     UiConnectInfo.obj
 0003:000006b4       ??_C@_0BA@MEBA@MsgBorderColor2?$AA@ 004676b4     UiConnectInfo.obj
 0003:000006c4       ??_C@_09CFDN@MsgColor2?$AA@ 004676c4     UiConnectInfo.obj
 0003:000006d0       ??_C@_07NNP@Message?$AA@   004676d0     UiConnectInfo.obj
 0003:000006d8       ??_C@_0O@HFNL@CancelDelRole?$AA@ 004676d8     UiConnectInfo.obj
 0003:000006e8       ??_C@_0N@DLKA@DelRoleBgImg?$AA@ 004676e8     UiConnectInfo.obj
 0003:000006f8       ??_C@_07EJBL@DelRole?$AA@  004676f8     UiConnectInfo.obj
 0003:00000700       ??_C@_0L@HELP@ConfirmBtn?$AA@ 00467700     UiConnectInfo.obj
 0003:0000070c       ??_C@_0M@JJKJ@RuningImgBg?$AA@ 0046770c     UiConnectInfo.obj
 0003:00000718       ??_C@_0BB@JGIO@?$LF?G?B?$LN?$LJ?$PN?$LD?L?L?a?J?$LO?4ini?$AA@ 00467718     UiConnectInfo.obj
 0003:0000072c       ??_C@_0L@MJGG@InfoString?$AA@ 0046772c     UiConnectInfo.obj
 0003:00000738       ??_C@_08FKPK@Remember?$AA@ 00467738     UiLogin.obj
 0003:00000744       ??_C@_06HLPO@Cancel?$AA@   00467744     UiLogin.obj
 0003:0000074c       ??_C@_05FPPP@Login?$AA@    0046774c     UiLogin.obj
 0003:00000754       ??_C@_07JPGB@Account?$AA@  00467754     UiLogin.obj
 0003:0000075c       ??_C@_08JGJD@?$LF?G?B?$LN?4ini?$AA@ 0046775c     UiLogin.obj
 0003:00000768       ??_C@_09FGAK@AutoLogin?$AA@ 00467768     UiLogin.obj
 0003:00000774       ??_C@_0M@BINB@GameVersion?$AA@ 00467774     UiLoginBg.obj
 0003:00000780       ??_C@_0BF@KIAC@?$LF?G?B?$LN?$LJ?$PN?$LD?L?$LB?$LD?$LO?$LA?$LE?$LA?$LP?Z?4ini?$AA@ 00467780     UiLoginBg.obj
 0003:00000798       ??_C@_08JAIL@Interval?$AA@ 00467798     UiLoginBg.obj
 0003:000007a4       ??_C@_0BA@PDMG@?$CFs_Butterfly_?$CFd?$AA@ 004677a4     UiLoginBg.obj
 0003:000007b4       ??_C@_0M@IGJH@VersionText?$AA@ 004677b4     UiLoginBg.obj
 0003:000007c0       ??_C@_06PAFO@Scroll?$AA@   004677c0     UiSelServer.obj
 0003:000007c8       ??_C@_04DECM@List?$AA@     004677c8     UiSelServer.obj
 0003:000007d0       ??_C@_0N@IPHB@?Q?$KB?$LH?$PO?N?q?F?w?4ini?$AA@ 004677d0     UiSelServer.obj
 0003:000007e0       ??_C@_08DJDJ@?$DMpic?$DN?$CFd?$DO?$AA@ 004677e0     UiFaceSelector.obj
 0003:000007ec       ??_C@_06DADO@Face?$CFd?$AA@ 004677ec     UiFaceSelector.obj
 0003:000007f4       ??_C@_0BB@EACJ@?2Ui?2?$LB?m?G?i?$LE?s?H?$KL?4ini?$AA@ 004677f4     UiFaceSelector.obj
 0003:00000808       ??_C@_07FFEB@BgAlpha?$AA@  00467808     UiFaceSelector.obj
 0003:00000810       ??_C@_06JIAN@BgOver?$AA@   00467810     UiFaceSelector.obj
 0003:00000818       ??_C@_07LEOE@BgColor?$AA@  00467818     UiFaceSelector.obj
 0003:00000820       ??_C@_07DHKB@IndentV?$AA@  00467820     UiFaceSelector.obj
 0003:00000828       ??_C@_07DFBL@IndentH?$AA@  00467828     UiFaceSelector.obj
 0003:00000830       ??_C@_09EB@BtnHeight?$AA@  00467830     UiFaceSelector.obj
 0003:0000083c       ??_C@_08EKFD@BtnWidth?$AA@ 0046783c     UiFaceSelector.obj
 0003:00000848       ??_C@_03KAKO@Row?$AA@      00467848     UiFaceSelector.obj
 0003:0000084c       ??_C@_0P@LGHN@BigColumnCount?$AA@ 0046784c     UiFaceSelector.obj
 0003:0000085c       ??_C@_0M@IICG@ColumnCount?$AA@ 0046785c     UiFaceSelector.obj
 0003:00000868       ??_C@_07FNOB@BtnLess?$AA@  00467868     UiFaceSelector.obj
 0003:00000870       ??_C@_07MID@BtnMore?$AA@   00467870     UiFaceSelector.obj
 0003:00000878       ??_C@_0BF@PJD@?$LB?m?G?i?$LH?$PL?$LK?E?Q?$KB?T?q?$LE?$LA?$LP?Z?4ini?$AA@ 00467878     UiFaceSelector.obj
 0003:00000890       ??_C@_06MCMF@?$CFs?$CI?$CFs?$CJ?$AA@ 00467890     UiFaceSelector.obj
 0003:00000898       ?s_TimeName@@3PAPBDA       00467898     UiPlayerBar.obj
 0003:000008c8       ?s_TimeStone@@3PAPBDA      004678c8     UiPlayerBar.obj
 0003:000008f8       ?s_TimeLine@@3PAPBDA       004678f8     UiPlayerBar.obj
 0003:00000908       ?m_one@GameWorld_DateTime@@2UKComClassInfo@@A 00467908     UiPlayerBar.obj
 0003:0000092c       ??_C@_02DFFJ@?K?D?$AA@     0046792c     UiPlayerBar.obj
 0003:00000930       ??_C@_02LBJ@?H?$PN?$AA@    00467930     UiPlayerBar.obj
 0003:00000934       ??_C@_02CDFF@?$LG?$PO?$AA@ 00467934     UiPlayerBar.obj
 0003:00000938       ??_C@_02KDAD@?R?$LL?$AA@   00467938     UiPlayerBar.obj
 0003:0000093c       ??_C@_02GLBK@?$LK?$KF?$AA@ 0046793c     UiPlayerBar.obj
 0003:00000940       ??_C@_02HMAC@?P?g?$AA@     00467940     UiPlayerBar.obj
 0003:00000944       ??_C@_02EBKF@?S?O?$AA@     00467944     UiPlayerBar.obj
 0003:00000948       ??_C@_02OBCG@?I?j?$AA@     00467948     UiPlayerBar.obj
 0003:0000094c       ??_C@_02CHAJ@?N?$LE?$AA@   0046794c     UiPlayerBar.obj
 0003:00000950       ??_C@_02NEAA@?N?g?$AA@     00467950     UiPlayerBar.obj
 0003:00000954       ??_C@_02MLLN@?K?H?$AA@     00467954     UiPlayerBar.obj
 0003:00000958       ??_C@_02DFCM@?$LD?$LN?$AA@ 00467958     UiPlayerBar.obj
 0003:0000095c       ??_C@_02HGLL@?C?$KO?$AA@   0046795c     UiPlayerBar.obj
 0003:00000960       ??_C@_02KMFE@?R?z?$AA@     00467960     UiPlayerBar.obj
 0003:00000964       ??_C@_02DLCG@?$LD?s?$AA@   00467964     UiPlayerBar.obj
 0003:00000968       ??_C@_02EMJL@?W?S?$AA@     00467968     UiPlayerBar.obj
 0003:0000096c       ??_C@_04OPPI@?H?K?$LG?$KI?$AA@ 0046796c     UiPlayerBar.obj
 0003:00000974       ??_C@_04PNIF@?$LL?F?$LL?h?$AA@ 00467974     UiPlayerBar.obj
 0003:0000097c       ??_C@_04DPNM@?H?U?H?k?$AA@ 0046797c     UiPlayerBar.obj
 0003:00000984       ??_C@_04LIKN@?j?N?J?$LB?$AA@ 00467984     UiPlayerBar.obj
 0003:0000098c       ??_C@_04BICK@?H?U?$JFi?$AA@ 0046798c     UiPlayerBar.obj
 0003:00000994       ??_C@_04MHEP@?H?U?V?P?$AA@ 00467994     UiPlayerBar.obj
 0003:0000099c       ??_C@_04BAJK@?S?g?V?P?$AA@ 0046799c     UiPlayerBar.obj
 0003:000009a4       ??_C@_04HOAD@?J?$LD?J?$LB?$AA@ 004679a4     UiPlayerBar.obj
 0003:000009ac       ??_C@_04FJCK@?H?U?$LD?v?$AA@ 004679ac     UiPlayerBar.obj
 0003:000009b4       ??_C@_04IBIO@?F?$LN?$LF?$KJ?$AA@ 004679b4     UiPlayerBar.obj
 0003:000009bc       ??_C@_04GDKJ@?$LM?$KG?C?y?$AA@ 004679bc     UiPlayerBar.obj
 0003:000009c4       ??_C@_04LFFD@?R?$LJ?$LA?k?$AA@ 004679c4     UiPlayerBar.obj
 0003:000009cc       ??_C@_0L@NPOC@?$CFs?$CFs?J?$LB?$CFs?$LP?L?$AA@ 004679cc     UiPlayerBar.obj
 0003:000009d8       ??_C@_0BB@KOBP@?$CFd?T?B?$CFd?H?U?5?$CFd?3?$CF02d?$AA@ 004679d8     UiPlayerBar.obj
 0003:000009ec       ??_C@_0L@CLPH@BlockColor?$AA@ 004679ec     UiPlayerBar.obj
 0003:000009f8       ??_C@_0L@JCL@CrowdColor?$AA@ 004679f8     UiPlayerBar.obj
 0003:00000a04       ??_C@_0M@OOPF@SmoothColor?$AA@ 00467a04     UiPlayerBar.obj
 0003:00000a10       ??_C@_08NPGO@GameLogo?$AA@ 00467a10     UiPlayerBar.obj
 0003:00000a1c       ??_C@_0BB@JHPB@?$LN?$KD?O?$MA?G?i?T?$LF?$KB?$KE?M?x?B?g?$LA?f?$AA@ 00467a1c     UiPlayerBar.obj
 0003:00000a30       ??_C@_08GOLE@BlockMsg?$AA@ 00467a30     UiPlayerBar.obj
 0003:00000a3c       ??_C@_08OPO@CrowdMsg?$AA@  00467a3c     UiPlayerBar.obj
 0003:00000a48       ??_C@_09FMGN@SmoothMsg?$AA@ 00467a48     UiPlayerBar.obj
 0003:00000a54       ??_C@_09CGAM@BlockPing?$AA@ 00467a54     UiPlayerBar.obj
 0003:00000a60       ??_C@_09PKGM@CrowdPing?$AA@ 00467a60     UiPlayerBar.obj
 0003:00000a6c       ??_C@_0L@CEDO@SmoothPing?$AA@ 00467a6c     UiPlayerBar.obj
 0003:00000a78       ??_C@_09FHBD@255?0255?00?$AA@ 00467a78     UiPlayerBar.obj
 0003:00000a84       ??_C@_0BD@BEPO@?M?f?$LM?R?P?E?O?$KC?V?w?$LN?g?C?f?4ini?$AA@ 00467a84     UiPlayerBar.obj
 0003:00000a98       ??_C@_0BJ@IBHD@?M?f?$LM?R?P?E?O?$KC?V?w?$LN?g?C?f?W?n?P?$KB?$LL?$KP?4ini?$AA@ 00467a98     UiPlayerBar.obj
 0003:00000ab4       ??_C@_0O@BKKI@SwitchSizeBtn?$AA@ 00467ab4     UiPlayerBar.obj
 0003:00000ac4       ??_C@_0P@IKFB@OpenChannelBtn?$AA@ 00467ac4     UiPlayerBar.obj
 0003:00000ad4       ??_C@_0L@FJMK@ChannelBtn?$AA@ 00467ad4     UiPlayerBar.obj
 0003:00000ae0       ??_C@_07LFLM@SendBtn?$AA@  00467ae0     UiPlayerBar.obj
 0003:00000ae8       ??_C@_0BH@DBGO@FocusNoCanBKColorAlpha?$AA@ 00467ae8     UiPlayerBar.obj
 0003:00000b00       ??_C@_0BC@LGHD@FocusNoCanBKColor?$AA@ 00467b00     UiPlayerBar.obj
 0003:00000b14       ??_C@_09KKMO@InputEdit?$AA@ 00467b14     UiPlayerBar.obj
 0003:00000b20       ??_C@_0BB@FODA@ImediaRightSkill?$AA@ 00467b20     UiPlayerBar.obj
 0003:00000b34       ??_C@_0BA@PIID@ImediaLeftSkill?$AA@ 00467b34     UiPlayerBar.obj
 0003:00000b44       ??_C@_07CIOG@Item_?$CFd?$AA@ 00467b44     UiPlayerBar.obj
 0003:00000b4c       ??_C@_08GPOP@DateTime?$AA@ 00467b4c     UiPlayerBar.obj
 0003:00000b58       ??_C@_06JGDO@Friend?$AA@   00467b58     UiPlayerBar.obj
 0003:00000b60       ??_C@_04KNOD@Face?$AA@     00467b60     UiPlayerBar.obj
 0003:00000b68       ??_C@_07BFAH@Options?$AA@  00467b68     UiPlayerBar.obj
 0003:00000b70       ??_C@_0BB@MLMC@Open?$CI?$FL?$FLsystem?$FN?$FN?$CJ?$AA@ 00467b70     UiPlayerBar.obj
 0003:00000b84       ??_C@_0BB@FMNG@Open?$CI?$FL?$FLfriend?$FN?$FN?$CJ?$AA@ 00467b84     UiPlayerBar.obj
 0003:00000b98       ??_C@_0BA@EBGD@Say?$CI?$CC?$CFs?$CC?0?5?$CC?$CFs?$CC?$CJ?$AA@ 00467b98     UiPlayerBar.obj
 0003:00000ba8       ??_C@_0BB@OANE@Chat?$CI?$CC?$CFs?$CC?0?5?$CC?$CFs?$CC?$CJ?$AA@ 00467ba8     UiPlayerBar.obj
 0003:00000bbc       ??_C@_0CC@PMLL@?G?k?D?z?$LC?$LL?R?$KK?T?Z?O?$PL?O?$KC?V?P?J?$LJ?S?C?$LC?$LL?$LK?O?J?J?$LF?D?$LE?J?S?o@ 00467bbc     UiPlayerBar.obj
 0003:00000be0       ??_C@_0BE@HPDJ@?O?$PL?O?$KC?$LN?$KL?T?Z?$CFd?C?k?$LK?s?$LH?$KC?$LD?v?$CB?$AA@ 00467be0     UiPlayerBar.obj
 0003:00000bf4       ??_C@_0CH@PGPI@?G?$KH?$MA?o?$LE?$KL?R?t?N?$NO?$LH?$KI?A?$KM?P?x?J?$LJ?S?C?$KD?$KM?G?k?D?z?O?H?T?K?O?$KC@ 00467bf4     UiPlayerBar.obj
 0003:00000c1c       ??_C@_0BP@JFMF@?D?z?J?$LJ?S?C?G?$KH?$MA?o?$LE?$KL?R?t?0?5?O?$PL?$LK?D?D?Z?A?$KG?$CFd?$LF?c?$KB?$KD?$AA@ 00467c1c     UiPlayerBar.obj
 0003:00000c3c       ??_C@_0BP@PFHD@?D?z?J?$LJ?S?C?G?$KH?$MA?o?$LE?$KL?R?t?0?5?$LL?$KI?$LH?Q?R?x?A?$LN?$CFd?A?$LN?$KB?$KD?$AA@ 00467c3c     UiPlayerBar.obj
 0003:00000c5c       ??_C@_0CN@EGAL@?D?z?$LF?D?D?Z?A?$KG?$LC?$LL?W?c?$CFd?$LF?c?$KD?$KM?N?$NO?$LH?$KI?J?$LJ?S?C?G?$KH?$MA?o?$LE?$KL@ 00467c5c     UiPlayerBar.obj
 0003:00000c8c       ??_C@_0CN@LLO@?D?z?$LF?D?R?x?A?$LN?$LC?$LL?W?c?$CFd?A?$LN?$KD?$KM?N?$NO?$LH?$KI?J?$LJ?S?C?G?$KH?$MA?o?$LE?$KL@ 00467c8c     UiPlayerBar.obj
 0003:00000cbc       ??_C@_0CN@EDLM@?D?z?$LF?D?$LF?H?$LM?$LG?$LC?$LL?W?c?$CFd?$LM?$LG?$KD?$KM?N?$NO?$LH?$KI?J?$LJ?S?C?G?$KH?$MA?o?$LE?$KL@ 00467cbc     UiPlayerBar.obj
 0003:00000cec       ??_C@_01FCOA@?5?$AA@       00467cec     UiPlayerBar.obj
 0003:00000cf0       ??_C@_01FDLN@?1?$AA@       00467cf0     UiPlayerBar.obj
 0003:00000cf4       ??_C@_02MOMN@PK?$AA@       00467cf4     UiPlayerBar.obj
 0003:00000cf8       ??_C@_08OBKL@ShowName?$AA@ 00467cf8     UiPlayerBar.obj
 0003:00000d04       ??_C@_06HJOA@Player?$AA@   00467d04     UiPlayerBar.obj
 0003:00000d0c       ??_C@_08LFBB@ShowLife?$AA@ 00467d0c     UiPlayerBar.obj
 0003:00000d70       ??_C@_05LNOF@Horse?$AA@    00467d70     UiStatus.obj
 0003:00000d78       ??_C@_05EEIM@Shoes?$AA@    00467d78     UiStatus.obj
 0003:00000d80       ??_C@_07CIKC@Pendant?$AA@  00467d80     UiStatus.obj
 0003:00000d88       ??_C@_05LBOP@Ring2?$AA@    00467d88     UiStatus.obj
 0003:00000d90       ??_C@_05EOFG@Ring1?$AA@    00467d90     UiStatus.obj
 0003:00000d98       ??_C@_04HGAC@Sash?$AA@     00467d98     UiStatus.obj
 0003:00000da0       ??_C@_05KNOD@Cloth?$AA@    00467da0     UiStatus.obj
 0003:00000da8       ??_C@_06PLNF@Bangle?$AA@   00467da8     UiStatus.obj
 0003:00000db0       ??_C@_08PAOK@Necklace?$AA@ 00467db0     UiStatus.obj
 0003:00000dbc       ??_C@_06DNLJ@Weapon?$AA@   00467dbc     UiStatus.obj
 0003:00000dc4       ??_C@_03EEJM@Cap?$AA@      00467dc4     UiStatus.obj
 0003:00000dc8       ??_C@_0BH@CBMI@?M?f?$LM?R?W?$LA?$LB?$LI?S?k?H?K?N?o?W?$LE?L?$KM?4ini?$AA@ 00467dc8     UiStatus.obj
 0003:00000de0       ??_C@_04GFKM@Item?$AA@     00467de0     UiStatus.obj
 0003:00000de8       ??_C@_05JIMF@Close?$AA@    00467de8     UiStatus.obj
 0003:00000df0       ??_C@_06IOLI@Status?$AA@   00467df0     UiStatus.obj
 0003:00000df8       ??_C@_05PGGH@Level?$AA@    00467df8     UiStatus.obj
 0003:00000e00       ??_C@_0N@JKPH@ResistPoison?$AA@ 00467e00     UiStatus.obj
 0003:00000e10       ??_C@_0L@IMNJ@ResistFire?$AA@ 00467e10     UiStatus.obj
 0003:00000e1c       ??_C@_0P@BJKG@ResistLighting?$AA@ 00467e1c     UiStatus.obj
 0003:00000e2c       ??_C@_0L@NCCB@ResistCold?$AA@ 00467e2c     UiStatus.obj
 0003:00000e38       ??_C@_09ECBI@ResistPhy?$AA@ 00467e38     UiStatus.obj
 0003:00000e44       ??_C@_0M@KMC@AttackSpeed?$AA@ 00467e44     UiStatus.obj
 0003:00000e50       ??_C@_09GJAO@MoveSpeed?$AA@ 00467e50     UiStatus.obj
 0003:00000e5c       ??_C@_07OBBI@Defense?$AA@  00467e5c     UiStatus.obj
 0003:00000e64       ??_C@_06MBHJ@Attack?$AA@   00467e64     UiStatus.obj
 0003:00000e6c       ??_C@_0M@FDAC@RightDamage?$AA@ 00467e6c     UiStatus.obj
 0003:00000e78       ??_C@_0L@LAJA@LeftDamage?$AA@ 00467e78     UiStatus.obj
 0003:00000e84       ??_C@_09GGBO@AddEnergy?$AA@ 00467e84     UiStatus.obj
 0003:00000e90       ??_C@_0M@GONA@AddVitality?$AA@ 00467e90     UiStatus.obj
 0003:00000e9c       ??_C@_0N@JJJL@AddDexterity?$AA@ 00467e9c     UiStatus.obj
 0003:00000eac       ??_C@_0M@MHKE@AddStrength?$AA@ 00467eac     UiStatus.obj
 0003:00000eb8       ??_C@_06NFBK@Energy?$AA@   00467eb8     UiStatus.obj
 0003:00000ec0       ??_C@_08MCFD@Vitality?$AA@ 00467ec0     UiStatus.obj
 0003:00000ecc       ??_C@_09OBDH@Dexterity?$AA@ 00467ecc     UiStatus.obj
 0003:00000ed8       ??_C@_08GLCH@Strength?$AA@ 00467ed8     UiStatus.obj
 0003:00000ee4       ??_C@_0M@GKDB@RemainPoint?$AA@ 00467ee4     UiStatus.obj
 0003:00000ef0       ??_C@_03GBLM@Exp?$AA@      00467ef0     UiStatus.obj
 0003:00000ef4       ??_C@_05EDKA@Angry?$AA@    00467ef4     UiStatus.obj
 0003:00000efc       ??_C@_07MDKC@Stamina?$AA@  00467efc     UiStatus.obj
 0003:00000f04       ??_C@_04LLIN@Mana?$AA@     00467f04     UiStatus.obj
 0003:00000f0c       ??_C@_04BBGC@Life?$AA@     00467f0c     UiStatus.obj
 0003:00000f14       ??_C@_05COBC@Money?$AA@    00467f14     UiStatus.obj
 0003:00000f1c       ??_C@_05LDDM@Title?$AA@    00467f1c     UiStatus.obj
 0003:00000f24       ??_C@_04EFNI@Name?$AA@     00467f24     UiStatus.obj
 0003:00000f2c       ??_C@_06HPDH@Agname?$AA@   00467f2c     UiStatus.obj
 0003:00000f34       ??_C@_06KOEB@Female?$AA@   00467f34     UiStatus.obj
 0003:00000f3c       ??_C@_04DMIE@Male?$AA@     00467f3c     UiStatus.obj
 0003:00000f44       ??_C@_0BA@CHKN@Open?$CI?$FL?$FLitems?$FN?$FN?$CJ?$AA@ 00467f44     UiStatus.obj
 0003:00000f54       ??_C@_04FOAE@?$CFd?$CF?$CF?$AA@ 00467f54     UiStatus.obj
 0003:00000f5c       ?ls_ToggleOptionName@@3PAPBDA 00467f5c     UiOptions.obj
 0003:00000f68       ??_C@_0M@FOOP@Perspective?$AA@ 00467f68     UiOptions.obj
 0003:00000f74       ??_C@_07GGMB@Weather?$AA@  00467f74     UiOptions.obj
 0003:00000f7c       ??_C@_0N@DAMP@DynamicLight?$AA@ 00467f7c     UiOptions.obj
 0003:00000f8c       ??_C@_08KNLA@?Q?$KB?O?n?4ini?$AA@ 00467f8c     UiOptions.obj
 0003:00000f98       ??_C@_0BC@FJEL@ToggleOptionsName?$AA@ 00467f98     UiOptions.obj
 0003:00000fac       ??_C@_0N@OLGC@CountPerLine?$AA@ 00467fac     UiOptions.obj
 0003:00000fbc       ??_C@_09HCDP@ToggleBtn?$AA@ 00467fbc     UiOptions.obj
 0003:00000fc8       ??_C@_0L@MIBO@CheckFrame?$AA@ 00467fc8     UiOptions.obj
 0003:00000fd4       ??_C@_0O@KGJP@NotCheckFrame?$AA@ 00467fd4     UiOptions.obj
 0003:00000fe4       ??_C@_0N@BBAE@ToggleStatus?$AA@ 00467fe4     UiOptions.obj
 0003:00000ff4       ??_C@_0M@BKKJ@ShortcutSet?$AA@ 00467ff4     UiOptions.obj
 0003:00001000       ??_C@_05NJPO@Sound?$AA@    00468000     UiOptions.obj
 0003:00001008       ??_C@_05PHIM@Music?$AA@    00468008     UiOptions.obj
 0003:00001010       ??_C@_0L@IKOB@Brightness?$AA@ 00468010     UiOptions.obj
 0003:0000101c       ??_C@_0P@HMCP@ShortcutKeyBtn?$AA@ 0046801c     UiOptions.obj
 0003:0000102c       ??_C@_08GABN@CloseBtn?$AA@ 0046802c     UiOptions.obj
 0003:00001038       ??_C@_07EPHM@?$CFd_File?$AA@ 00468038     UiOptions.obj
 0003:00001040       ??_C@_07ODPD@?$CFd_Name?$AA@ 00468040     UiOptions.obj
 0003:00001048       ??_C@_0L@DBKC@SoundValue?$AA@ 00468048     UiOptions.obj
 0003:00001054       ??_C@_0L@LACF@MusicValue?$AA@ 00468054     UiOptions.obj
 0003:00001060       ??_C@_09POOC@_Skipable?$AA@ 00468060     UiInit.obj
 0003:0000106c       ??_C@_0N@FEAF@JustLaunched?$AA@ 0046806c     UiInit.obj
 0003:0000107c       ??_C@_08LPAF@Movie_?$CFd?$AA@ 0046807c     UiInit.obj
 0003:00001088       ??_C@_0N@DEBD@?2Ui?2?T?S?$LL?b?4ini?$AA@ 00468088     UiInit.obj
 0003:00001098       ??_C@_0O@HCH@TitleMusic_?$CFd?$AA@ 00468098     UiInit.obj
 0003:000010a8       ??_C@_0BA@NPLG@TitleMusicCount?$AA@ 004680a8     UiInit.obj
 0003:000010b8       ??_C@_08KIJC@ExitGame?$AA@ 004680b8     UiInit.obj
 0003:000010c4       ??_C@_0N@GGFN@DesignerList?$AA@ 004680c4     UiInit.obj
 0003:000010d4       ??_C@_0L@GGKL@GameConfig?$AA@ 004680d4     UiInit.obj
 0003:000010e0       ??_C@_09JIIB@EnterGame?$AA@ 004680e0     UiInit.obj
 0003:000010ec       ??_C@_08NNCM@?$LP?$KK?J?$LM?4ini?$AA@ 004680ec     UiInit.obj
 0003:000010f8       ??_C@_09EKKD@CancelBtn?$AA@ 004680f8     UiGetMoney.obj
 0003:00001104       ??_C@_05OBLM@OkBtn?$AA@    00468104     UiGetMoney.obj
 0003:0000110c       ??_C@_0L@PCAO@MoneyInput?$AA@ 0046810c     UiGetMoney.obj
 0003:00001118       ??_C@_0N@CKIL@?H?$KB?G?$KO?$LN?g?C?f?4ini?$AA@ 00468118     UiGetMoney.obj
 0003:00001128       ??_C@_0L@NCBE@OpenStatus?$AA@ 00468128     UiItem.obj
 0003:00001134       ??_C@_07OGEF@ItemBox?$AA@  00468134     UiItem.obj
 0003:0000113c       ??_C@_0M@CHAA@GetMoneyBtn?$AA@ 0046813c     UiItem.obj
 0003:00001148       ??_C@_0N@GIOD@?K?f?I?m?N?o?F?$LH?4ini?$AA@ 00468148     UiItem.obj
 0003:00001158       ??_C@_0BB@PEFL@Open?$CI?$FL?$FLstatus?$FN?$FN?$CJ?$AA@ 00468158     UiItem.obj
 0003:0000116c       ??_C@_06BGLH@Offset?$AA@   0046816c     UiSkills.obj
 0003:00001174       ??_C@_09PMNB@SkillText?$AA@ 00468174     UiSkills.obj
 0003:00001180       ??_C@_08EGDI@Skill_?$CFd?$AA@ 00468180     UiSkills.obj
 0003:0000118c       ??_C@_0BG@MJJK@?$CFs?2?U?$LN?$LG?$LH?$LM?$LM?D?$NM?O?$LI?$LH?V?R?$LD?4ini?$AA@ 0046818c     UiSkills.obj
 0003:000011a4       ??_C@_0O@NDLI@SubPageBtn_?$CFd?$AA@ 004681a4     UiSkills.obj
 0003:000011b4       ??_C@_0BE@KLHK@?$CFs?2?U?$LN?$LG?$LH?$LM?$LM?D?$NM?$LH?V?R?$LD?4ini?$AA@ 004681b4     UiSkills.obj
 0003:000011c8       ??_C@_0BB@DCMI@?I?z?$LL?n?$LM?$LM?D?$NM?$LH?V?R?$LD?4ini?$AA@ 004681c8     UiSkills.obj
 0003:000011dc       ??_C@_07DMAP@LiveBtn?$AA@  004681dc     UiSkills.obj
 0003:000011e4       ??_C@_08KCCI@FightBtn?$AA@ 004681e4     UiSkills.obj
 0003:000011f0       ??_C@_0P@DIGK@?$LM?$LM?D?$NM?V?w?$LE?$LA?$LP?Z?4ini?$AA@ 004681f0     UiSkills.obj
 0003:00001200       ??_C@_02MDGC@24?$AA@       00468200     UiSkills.obj
 0003:00001204       ??_C@_0L@PBKL@RightSkill?$AA@ 00468204     UiSkillTree.obj
 0003:00001210       ??_C@_09GDHJ@LeftSkill?$AA@ 00468210     UiSkillTree.obj
 0003:0000121c       ??_C@_0L@DNIJ@ShortSkill?$AA@ 0046821c     UiSkillTree.obj
 0003:00001228       ??_C@_0BB@MPJI@ShortcutSkill_?$CFd?$AA@ 00468228     UiSkillTree.obj
 0003:0000123c       ??_C@_08LHNJ@KeyColor?$AA@ 0046823c     UiSkillTree.obj
 0003:00001248       ??_C@_07DIGA@KeyFont?$AA@  00468248     UiSkillTree.obj
 0003:00001250       ??_C@_07PFPN@BtnSize?$AA@  00468250     UiSkillTree.obj
 0003:00001258       ??_C@_0M@LBCO@RightBtnPos?$AA@ 00468258     UiSkillTree.obj
 0003:00001264       ??_C@_0L@FCLM@LeftBtnPos?$AA@ 00468264     UiSkillTree.obj
 0003:00001270       ??_C@_0P@EJIJ@?$LM?$LM?D?$NM?Q?$KB?T?q?J?w?4ini?$AA@ 00468270     UiSkillTree.obj
 0003:00001280       ??_C@_0BI@CFAG@DirectShortcutSkill?$CI?$CFd?$CJ?$AA@ 00468280     UiSkillTree.obj
 0003:00001298       ??_C@_0BC@NKFI@ShortcutSkill?$CI?$CFd?$CJ?$AA@ 00468298     UiSkillTree.obj
 0003:000012ac       ??_C@_01PLJA@0?$AA@        004682ac     UiStoreBox.obj
 0003:000012b0       ??_C@_0L@NCPO@?$LE?$KC?N?o?O?d?4ini?$AA@ 004682b0     UiStoreBox.obj
 0003:000012bc       ??_C@_08FIDI@GameHelp?$AA@ 004682bc     UiESCDlg.obj
 0003:000012c8       ??_C@_0N@IHLN@ContiumeGame?$AA@ 004682c8     UiESCDlg.obj
 0003:000012d8       ??_C@_0BC@OABG@ESC?$LE?r?$LP?$KK?$LF?D?$LN?g?C?f?4ini?$AA@ 004682d8     UiESCDlg.obj
 0003:000012ec       ??_C@_0M@LLJN@StringInput?$AA@ 004682ec     UiGetString.obj
 0003:000012f8       ??_C@_0BB@MNFC@?J?d?H?k?W?V?$LE?$KO?$LN?g?C?f?4ini?$AA@ 004682f8     UiGetString.obj
 0003:0000130c       ??_C@_04NBAC@?H?$LH?$LG?$KI?$AA@ 0046830c     UiGetString.obj
 0003:00001314       ??_C@_0BP@LEHH@?J?d?H?k?$LF?D?W?V?J?$PN?$LD?$KM?$LJ?$PN?T?J?P?m?$LF?D?W?n?$LE?s?$LD?$KE?$LG?H?$KD?$KB?$AA@ 00468314     UiGetString.obj
 0003:00001334       ??_C@_0BB@DLLJ@?J?d?H?k?$LF?D?W?V?$LE?$KO?L?$KL?I?Y?$KD?$KB?$AA@ 00468334     UiGetString.obj
 0003:00001348       ??_C@_08DGMJ@InfoText?$AA@ 00468348     UiMsgSel.obj
 0003:00001354       ??_C@_06ININ@Select?$AA@   00468354     UiMsgSel.obj
 0003:0000135c       ??_C@_0BE@IPED@?$CFs?2?$LJ?v?$LG?$KP?Q?$KB?T?q?$LN?g?C?f?4ini?$AA@ 0046835c     UiMsgSel.obj
 0003:00001370       ??_C@_0BL@PFCH@?$FL?9?9?$LN?E?$LB?$LO?$LL?r?$LN?E?$LB?$LO?$LE?$KG?$MA?m?S?P?$LE?m?$KD?$KB?9?9?$FN?$AA@ 00468370     UiMsgSel.obj
 0003:0000138c       ??_C@_08DCDK@?$LN?a?J?x?$LG?T?$LL?$LA?$AA@ 0046838c     UiMsgSel.obj
 0003:000013f0       ??_C@_0BD@FDBF@?$LP?$LE?$LG?T?$LH?$LN?M?f?$LM?R?W?$LA?$LB?$LI?4ini?$AA@ 004683f0     UiParadeItem.obj
 0003:00001404       ??_C@_0BC@ELFL@?2?Q?$KB?T?q?$LI?$LN?$LN?$PM?M?f?$LM?R?4ini?$AA@ 00468404     UiSelPlayerNearby.obj
 0003:00001418       ??_C@_05JBKG@?$CFd_Id?$AA@ 00468418     UiSelPlayerNearby.obj
 0003:00001420       ??_C@_0BC@IHMF@InterPlayerAction?$AA@ 00468420     UiSelPlayerNearby.obj
 0003:00001434       ??_C@_0BB@HALO@?Q?$KB?T?q?$LI?$LN?$LN?$PM?M?f?$LM?R?4ini?$AA@ 00468434     UiSelPlayerNearby.obj
 0003:00001448       ??_C@_0N@MABA@ActionBtn_?$CFd?$AA@ 00468448     UiSelPlayerNearby.obj
 0003:00001458       ??_C@_07HCFN@Refresh?$AA@  00468458     UiSelPlayerNearby.obj
 0003:00001460       ??_C@_0L@CKNO@PlayerList?$AA@ 00468460     UiSelPlayerNearby.obj
 0003:00001480       ??_C@_05FMCF@Earth?$AA@    00468480     UiNewPlayer.obj
 0003:00001488       ??_C@_04EBFF@Fire?$AA@     00468488     UiNewPlayer.obj
 0003:00001490       ??_C@_05CGKI@Water?$AA@    00468490     UiNewPlayer.obj
 0003:00001498       ??_C@_04OEDL@Wood?$AA@     00468498     UiNewPlayer.obj
 0003:000014a0       ??_C@_04IKOF@Gold?$AA@     004684a0     UiNewPlayer.obj
 0003:000014a8       ??_C@_0L@PCBF@SelSound_f?$AA@ 004684a8     UiNewPlayer.obj
 0003:000014b4       ??_C@_0L@FJBE@SelSound_m?$AA@ 004684b4     UiNewPlayer.obj
 0003:000014c0       ??_C@_08MBPP@PropText?$AA@ 004684c0     UiNewPlayer.obj
 0003:000014cc       ??_C@_0N@DCBJ@?2Ui?2?N?e?P?P?4ini?$AA@ 004684cc     UiNewPlayer.obj
 0003:000014dc       ??_C@_09GLE@FemaleImg?$AA@ 004684dc     UiNewPlayer.obj
 0003:000014e8       ??_C@_07KNFI@MaleImg?$AA@  004684e8     UiNewPlayer.obj
 0003:000014f0       ??_C@_0N@EPFE@PropertyShow?$AA@ 004684f0     UiNewPlayer.obj
 0003:00001500       ??_C@_02HAGF@OK?$AA@       00468500     UiNewPlayer.obj
 0003:00001504       ??_C@_0BA@GPFL@PlayerImgPrefix?$AA@ 00468504     UiNewPlayer.obj
 0003:00001514       ??_C@_09EFJH@NewPlayer?$AA@ 00468514     UiNewPlayer.obj
 0003:00001520       ??_C@_0N@DCAN@?P?B?$LN?$KI?$LN?G?I?$KL?4ini?$AA@ 00468520     UiNewPlayer.obj
 0003:00001530       ??_C@_04DKMG@Desc?$AA@     00468530     UiSelNativePlace.obj
 0003:00001538       ??_C@_03GDGP@Img?$AA@      00468538     UiSelNativePlace.obj
 0003:0000153c       ??_C@_02FECH@Id?$AA@       0046853c     UiSelNativePlace.obj
 0003:00001540       ??_C@_0BO@KGLN@?2Settings?2NativePlaceList?4ini?$AA@ 00468540     UiSelNativePlace.obj
 0003:00001560       ??_C@_0O@MCHD@PlaceDescText?$AA@ 00468560     UiSelNativePlace.obj
 0003:00001570       ??_C@_08LJOF@PlaceImg?$AA@ 00468570     UiSelNativePlace.obj
 0003:0000157c       ??_C@_0N@IKLF@?Q?$KB?P?B?J?V?$LE?e?4ini?$AA@ 0046857c     UiSelNativePlace.obj
 0003:000015a8       ??_C@_02BEE@?E?$KO?$AA@    004685a8     UiSelPlayer.obj
 0003:000015ac       ??_C@_02OCHE@?D?P?$AA@     004685ac     UiSelPlayer.obj
 0003:000015b0       ??_C@_02ECGN@?M?A?$AA@     004685b0     UiSelPlayer.obj
 0003:000015b4       ??_C@_02HBML@?$LL?p?$AA@   004685b4     UiSelPlayer.obj
 0003:000015b8       ??_C@_02MDOP@?K?$KO?$AA@   004685b8     UiSelPlayer.obj
 0003:000015bc       ??_C@_02LOJO@?D?$LO?$AA@   004685bc     UiSelPlayer.obj
 0003:000015c0       ??_C@_02GDE@?$LN?p?$AA@    004685c0     UiSelPlayer.obj
 0003:000015c4       ??_C@_08CLHE@LifeTime?$AA@ 004685c4     UiSelPlayer.obj
 0003:000015d0       ??_C@_0N@HKAD@Player3Pos_2?$AA@ 004685d0     UiSelPlayer.obj
 0003:000015e0       ??_C@_0N@IFLK@Player3Pos_1?$AA@ 004685e0     UiSelPlayer.obj
 0003:000015f0       ??_C@_0N@CPCN@Player3Pos_0?$AA@ 004685f0     UiSelPlayer.obj
 0003:00001600       ??_C@_0N@BABK@Player2Pos_1?$AA@ 00468600     UiSelPlayer.obj
 0003:00001610       ??_C@_0N@LKIN@Player2Pos_0?$AA@ 00468610     UiSelPlayer.obj
 0003:00001620       ??_C@_0N@NEIG@PlayerInfoBg?$AA@ 00468620     UiSelPlayer.obj
 0003:00001630       ??_C@_09NBLM@Butterfly?$AA@ 00468630     UiSelPlayer.obj
 0003:0000163c       ??_C@_03MBCK@New?$AA@      0046863c     UiSelPlayer.obj
 0003:00001640       ??_C@_03PHMD@Del?$AA@      00468640     UiSelPlayer.obj
 0003:00001644       ??_C@_02CCIF@Ok?$AA@       00468644     UiSelPlayer.obj
 0003:00001648       ??_C@_07GJKJ@SelRole?$AA@  00468648     UiSelPlayer.obj
 0003:00001650       ??_C@_0BD@DFAA@?Q?$KB?S?N?O?$LH?$LE?f?$LF?$LF?H?K?N?o?4ini?$AA@ 00468650     UiSelPlayer.obj
 0003:00001664       ??_C@_04KNMG@?$CFd?$CFs?$AA@ 00468664     UiSelPlayer.obj
 0003:0000166c       ??_C@_02JHBB@29?$AA@       0046866c     UiSelPlayer.obj
 0003:00001670       ??_C@_02DNIG@28?$AA@       00468670     UiSelPlayer.obj
 0003:00001674       ??_C@_02DMNL@27?$AA@       00468674     UiSelPlayer.obj
 0003:00001678       ??_C@_02JGEM@26?$AA@       00468678     UiSelPlayer.obj
 0003:0000167c       ??_C@_02GJPF@25?$AA@       0046867c     UiSelPlayer.obj
 0003:00001680       ??_C@_09LFDD@second?$CIs?$CJ?$AA@ 00468680     UiSelPlayer.obj
 0003:0000168c       ??_C@_09DFME@minute?$CIs?$CJ?$AA@ 0046868c     UiSelPlayer.obj
 0003:00001698       ??_C@_07EEK@hour?$CIs?$CJ?$AA@ 00468698     UiSelPlayer.obj
 0003:000016a0       ??_C@_06NDHM@day?$CIs?$CJ?$AA@ 004686a0     UiSelPlayer.obj
 0003:000016a8       ??_C@_0BA@EEGE@?$CFs_?$CFs_?$CFs_?$CFd?4spr?$AA@ 004686a8     UiSelPlayer.obj
 0003:000016b8       ?l_pGrupMenuItemTitle@@3PAPBDA 004686b8     UiChatCentre.obj
 0003:000016c4       ?l_pFriendMenuItemTitle@@3PAPBDA 004686c4     UiChatCentre.obj
 0003:000016d0       ??_C@_0N@OMLB@?R?F?$LG?$KP?$LF?$LN?F?d?K?$PM?W?i?$AA@ 004686d0     UiChatCentre.obj
 0003:000016e0       ??_C@_04HGII@?I?$LO?$LD?$PN?$AA@ 004686e0     UiChatCentre.obj
 0003:000016e8       ??_C@_08PNKF@?$LH?$KC?K?M?O?$PL?O?$KC?$AA@ 004686e8     UiChatCentre.obj
 0003:000016f4       ??_C@_06LNKD@?I?$LO?$LD?$PN?W?i?$AA@ 004686f4     UiChatCentre.obj
 0003:000016fc       ??_C@_08GJMD@?V?X?C?$PM?C?$PL?W?i?$AA@ 004686fc     UiChatCentre.obj
 0003:00001708       ??_C@_06BKOE@?P?B?$LN?$KI?W?i?$AA@ 00468708     UiChatCentre.obj
 0003:00001710       ??_C@_01BJG@?6?$AA@        00468710     UiChatCentre.obj
 0003:00001714       ??_C@_04NLCF@?$LD?p?H?K?$AA@ 00468714     UiChatCentre.obj
 0003:0000171c       ??_C@_04BJDP@?G?W?H?K?$AA@ 0046871c     UiChatCentre.obj
 0003:00001724       ??_C@_04NIH@?$LK?C?S?Q?$AA@ 00468724     UiChatCentre.obj
 0003:0000172c       ??_C@_0BC@HGCO@?$CFs?2?A?D?L?l?V?w?$LE?$LA?$LP?Z?4ini?$AA@ 0046872c     UiChatCentre.obj
 0003:00001740       ??_C@_09JNPI@ListBgImg?$AA@ 00468740     UiChatCentre.obj
 0003:0000174c       ??_C@_08BPMJ@GroupBtn?$AA@ 0046874c     UiChatCentre.obj
 0003:00001758       ??_C@_08CJFH@InitLine?$AA@ 00468758     UiChatCentre.obj
 0003:00001764       ??_C@_07PLMF@NumLine?$AA@  00468764     UiChatCentre.obj
 0003:0000176c       ??_C@_0N@PFLF@OfflineColor?$AA@ 0046876c     UiChatCentre.obj
 0003:0000177c       ??_C@_0L@EHKN@MemberList?$AA@ 0046877c     UiChatCentre.obj
 0003:00001788       ??_C@_04DMGD@?F?d?K?$PM?$AA@ 00468788     UiChatCentre.obj
 0003:00001790       ??_C@_0N@CCDH@UnitBtnOther?$AA@ 00468790     UiChatCentre.obj
 0003:000017a0       ??_C@_0N@MCOO@UnitBtnEnemy?$AA@ 004687a0     UiChatCentre.obj
 0003:000017b0       ??_C@_0P@JBIL@UnitBtnBrother?$AA@ 004687b0     UiChatCentre.obj
 0003:000017c0       ??_C@_0O@NCCF@UnitBtnFriend?$AA@ 004687c0     UiChatCentre.obj
 0003:000017d0       ??_C@_0L@HMDG@ScrollDown?$AA@ 004687d0     UiChatCentre.obj
 0003:000017dc       ??_C@_08BIOP@ScrollUp?$AA@ 004687dc     UiChatCentre.obj
 0003:000017e8       ??_C@_07DDKE@FindBtn?$AA@  004687e8     UiChatCentre.obj
 0003:000017f0       ??_C@_07DBEI@TailImg?$AA@  004687f0     UiChatCentre.obj
 0003:000017f8       ??_C@_07EGJC@group?$CFd?$AA@ 004687f8     UiChatCentre.obj
 0003:00001800       ??_C@_0P@KEIE@?J?d?H?k?P?B?W?i?$LF?D?C?$PL?$LD?F?$AA@ 00468800     UiChatCentre.obj
 0003:00001810       ??_C@_0P@NKAJ@?J?d?H?k?P?B?$LF?D?W?i?C?$PL?$LD?F?$AA@ 00468810     UiChatCentre.obj
 0003:00001820       ??_C@_07KIAB@offline?$AA@  00468820     UiChatCentre.obj
 0003:00001828       ??_C@_06FLBD@online?$AA@   00468828     UiChatCentre.obj
 0003:00001830       ??_C@_04OBOG@?N?R?$LF?D?$AA@ 00468830     UiChatCentre.obj
 0003:00001838       ??_C@_0BE@IFKC@SetPhrase?$CI?$CFd?0?5?$CC?$CFs?$CC?$CJ?$AA@ 00468838     UiChatPhrase.obj
 0003:0000184c       ??_C@_0M@OANC@TargetColor?$AA@ 0046884c     UiChatPhrase.obj
 0003:00001858       ??_C@_0M@JOH@MyNameColor?$AA@ 00468858     UiChatPhrase.obj
 0003:00001864       ??_C@_0BB@BEAP@?2Ui?2?A?D?L?l?$LG?$KP?W?w?4ini?$AA@ 00468864     UiChatPhrase.obj
 0003:00001878       ??_C@_06JDLO@Phrase?$AA@   00468878     UiChatPhrase.obj
 0003:00001880       ??_C@_0L@NIIH@?$CFd_Command?$AA@ 00468880     UiChatPhrase.obj
 0003:0000188c       ??_C@_0BA@BAFB@?$CFd_StringOnlyMe?$AA@ 0046888c     UiChatPhrase.obj
 0003:0000189c       ??_C@_09KFAF@?$CFd_String?$AA@ 0046889c     UiChatPhrase.obj
 0003:000018a8       ??_C@_08KKMF@SayEmote?$AA@ 004688a8     UiChatPhrase.obj
 0003:000018b4       ??_C@_0BI@OLEK@GetCurrentChannelName?$CI?$CJ?$AA@ 004688b4     UiChatPhrase.obj
 0003:000018cc       ??_C@_0BG@PBPG@GetRecentPlayerName?$CI?$CJ?$AA@ 004688cc     UiChatPhrase.obj
 0003:000018e4       ??_C@_07CEMB@MsgList?$AA@  004688e4     UiChatStatus.obj
 0003:000018ec       ??_C@_0N@CPGA@ReplyMsgEdit?$AA@ 004688ec     UiChatStatus.obj
 0003:000018fc       ??_C@_0O@BPLI@SetDefaultMsg?$AA@ 004688fc     UiChatStatus.obj
 0003:0000190c       ??_C@_09FILK@RemoveMsg?$AA@ 0046890c     UiChatStatus.obj
 0003:00001918       ??_C@_06JIHK@AddMsg?$AA@   00468918     UiChatStatus.obj
 0003:00001920       ??_C@_07MEEG@HideBtn?$AA@  00468920     UiChatStatus.obj
 0003:00001928       ??_C@_0N@CGLB@AutoReplyBtn?$AA@ 00468928     UiChatStatus.obj
 0003:00001938       ??_C@_07MEBF@BusyBtn?$AA@  00468938     UiChatStatus.obj
 0003:00001940       ??_C@_08HDOJ@LeaveBtn?$AA@ 00468940     UiChatStatus.obj
 0003:0000194c       ??_C@_09PCG@OnLineBtn?$AA@ 0046894c     UiChatStatus.obj
 0003:00001958       ??_C@_0BI@KNBD@?$CFs?2?A?D?L?l?W?$LE?L?$KM?I?h?V?C?$LE?$LA?$LP?Z?4ini?$AA@ 00468958     UiChatStatus.obj
 0003:00001970       ??_C@_09JOKB@SecondBtn?$AA@ 00468970     UiInformation.obj
 0003:0000197c       ??_C@_08NIBK@FirstBtn?$AA@ 0046897c     UiInformation.obj
 0003:00001988       ??_C@_04BOIP@Info?$AA@     00468988     UiInformation.obj
 0003:00001990       ??_C@_08GLPA@?L?a?J?$LO?4ini?$AA@ 00468990     UiInformation.obj
 0003:0000199c       ??_C@_09HMIB@?L?a?J?$LO2?4ini?$AA@ 0046899c     UiInformation2.obj
 0003:000019a8       ??_C@_09OHID@CloseTeam?$AA@ 004689a8     UiTeamManage.obj
 0003:000019b4       ??_C@_07PKIP@Dismiss?$AA@  004689b4     UiTeamManage.obj
 0003:000019bc       ??_C@_05MGBF@Leave?$AA@    004689bc     UiTeamManage.obj
 0003:000019c4       ??_C@_07GADM@Appoint?$AA@  004689c4     UiTeamManage.obj
 0003:000019cc       ??_C@_04MBG@Kick?$AA@      004689cc     UiTeamManage.obj
 0003:000019d4       ??_C@_06FFGK@Invite?$AA@   004689d4     UiTeamManage.obj
 0003:000019dc       ??_C@_0N@JNPP@NearbyScroll?$AA@ 004689dc     UiTeamManage.obj
 0003:000019ec       ??_C@_0N@LBID@MemberScroll?$AA@ 004689ec     UiTeamManage.obj
 0003:000019fc       ??_C@_0L@FGFK@NearbyList?$AA@ 004689fc     UiTeamManage.obj
 0003:00001a08       ??_C@_0O@NAOJ@LeaderAbility?$AA@ 00468a08     UiTeamManage.obj
 0003:00001a18       ??_C@_0N@NANA@?$LG?S?N?i?$LJ?$NM?$MA?m?4ini?$AA@ 00468a18     UiTeamManage.obj
 0003:00001a28       ??_C@_0BC@FCEM@?$CFs?2?$LG?$KF?$LC?$LP?$LP?X?V?F?L?u?4ini?$AA@ 00468a28     UiHeaderControlBar.obj
 0003:00001adc       ??_C@_0BE@JIML@?O?$PL?O?$KC?$LM?$KP?$LK?O?C?f?$LA?e_?S?R?4ini?$AA@ 00468adc     UiMsgCentrePad.obj
 0003:00001af0       ??_C@_0BE@GKME@?O?$PL?O?$KC?$LM?$KP?$LK?O?C?f?$LA?e_?W?s?4ini?$AA@ 00468af0     UiMsgCentrePad.obj
 0003:00001b04       ??_C@_0BE@HOFE@NameTextBorderColor?$AA@ 00468b04     UiMsgCentrePad.obj
 0003:00001b18       ??_C@_0O@FIJD@NameTextColor?$AA@ 00468b18     UiMsgCentrePad.obj
 0003:00001b28       ??_C@_0BH@IBPD@DefaultChannelSendName?$AA@ 00468b28     UiMsgCentrePad.obj
 0003:00001b40       ??_C@_04BGBF@?O?$LF?M?$LD?$AA@ 00468b40     UiMsgCentrePad.obj
 0003:00001b48       ??_C@_0P@OMEC@DefaultChannel?$AA@ 00468b48     UiMsgCentrePad.obj
 0003:00001b58       ??_C@_0L@FAAI@SendMsgNum?$AA@ 00468b58     UiMsgCentrePad.obj
 0003:00001b64       ??_C@_0BA@EHPF@SendMsgInterval?$AA@ 00468b64     UiMsgCentrePad.obj
 0003:00001b74       ??_C@_0L@FEIH@NeverClose?$AA@ 00468b74     UiMsgCentrePad.obj
 0003:00001b80       ??_C@_0M@OALO@MenuBkColor?$AA@ 00468b80     UiMsgCentrePad.obj
 0003:00001b8c       ??_C@_09FDNI@TextImage?$AA@ 00468b8c     UiMsgCentrePad.obj
 0003:00001b98       ??_C@_0BE@JHAE@DeactivateMenuImage?$AA@ 00468b98     UiMsgCentrePad.obj
 0003:00001bac       ??_C@_09DMNE@MenuImage?$AA@ 00468bac     UiMsgCentrePad.obj
 0003:00001bb8       ??_C@_0BD@CPHA@DeactivateMenuText?$AA@ 00468bb8     UiMsgCentrePad.obj
 0003:00001bcc       ??_C@_08PPFE@MenuText?$AA@ 00468bcc     UiMsgCentrePad.obj
 0003:00001bd8       ??_C@_0L@FOJC@FormatName?$AA@ 00468bd8     UiMsgCentrePad.obj
 0003:00001be4       ??_C@_09BCGC@ShortName?$AA@ 00468be4     UiMsgCentrePad.obj
 0003:00001bf0       ??_C@_08LCGJ@Channels?$AA@ 00468bf0     UiMsgCentrePad.obj
 0003:00001bfc       ??_C@_04MOFI@?$CFs?$CFd?$AA@ 00468bfc     UiMsgCentrePad.obj
 0003:00001c04       ??_C@_07IADE@Channel?$AA@  00468c04     UiMsgCentrePad.obj
 0003:00001c0c       ??_C@_0BF@HBCP@Stranger_MenuBkColor?$AA@ 00468c0c     UiMsgCentrePad.obj
 0003:00001c24       ??_C@_0P@IPLE@Self_TextImage?$AA@ 00468c24     UiMsgCentrePad.obj
 0003:00001c34       ??_C@_0BD@CKNO@Stranger_TextImage?$AA@ 00468c34     UiMsgCentrePad.obj
 0003:00001c48       ??_C@_0BD@EFNC@Stranger_MenuImage?$AA@ 00468c48     UiMsgCentrePad.obj
 0003:00001c5c       ??_C@_0N@OMKA@Friend_Sound?$AA@ 00468c5c     UiMsgCentrePad.obj
 0003:00001c6c       ??_C@_0BD@LACN@Friend_MenuBkColor?$AA@ 00468c6c     UiMsgCentrePad.obj
 0003:00001c80       ??_C@_0BB@CLBA@Friend_TextImage?$AA@ 00468c80     UiMsgCentrePad.obj
 0003:00001c94       ??_C@_0BB@EEBM@Friend_MenuImage?$AA@ 00468c94     UiMsgCentrePad.obj
 0003:00001ca8       ??_C@_0BG@EMBO@TextBorderColorFriend?$AA@ 00468ca8     UiMsgCentrePad.obj
 0003:00001cc0       ??_C@_0BA@JFKE@TextColorFriend?$AA@ 00468cc0     UiMsgCentrePad.obj
 0003:00001cd0       ??_C@_0BH@CFKN@TextBorderColorUnknown?$AA@ 00468cd0     UiMsgCentrePad.obj
 0003:00001ce8       ??_C@_0BB@DNHE@TextColorUnknown?$AA@ 00468ce8     UiMsgCentrePad.obj
 0003:00001cfc       ??_C@_0BF@FOC@TextBKColorSelfAlpha?$AA@ 00468cfc     UiMsgCentrePad.obj
 0003:00001d14       ??_C@_0BA@LNNE@TextBKColorSelf?$AA@ 00468d14     UiMsgCentrePad.obj
 0003:00001d24       ??_C@_0BE@DNJE@TextBorderColorSelf?$AA@ 00468d24     UiMsgCentrePad.obj
 0003:00001d38       ??_C@_07KLEC@MSNRoom?$AA@  00468d38     UiMsgCentrePad.obj
 0003:00001d40       ??_C@_0O@PHFE@TextColorSelf?$AA@ 00468d40     UiMsgCentrePad.obj
 0003:00001d50       ??_C@_0N@FLI@SysRoom_Down?$AA@ 00468d50     UiMsgCentrePad.obj
 0003:00001d60       ??_C@_0L@DPMG@SysRoom_Up?$AA@ 00468d60     UiMsgCentrePad.obj
 0003:00001d6c       ??_C@_0N@DBBD@SysRoom_List?$AA@ 00468d6c     UiMsgCentrePad.obj
 0003:00001d7c       ??_C@_0N@IJM@SysRoom_Open?$AA@ 00468d7c     UiMsgCentrePad.obj
 0003:00001d8c       ??_C@_07MEOI@SysRoom?$AA@  00468d8c     UiMsgCentrePad.obj
 0003:00001d94       ??_C@_08LMDK@ChatRoom?$AA@ 00468d94     UiMsgCentrePad.obj
 0003:00001da0       ??_C@_0O@JGJK@CheckOffImage?$AA@ 00468da0     UiMsgCentrePad.obj
 0003:00001db0       ??_C@_0N@HMIL@CheckOnImage?$AA@ 00468db0     UiMsgCentrePad.obj
 0003:00001dc0       ??_C@_09EHBC@BorderImg?$AA@ 00468dc0     UiMsgCentrePad.obj
 0003:00001dcc       ??_C@_06OEKH@SizeUp?$AA@   00468dcc     UiMsgCentrePad.obj
 0003:00001dd4       ??_C@_07OJKP@SizeBtn?$AA@  00468dd4     UiMsgCentrePad.obj
 0003:00001ddc       ??_C@_09GDHJ@ShadowBtn?$AA@ 00468ddc     UiMsgCentrePad.obj
 0003:00001de8       ??_C@_07DOKM@MoveImg?$AA@  00468de8     UiMsgCentrePad.obj
 0003:00001df0       ??_C@_0M@GLEG@WindowRange?$AA@ 00468df0     UiMsgCentrePad.obj
 0003:00001dfc       ??_C@_04NNGL@?$LJ?X?$LB?U?$AA@ 00468dfc     UiMsgCentrePad.obj
 0003:00001e04       ??_C@_04KMAK@?$LE?r?$LP?$KK?$AA@ 00468e04     UiMsgCentrePad.obj
 0003:00001e0c       ??_C@_0BC@EKOK@?$CFs?2?$LJ?$KE?$LO?$NP?$LP?X?V?F?L?u?4ini?$AA@ 00468e0c     UiToolsControlBar.obj
 0003:00001e20       ??_C@_08HL@RightBtn?$AA@   00468e20     UiShop.obj
 0003:00001e2c       ??_C@_07LFKI@LeftBtn?$AA@  00468e2c     UiShop.obj
 0003:00001e34       ??_C@_09PMPL@RepairBtn?$AA@ 00468e34     UiShop.obj
 0003:00001e40       ??_C@_07NPGG@SellBtn?$AA@  00468e40     UiShop.obj
 0003:00001e48       ??_C@_06PKOP@BuyBtn?$AA@   00468e48     UiShop.obj
 0003:00001e50       ??_C@_0BD@JMC@?$CFs?2npc?B?r?B?t?$LN?g?C?f?4ini?$AA@ 00468e50     UiShop.obj
 0003:00001e64       ??_C@_0BC@CHGO@?$CFs?2?M?f?$LM?R?$LM?d?$LN?$LL?R?W?4ini?$AA@ 00468e64     UiTrade.obj
 0003:00001e78       ??_C@_0P@JCJI@UnlockMsgColor?$AA@ 00468e78     UiTrade.obj
 0003:00001e88       ??_C@_0N@FFE@LockMsgColor?$AA@ 00468e88     UiTrade.obj
 0003:00001e98       ??_C@_0BC@CIFL@WaitTradeMsgColor?$AA@ 00468e98     UiTrade.obj
 0003:00001eac       ??_C@_0M@ONEK@255?0255?0255?$AA@ 00468eac     UiTrade.obj
 0003:00001eb8       ??_C@_0L@PICC@OtherMoney?$AA@ 00468eb8     UiTrade.obj
 0003:00001ec4       ??_C@_0O@PMHB@OtherItemsBox?$AA@ 00468ec4     UiTrade.obj
 0003:00001ed4       ??_C@_09HFPD@OtherName?$AA@ 00468ed4     UiTrade.obj
 0003:00001ee0       ??_C@_0M@GFHK@ReduceMoney?$AA@ 00468ee0     UiTrade.obj
 0003:00001eec       ??_C@_08CKJO@AddMoney?$AA@ 00468eec     UiTrade.obj
 0003:00001ef8       ??_C@_08NCNJ@TradeBtn?$AA@ 00468ef8     UiTrade.obj
 0003:00001f04       ??_C@_09KAEK@SelfMoney?$AA@ 00468f04     UiTrade.obj
 0003:00001f10       ??_C@_0N@OOBN@SelfItemsBox?$AA@ 00468f10     UiTrade.obj
 0003:00001f20       ??_C@_0O@EPGK@TakewithMoney?$AA@ 00468f20     UiTrade.obj
 0003:00001f30       ??_C@_0BB@EMEF@TakewithItemsBox?$AA@ 00468f30     UiTrade.obj
 0003:00001f44       ??_C@_0N@EOHD@?$LF?H?$LE?$PN?$LG?T?$LH?$LN?K?x?$LG?$KI?$AA@ 00468f44     UiTrade.obj
 0003:00001f54       ??_C@_0L@MCMM@?$LG?T?$LH?$LN?R?Q?K?x?$LG?$KI?$AA@ 00468f54     UiTrade.obj
 0003:00001f60       ??_C@_0N@NOFA@?$LF?H?$LE?$PN?$LN?$LL?R?W?V?$LE?P?P?$AA@ 00468f60     UiTrade.obj
 0003:00001f70       ??_C@_09KNAN@RepairImg?$AA@ 00468f70     UiTradeConfirmWnd.obj
 0003:00001f7c       ??_C@_07NHNC@SaleImg?$AA@  00468f7c     UiTradeConfirmWnd.obj
 0003:00001f84       ??_C@_06KLBJ@BuyImg?$AA@   00468f84     UiTradeConfirmWnd.obj
 0003:00001f8c       ??_C@_0N@CDCK@CantBuyColor?$AA@ 00468f8c     UiTradeConfirmWnd.obj
 0003:00001f9c       ??_C@_05FMHM@Price?$AA@    00468f9c     UiTradeConfirmWnd.obj
 0003:00001fa4       ??_C@_08FALO@ItemName?$AA@ 00468fa4     UiTradeConfirmWnd.obj
 0003:00001fb0       ??_C@_0N@CEHJ@?B?r?B?t?H?$LH?H?O?4ini?$AA@ 00468fb0     UiTradeConfirmWnd.obj
 0003:00001fc0       ?g_ActionName@@3PAY0CA@DA  00468fc0     UiGame.obj
 0003:00002100       ??_C@_04GKJC@?$LJ?$KL?$LI?f?$AA@ 00469100     UiSysMsgCentre.obj
 0003:00002108       ??_C@_0BI@IHPD@SysMsgDisappearInterval?$AA@ 00469108     UiSysMsgCentre.obj
 0003:00002120       ??_C@_0BD@FHCP@SysMsgMoveInterval?$AA@ 00469120     UiSysMsgCentre.obj
 0003:00002134       ??_C@_0N@PMMC@?O?$LF?M?$LD?O?$PL?O?$KC?4ini?$AA@ 00469134     UiSysMsgCentre.obj
 0003:00002144       ??_C@_0P@HMHL@NormalMsgColor?$AA@ 00469144     UiSysMsgCentre.obj
 0003:00002154       ??_C@_0L@MFLD@MsgIcon_?$CFd?$AA@ 00469154     UiSysMsgCentre.obj
 0003:00002160       ??_C@_07NDE@MsgText?$AA@   00469160     UiSysMsgCentre.obj
 0003:00002168       ??_C@_0BB@OPPN@?D?c?R?Q?$LO?$KN?I?m?J?$NM?V?X?I?K?$KD?$KB?$AA@ 00469168     UiSysMsgCentre.obj
 0003:0000217c       ??_C@_08MPIM@?$LL?X?$LD?G?P?$NN?Q?x?$AA@ 0046917c     UiSysMsgCentre.obj
 0003:00002188       ??_C@_04LNBN@?$LO?$NM?$LO?x?$AA@ 00469188     UiSysMsgCentre.obj
 0003:00002190       ??_C@_04KHPH@?M?$KM?R?b?$AA@ 00469190     UiSysMsgCentre.obj
 0003:00002198       ??_C@_0BH@BFOK@?$CFs?O?$KD?M?$PL?I?j?G?k?$LM?S?H?k?D?c?$LF?D?$LA?o?$LL?a?$AA@ 00469198     UiSysMsgCentre.obj
 0003:000021b0       ??_C@_0P@CFNP@?$CFs?O?$KD?M?$PL?S?k?D?c?$LN?$LL?R?W?$AA@ 004691b0     UiSysMsgCentre.obj
 0003:000021c0       ??_C@_0BD@MHAF@?$CFs?O?$KD?M?$PL?S?k?D?c?$LD?I?N?$KK?$LK?C?S?Q?$AA@ 004691c0     UiSysMsgCentre.obj
 0003:000021d4       ??_C@_0BD@LDP@?$CFs?I?j?G?k?$LM?S?H?k?D?c?$LF?D?$LG?S?N?i?$AA@ 004691d4     UiSysMsgCentre.obj
 0003:000021e8       ??_C@_0BF@FLFE@?$CFs?Q?$PL?G?k?D?c?$LM?S?H?k?K?$PL?$LF?D?$LG?S?N?i?$AA@ 004691e8     UiSysMsgCentre.obj
 0003:00002200       ?s_ModeName@@3PAPBDA       00469200     UiMiniMap.obj
 0003:00002214       ??_C@_0L@CFEB@?5?$LJ?X?$LB?U?$LF?X?M?$LM?5?$AA@ 00469214     UiMiniMap.obj
 0003:00002220       ??_C@_0L@IPKM@?J?$MA?$LN?g?$LE?s?$LF?X?M?$LM?$AA@ 00469220     UiMiniMap.obj
 0003:0000222c       ??_C@_0L@NOKM@?$LB?j?W?$LM?$LE?s?$LF?X?M?$LM?$AA@ 0046922c     UiMiniMap.obj
 0003:00002238       ??_C@_0L@BPGK@?$LB?j?W?$LM?P?$KB?$LF?X?M?$LM?$AA@ 00469238     UiMiniMap.obj
 0003:00002244       ??_C@_0BC@JDLN@?P?$KB?$LF?X?M?$LM_?d?$KP?$MA?$MA?$LA?f?4ini?$AA@ 00469244     UiMiniMap.obj
 0003:00002258       ??_C@_0O@GGAL@?P?$KB?$LF?X?M?$LM_?P?$KB?4ini?$AA@ 00469258     UiMiniMap.obj
 0003:00002268       ??_C@_07CFDH@MapRect?$AA@  00469268     UiMiniMap.obj
 0003:00002270       ??_C@_0M@KMIG@WorldMapBtn?$AA@ 00469270     UiMiniMap.obj
 0003:0000227c       ??_C@_09HCDC@SwitchBtn?$AA@ 0046927c     UiMiniMap.obj
 0003:00002288       ??_C@_08GGHJ@ScenePos?$AA@ 00469288     UiMiniMap.obj
 0003:00002294       ??_C@_09KBBA@SceneName?$AA@ 00469294     UiMiniMap.obj
 0003:000022a0       ??_C@_0L@HAP@NameShadow?$AA@ 004692a0     UiMiniMap.obj
 0003:000022ac       ??_C@_07KEPK@MiniMap?$AA@  004692ac     UiMiniMap.obj
 0003:000022b4       ??_C@_09DIJP@ColorList?$AA@ 004692b4     UiSelColor.obj
 0003:000022c0       ??_C@_0O@HDAB@?$CFs?2?Q?$KB?Q?U?I?$KL?4ini?$AA@ 004692c0     UiSelColor.obj
 0003:000022d0       ??_C@_0M@NFEL@AdvanceList?$AA@ 004692d0     UiNewPlayerStartMsg.obj
 0003:000022dc       ??_C@_0BF@HJPE@?2Ui?2NewEnterInfo?4ini?$AA@ 004692dc     UiNewPlayerStartMsg.obj
 0003:000022f4       ??_C@_0BA@JE@AdvanceNewerBtn?$AA@ 004692f4     UiNewPlayerStartMsg.obj
 0003:00002304       ??_C@_08IJND@NewerBtn?$AA@ 00469304     UiNewPlayerStartMsg.obj
 0003:00002310       ??_C@_0BH@MFKH@?P?B?J?V?$LN?x?H?k?$LF?D?$LD?u?J?$LM?$LN?g?C?f?4ini?$AA@ 00469310     UiNewPlayerStartMsg.obj
 0003:00002328       ??_C@_0BG@PLIA@KLVideoSetSoundVolume?$AA@ 00469328     UiPlayVideo.obj
 0003:00002340       ??_C@_0BH@HFEM@KLVideoGetCurrentFrame?$AA@ 00469340     UiPlayVideo.obj
 0003:00002358       ??_C@_0BB@FBDB@KLVideoNextFrame?$AA@ 00469358     UiPlayVideo.obj
 0003:0000236c       ??_C@_0P@DNMI@KLVideoDoFrame?$AA@ 0046936c     UiPlayVideo.obj
 0003:0000237c       ??_C@_0BE@HMOK@KLVideoCopyToBuffer?$AA@ 0046937c     UiPlayVideo.obj
 0003:00002390       ??_C@_0M@LNHM@KLVideoWait?$AA@ 00469390     UiPlayVideo.obj
 0003:0000239c       ??_C@_0N@BFDO@KLVideoClose?$AA@ 0046939c     UiPlayVideo.obj
 0003:000023ac       ??_C@_0M@PGKJ@KLVideoOpen?$AA@ 004693ac     UiPlayVideo.obj
 0003:000023b8       ??_C@_0BF@IMFE@KLVideoSetSoundTrack?$AA@ 004693b8     UiPlayVideo.obj
 0003:000023d0       ??_C@_0BG@MMNP@KLVideoSetSoundSystem?$AA@ 004693d0     UiPlayVideo.obj
 0003:000023e8       ??_C@_0M@LCNM@KLVideo?4dll?$AA@ 004693e8     UiPlayVideo.obj
 0003:000023f4       ??_C@_0P@KIEE@VideoBitmap_?$CFd?$AA@ 004693f4     UiPlayVideo.obj
 0003:00002404       ??_C@_0O@PELD@KeyboardImage?$AA@ 00469404     UiHelper.obj
 0003:00002414       ??_C@_0M@FACA@WuxingImage?$AA@ 00469414     UiHelper.obj
 0003:00002420       ??_C@_0BB@NOCN@?$LM?r?$LF?$KF?$LA?o?V?z?$LN?g?C?f?4ini?$AA@ 00469420     UiHelper.obj
 0003:00002434       ??_C@_0M@JGNB@MessageList?$AA@ 00469434     UiHelper2.obj
 0003:00002440       ??_C@_0O@CEBJ@MessageScroll?$AA@ 00469440     UiHelper2.obj
 0003:00002450       ??_C@_0M@OFPN@IndexScroll?$AA@ 00469450     UiHelper2.obj
 0003:0000245c       ??_C@_09FFOM@IndexList?$AA@ 0046945c     UiHelper2.obj
 0003:00002468       ??_C@_09DAPA@BtnWuxing?$AA@ 00469468     UiHelper2.obj
 0003:00002474       ??_C@_0M@KFLG@BtnKeyboard?$AA@ 00469474     UiHelper2.obj
 0003:00002480       ??_C@_06LHJM@BtnPic?$AA@   00469480     UiHelper2.obj
 0003:00002488       ??_C@_08CLCB@BtnClose?$AA@ 00469488     UiHelper2.obj
 0003:00002494       ??_C@_0BB@HJJ@?O?j?O?$LI?$LA?o?V?z?$LN?g?C?f?4ini?$AA@ 00469494     UiHelper2.obj
 0003:000024a8       ??_C@_0O@MACM@?$CFd_IniSection?$AA@ 004694a8     UiHelper2.obj
 0003:000024b8       ??_C@_06NIJP@?$CFd_Ini?$AA@ 004694b8     UiHelper2.obj
 0003:000024c0       ??_C@_0BB@DAM@?O?j?O?$LI?$LA?o?V?z?O?n?D?$LP?4ini?$AA@ 004694c0     UiHelper2.obj
 0003:000024d4       ??_C@_0BH@ENGJ@AutoReconnectHideTimes?$AA@ 004694d4     UiReconnect.obj
 0003:000024ec       ??_C@_02MDKJ@21?$AA@       004694ec     UiReconnect.obj
 0003:000024f0       ??_C@_0DJ@IMPI@?U?$PN?T?Z?$LA?o?V?z?D?z?$LN?x?P?P?$LF?Z?5?$DMcolor?$DNred?$DO?$CFd?$DMc@ 004694f0     UiReconnect.obj
 0003:0000252c       ??_C@_0BP@BJKH@?$LF?c?$LP?$KI?$LC?$LL?W?c?$KD?$KM?G?k?$LD?d?V?$LF?$LK?s?T?Y?$LM?L?P?x?S?N?O?$LH?$KB?$KD?$AA@ 0046952c     UiReconnect.obj
 0003:0000254c       ??_C@_0N@FNBP@?U?$PN?T?Z?$LN?x?H?k?S?N?O?$LH?$AA@ 0046954c     UiReconnect.obj
 0003:0000255c       ??_C@_0BD@CMIF@?U?$PN?T?Z?A?$KM?$LN?S?S?N?O?$LH?$LH?$PO?N?q?F?w?$AA@ 0046955c     UiReconnect.obj
 0003:00002570       ??_C@_0BF@FBDE@?U?$PN?T?Z?$LN?S?J?U?$LN?G?I?$KL?A?P?$LB?m?J?$PN?$LO?$NN?$AA@ 00469570     UiReconnect.obj
 0003:00002588       ??_C@_0BH@HBHB@?U?$PN?T?Z?$LN?x?P?P?U?K?$LK?E?S?k?C?$NM?B?k?Q?i?V?$KE?$AA@ 00469588     UiReconnect.obj
 0003:000025a0       ??_C@_0N@ICNA@?$LE?K?$LE?N?V?X?A?$KM?J?$KH?$LA?$NM?$AA@ 004695a0     UiReconnect.obj
 0003:000025b0       ??_C@_08HLPD@?M?K?$LD?v?S?N?O?$LH?$AA@ 004695b0     UiReconnect.obj
 0003:000025bc       ??_C@_08IGHL@?A?$KC?$LM?$LE?V?X?A?$KM?$AA@ 004695bc     UiReconnect.obj
 0003:000025c8       ??_C@_0CC@BCJJ@?$CFd?5?C?k?V?S?V?$KO?$LK?s?$LN?$KL?$LN?x?P?P?O?B?R?$LL?W?i?$LG?O?O?$NP?V?X?A?$KM?$KB@ 004695c8     UiReconnect.obj
 0003:000025ec       ??_C@_0DG@EBNC@?$CFd?5?C?k?V?S?V?$KO?$LK?s?$LN?$KL?$LN?x?P?P?$LF?Z?5?$DMcolor?$DNred?$DO?$CF@ 004695ec     UiReconnect.obj
 0003:00002624       ??_C@_0BC@NBLJ@MissionMemory?4dat?$AA@ 00469624     UiTaskDataFile.obj
 0003:00002638       ??_C@_0N@HDEK@EditorScroll?$AA@ 00469638     UiTaskNote.obj
 0003:00002648       ??_C@_06NJIA@Editor?$AA@   00469648     UiTaskNote.obj
 0003:00002650       ??_C@_07MFBB@SaveBtn?$AA@  00469650     UiTaskNote.obj
 0003:00002658       ??_C@_0BK@OMLN@?H?N?N?q?$LM?G?J?B?9?$LI?v?H?K?$LM?G?J?B?$LH?V?R?$LD?4ini?$AA@ 00469658     UiTaskNote.obj
 0003:00002674       ??_C@_09KILI@DeleteBtn?$AA@ 00469674     UiTaskNote.obj
 0003:00002680       ??_C@_0BK@HMOH@?H?N?N?q?$LM?G?J?B?9?O?$LF?M?$LD?H?N?N?q?$LH?V?R?$LD?4ini?$AA@ 00469680     UiTaskNote.obj
 0003:0000269c       ??_C@_0M@IEOF@PersonalBtn?$AA@ 0046969c     UiTaskNote.obj
 0003:000026a8       ??_C@_09DDLI@SystemBtn?$AA@ 004696a8     UiTaskNote.obj
 0003:000026b4       ??_C@_0N@CFLG@?H?N?N?q?$LM?G?J?B?4ini?$AA@ 004696b4     UiTaskNote.obj
 0003:000026c4       ??_C@_04CJMG@Sign?$AA@     004696c4     UiWorldMap.obj
 0003:000026cc       ??_C@_08MJMD@WorldMap?$AA@ 004696cc     UiWorldMap.obj
 0003:000026d8       ??_C@_0BH@NGBL@?2?P?$KB?$LF?X?M?$LM_?J?$MA?$LN?g?$LF?X?M?$LM?$LA?f?4ini?$AA@ 004696d8     UiWorldMap.obj
 0003:000026f0       ??_C@_09PDBN@?$CFd_MapPos?$AA@ 004696f0     UiWorldMap.obj
 0003:000026fc       ??_C@_0O@LKG@WorldMapImage?$AA@ 004696fc     UiWorldMap.obj
 0003:0000270c       ??_C@_0BG@HNC@?2Settings?2MapList?4ini?$AA@ 0046970c     UiWorldMap.obj
 0003:00002724       ??_C@_0BH@JGOE@?2Ui?2DefaultMessage?4ini?$AA@ 00469724     UiNewsMessage.obj
 0003:0000273c       ??_C@_0P@JMLN@ScrollInterval?$AA@ 0046973c     UiNewsMessage.obj
 0003:0000274c       ??_C@_0N@ENDL@ShowInterval?$AA@ 0046974c     UiNewsMessage.obj
 0003:0000275c       ??_C@_0M@PICF@MaxIdleTime?$AA@ 0046975c     UiNewsMessage.obj
 0003:00002768       ??_C@_0BB@KGPI@?P?B?N?E?O?$PL?O?$KC?$MA?$LE?A?K?4ini?$AA@ 00469768     UiNewsMessage.obj
 0003:0000277c       ??_C@_09MBCL@ListCount?$AA@ 0046977c     UiStrengthRank.obj
 0003:00002788       ??_C@_0P@HPE@?2Ui?2?E?E?C?$PLID?4ini?$AA@ 00469788     UiStrengthRank.obj
 0003:00002798       ??_C@_09OCEI@DefaultID?$AA@ 00469798     UiStrengthRank.obj
 0003:000027a4       ??_C@_09KPNI@SteadyPic?$AA@ 004697a4     UiStrengthRank.obj
 0003:000027b0       ??_C@_07JCOI@DownPic?$AA@  004697b0     UiStrengthRank.obj
 0003:000027b8       ??_C@_05PAAH@UpPic?$AA@    004697b8     UiStrengthRank.obj
 0003:000027c0       ??_C@_08BLAN@?E?E?C?$PL?4ini?$AA@ 004697c0     UiStrengthRank.obj
 0003:000027cc       ??_C@_0BD@NEGP@?E?E?C?$PL?$LF?D?A?Y?J?$LB?N?D?$LM?$PO?4ini?$AA@ 004697cc     UiStrengthRank.obj
 0003:000027e0       ??_C@_0M@CLBM@?$CFd_SortFlag?$AA@ 004697e0     UiStrengthRank.obj
 0003:000027ec       ??_C@_0L@DDOP@?$CFd_Appened?$AA@ 004697ec     UiStrengthRank.obj
 0003:000027f8       ??_C@_05MDEG@?$CFd_ID?$AA@ 004697f8     UiStrengthRank.obj
 0003:00002800       ??_C@_05BFNK@Index?$AA@    00469800     UiStrengthRank.obj
 0003:00002808       ??_C@_04DCMN@?$CFs?$CFs?$AA@ 00469808     UiStrengthRank.obj
 0003:00002810       ??_C@_07IECN@?$CFd_Unit?$AA@ 00469810     UiStrengthRank.obj
 0003:00002818       ??_C@_08GEJK@?$CFd_Title?$AA@ 00469818     UiStrengthRank.obj
 0003:00002824       ??_C@_01LLF@w?$AA@         00469824     UiStrengthRank.obj
 0003:00002828       ??_C@_01LHO@r?$AA@         00469828     UiStrengthRank.obj
 0003:0000282c       ??_C@_0L@NKEA@BtnConfirm?$AA@ 0046982c     UiPopupPasswordQuery.obj
 0003:00002838       ??_C@_0BB@HCNC@?C?$NM?B?k?Q?$KP?N?J?$LE?$LA?$LP?Z?4ini?$AA@ 00469838     UiPopupPasswordQuery.obj
 0003:0000284c       ??_C@_0M@IJLI@ErrorFigure?$AA@ 0046984c     UiTongAssignBox.obj
 0003:00002858       ??_C@_0L@EFOD@?G?k?Q?$KB?T?q?V?$LA?N?$LL?$AA@ 00469858     UiTongAssignBox.obj
 0003:00002864       ??_C@_0O@IIFL@ConfirmString?$AA@ 00469864     UiTongAssignBox.obj
 0003:00002874       ??_C@_0N@DIJP@CancelString?$AA@ 00469874     UiTongAssignBox.obj
 0003:00002884       ??_C@_0N@PHPD@AssignString?$AA@ 00469884     UiTongAssignBox.obj
 0003:00002894       ??_C@_04BAII@?$LA?o?V?Z?$AA@ 00469894     UiTongAssignBox.obj
 0003:0000289c       ??_C@_04LCFJ@?$LG?S?$LD?$KE?$AA@ 0046989c     UiTongAssignBox.obj
 0003:000028a4       ??_C@_04CILH@?$LD?$KE?$MA?O?$AA@ 004698a4     UiTongAssignBox.obj
 0003:000028ac       ??_C@_08CG@ErrorBox?$AA@   004698ac     UiTongAssignBox.obj
 0003:000028b8       ??_C@_0L@FLCK@PlayerName?$AA@ 004698b8     UiTongAssignBox.obj
 0003:000028c4       ??_C@_09CFEN@BtnCancel?$AA@ 004698c4     UiTongAssignBox.obj
 0003:000028d0       ??_C@_0M@OAOK@BtnDirector?$AA@ 004698d0     UiTongAssignBox.obj
 0003:000028dc       ??_C@_0L@LMPM@BtnManager?$AA@ 004698dc     UiTongAssignBox.obj
 0003:000028e8       ??_C@_09EKED@BtnMember?$AA@ 004698e8     UiTongAssignBox.obj
 0003:000028f4       ??_C@_0BB@OBCD@?$LA?o?$LL?a?V?$LA?N?$LL?H?N?C?$PM?4ini?$AA@ 004698f4     UiTongAssignBox.obj
 0003:00002908       ??_C@_0P@LPLJ@WithoutFaction?$AA@ 00469908     UiTongCreateSheet.obj
 0003:00002918       ??_C@_0M@JLFH@WithoutName?$AA@ 00469918     UiTongCreateSheet.obj
 0003:00002924       ??_C@_07IGBG@BtnDone?$AA@  00469924     UiTongCreateSheet.obj
 0003:0000292c       ??_C@_05OIKH@Input?$AA@    0046992c     UiTongCreateSheet.obj
 0003:00002934       ??_C@_0L@CPCI@BtnNatural?$AA@ 00469934     UiTongCreateSheet.obj
 0003:00002940       ??_C@_08BBPO@BtnChaos?$AA@ 00469940     UiTongCreateSheet.obj
 0003:0000294c       ??_C@_08INIO@BtnOrder?$AA@ 0046994c     UiTongCreateSheet.obj
 0003:00002958       ??_C@_0P@CAPM@?$LA?o?$LL?a?$LE?$LE?$LN?$KI?$LF?$KF?4ini?$AA@ 00469958     UiTongCreateSheet.obj
 0003:00002968       ??_C@_0BC@FBCH@?J?d?H?k?W?V?$LE?$KO?$LN?g?C?f2?4ini?$AA@ 00469968     UiTongGetString.obj
 0003:0000297c       ??_C@_0N@DIKN@StringCancel?$AA@ 0046997c     UiTongManager.obj
 0003:0000298c       ??_C@_0O@OIFN@StringConfirm?$AA@ 0046998c     UiTongManager.obj
 0003:0000299c       ??_C@_0L@BID@StringEvil?$AA@ 0046999c     UiTongManager.obj
 0003:000029a8       ??_C@_0O@DKCH@StringBalance?$AA@ 004699a8     UiTongManager.obj
 0003:000029b8       ??_C@_0O@HKNH@StringJustice?$AA@ 004699b8     UiTongManager.obj
 0003:000029c8       ??_C@_0M@JFCP@StringLeave?$AA@ 004699c8     UiTongManager.obj
 0003:000029d4       ??_C@_0N@OIEP@StringDemise?$AA@ 004699d4     UiTongManager.obj
 0003:000029e4       ??_C@_0N@NCLK@StringAssign?$AA@ 004699e4     UiTongManager.obj
 0003:000029f4       ??_C@_0O@COMM@StringDismiss?$AA@ 004699f4     UiTongManager.obj
 0003:00002a04       ??_C@_0L@JEAD@BtnRefresh?$AA@ 00469a04     UiTongManager.obj
 0003:00002a10       ??_C@_0O@EOMH@ListScrollbar?$AA@ 00469a10     UiTongManager.obj
 0003:00002a20       ??_C@_0O@MJKK@BtnMemberList?$AA@ 00469a20     UiTongManager.obj
 0003:00002a30       ??_C@_0P@FNNL@BtnManagerList?$AA@ 00469a30     UiTongManager.obj
 0003:00002a40       ??_C@_0BA@MHCN@BtnDirectorList?$AA@ 00469a40     UiTongManager.obj
 0003:00002a50       ??_C@_08GHBA@BtnApply?$AA@ 00469a50     UiTongManager.obj
 0003:00002a5c       ??_C@_0L@DAOF@BtnRecruit?$AA@ 00469a5c     UiTongManager.obj
 0003:00002a68       ??_C@_08HFPB@BtnLeave?$AA@ 00469a68     UiTongManager.obj
 0003:00002a74       ??_C@_09PFKP@BtnDemise?$AA@ 00469a74     UiTongManager.obj
 0003:00002a80       ??_C@_09MPFK@BtnAssign?$AA@ 00469a80     UiTongManager.obj
 0003:00002a8c       ??_C@_0L@BMNB@BtnDismiss?$AA@ 00469a8c     UiTongManager.obj
 0003:00002a98       ??_C@_0M@KPKI@MemberCount?$AA@ 00469a98     UiTongManager.obj
 0003:00002aa4       ??_C@_07CKEH@Faction?$AA@  00469aa4     UiTongManager.obj
 0003:00002aac       ??_C@_0P@DGPE@TextMasterName?$AA@ 00469aac     UiTongManager.obj
 0003:00002abc       ??_C@_0N@JKCH@TextTongName?$AA@ 00469abc     UiTongManager.obj
 0003:00002acc       ??_C@_0BB@OEM@?$LA?o?$LL?a?$LJ?$NM?$MA?m?$LN?g?C?f?4ini?$AA@ 00469acc     UiTongManager.obj
 0003:00002ae0       ??_C@_05JKGE@?$CFs?5?$CFs?$AA@ 00469ae0     UiTongManager.obj
 0003:00002ae8       ??_C@_07MAGO@?$CFd_Hash?$AA@ 00469ae8     UiTongManager.obj
 0003:00002af0       ??_C@_09IIKC@?$CFd_AgName?$AA@ 00469af0     UiTongManager.obj
 0003:00002afc       ??_C@_0BB@MBHK@?$LA?o?$LL?a?A?Y?J?$LB?N?D?$LM?$PO?4ini?$AA@ 00469afc     UiTongManager.obj
 0003:00002b10       ??_C@_09DDAH@?$CFs_Member?$AA@ 00469b10     UiTongManager.obj
 0003:00002b1c       ??_C@_0L@JLIF@?$CFs_Manager?$AA@ 00469b1c     UiTongManager.obj
 0003:00002b28       ??_C@_0M@IHMN@?$CFs_Director?$AA@ 00469b28     UiTongManager.obj
 0003:00002b34       ??_C@_08NLOP@Assemble?$AA@ 00469b34     UiTrembleItem.obj
 0003:00002b40       ??_C@_06CKBE@Effect?$AA@   00469b40     UiTrembleItem.obj
 0003:00002b48       ??_C@_09DENK@GemSpirit?$AA@ 00469b48     UiTrembleItem.obj
 0003:00002b54       ??_C@_08FEDI@GemLevel?$AA@ 00469b54     UiTrembleItem.obj
 0003:00002b60       ??_C@_08POHK@GemEarth?$AA@ 00469b60     UiTrembleItem.obj
 0003:00002b6c       ??_C@_07BOJM@GemFire?$AA@  00469b6c     UiTrembleItem.obj
 0003:00002b74       ??_C@_08IEPH@GemWater?$AA@ 00469b74     UiTrembleItem.obj
 0003:00002b80       ??_C@_07LLPC@GemWood?$AA@  00469b80     UiTrembleItem.obj
 0003:00002b88       ??_C@_07NFCM@GemGold?$AA@  00469b88     UiTrembleItem.obj
 0003:00002b90       ??_C@_0N@ONAO@?$LE?r?T?l?N?o?F?$LH?4ini?$AA@ 00469b90     UiTrembleItem.obj
 0003:00002ba0       ??_C@_02IFAD@Ui?$AA@       00469ba0     UiSoundSetting.obj
 0003:00002ba4       ??_C@_0BI@BPK@?2Settings?2SoundList?4txt?$AA@ 00469ba4     UiSoundSetting.obj
 0003:00002bbc       ??_C@_06EGDA@?$LK?Z?C?$PL?$LF?$KF?$AA@ 00469bbc     GameSpaceChangedNotify.obj
 0003:00002bc4       ??_C@_0BJ@ONBN@AddBlackList?$CI?$CC?$CFs?$CC?0?5?$CC?$CFs?$CC?$CJ?$AA@ 00469bc4     GameSpaceChangedNotify.obj
 0003:00002be0       ??_C@_0CB@POOE@?$LB?$KH?G?$LI?0?5?F?$LF?$LF?$MA?$LL?$LJ?N?$LE?$LP?$KK?$LH?E?0?O?$PL?O?$KC?N?$NO?$LH?$KI?$LH?$KC?$LF?$LN?$CB@ 00469be0     GameSpaceChangedNotify.obj
 0003:00002c04       ??_C@_0CC@HOEO@?$LB?$KH?G?$LI?0?5?$CFs?5?$LC?$LL?T?Z?S?N?O?$LH?V?P?0?O?$PL?O?$KC?N?$NO?$LH?$KI?$LH?$KC?$LF?$LN@ 00469c04     GameSpaceChangedNotify.obj
 0003:00002c28       ??_C@_0BB@HFCG@?$CFs?I?j?G?k?$LM?S?N?$KK?$LK?C?S?Q?$KD?$KB?$AA@ 00469c28     GameSpaceChangedNotify.obj
 0003:00002c3c       ??_C@_0BD@GHBI@?L?m?$LM?S?$CFs?N?$KK?$LK?C?S?Q?J?$KH?$LA?$NM?$KD?$KB?$AA@ 00469c3c     GameSpaceChangedNotify.obj
 0003:00002c50       ??_C@_0BB@GDOA@?$CFs?$LO?$NM?$LO?x?$LK?C?S?Q?I?j?G?k?$KD?$KB?$AA@ 00469c50     GameSpaceChangedNotify.obj
 0003:00002c64       ??_C@_0BB@FNJN@?D?z?S?k?$CFs?$LD?I?N?$KK?$LK?C?S?Q?$KD?$KB?$AA@ 00469c64     GameSpaceChangedNotify.obj
 0003:00002c78       ??_C@_0L@FLKJ@?$CFs?O?B?O?$NP?A?K?$KD?$KB?$AA@ 00469c78     GameSpaceChangedNotify.obj
 0003:00002c84       ??_C@_0L@LCA@?$CFs?I?O?O?$NP?A?K?$KD?$KB?$AA@ 00469c84     GameSpaceChangedNotify.obj
 0003:00002c90       ??_C@_0M@JDFO@LevelUpTips?$AA@ 00469c90     GameSpaceChangedNotify.obj
 0003:00002c9c       ??_C@_0M@DHDP@FactionTips?$AA@ 00469c9c     GameSpaceChangedNotify.obj
 0003:00002ca8       ??_C@_04FNPJ@Join?$AA@     00469ca8     GameSpaceChangedNotify.obj
 0003:00002cb0       ?l_WindowList@@3PAPADA     00469cb0     ShortcutKey.obj
 0003:00002cf8       ?l_StatusList@@3PAPADA     00469cf8     ShortcutKey.obj
 0003:00003180       ?GameScriptFuns@@3PAUTLua_Funcs@@A 0046a180     ShortcutKey.obj
 0003:000033f0       ??_C@_0BE@PIJG@SetScreenShotFolder?$AA@ 0046a3f0     ShortcutKey.obj
 0003:00003404       ??_C@_08HOLC@SetEmote?$AA@ 0046a404     ShortcutKey.obj
 0003:00003410       ??_C@_0O@LBFL@ConvertEmotes?$AA@ 0046a410     ShortcutKey.obj
 0003:00003420       ??_C@_0BJ@NDMI@SetAddinUnitMemberStatus?$AA@ 0046a420     ShortcutKey.obj
 0003:0000343c       ??_C@_0BG@LGKH@DeleteAddinUnitMember?$AA@ 0046a43c     ShortcutKey.obj
 0003:00003454       ??_C@_0BG@OKBN@CreateAddinUnitMember?$AA@ 0046a454     ShortcutKey.obj
 0003:0000346c       ??_C@_0P@HEHP@MoveUnitMember?$AA@ 0046a46c     ShortcutKey.obj
 0003:0000347c       ??_C@_0BA@GJKG@DeleteUnitGroup?$AA@ 0046a47c     ShortcutKey.obj
 0003:0000348c       ??_C@_0O@OJBP@MoveUnitGroup?$AA@ 0046a48c     ShortcutKey.obj
 0003:0000349c       ??_C@_0BA@MPBO@RenameUnitGroup?$AA@ 0046a49c     ShortcutKey.obj
 0003:000034ac       ??_C@_0BA@CNMP@CreateUnitGroup?$AA@ 0046a4ac     ShortcutKey.obj
 0003:000034bc       ??_C@_0BA@MJCE@DeleteAddinUnit?$AA@ 0046a4bc     ShortcutKey.obj
 0003:000034cc       ??_C@_0BA@INEN@CreateAddinUnit?$AA@ 0046a4cc     ShortcutKey.obj
 0003:000034dc       ??_C@_0BE@IPH@GetRecentPlayerName?$AA@ 0046a4dc     ShortcutKey.obj
 0003:000034f0       ??_C@_0BG@CLLF@GetCurrentChannelName?$AA@ 0046a4f0     ShortcutKey.obj
 0003:00003508       ??_C@_0BD@IFMC@ShowSomeoneMessage?$AA@ 0046a508     ShortcutKey.obj
 0003:0000351c       ??_C@_0N@MOJL@GetAppStatus?$AA@ 0046a51c     ShortcutKey.obj
 0003:0000352c       ??_C@_09DBLO@SendEvent?$AA@ 0046a52c     ShortcutKey.obj
 0003:00003538       ??_C@_0BA@EEFL@UnregisterEvent?$AA@ 0046a538     ShortcutKey.obj
 0003:00003548       ??_C@_0O@POMM@RegisterEvent?$AA@ 0046a548     ShortcutKey.obj
 0003:00003558       ??_C@_0O@HDDD@SwitchChannel?$AA@ 0046a558     ShortcutKey.obj
 0003:00003568       ??_C@_05FPNF@Debug?$AA@    0046a568     ShortcutKey.obj
 0003:00003570       ??_C@_0BA@HPKH@RemoveBlackList?$AA@ 0046a570     ShortcutKey.obj
 0003:00003580       ??_C@_0N@OCLN@AddBlackList?$AA@ 0046a580     ShortcutKey.obj
 0003:00003590       ??_C@_0BF@PIBD@SetStrangerTextColor?$AA@ 0046a590     ShortcutKey.obj
 0003:000035a8       ??_C@_0BD@NPKE@SetFriendTextColor?$AA@ 0046a5a8     ShortcutKey.obj
 0003:000035bc       ??_C@_0P@KJFJ@SetMeTextColor?$AA@ 0046a5bc     ShortcutKey.obj
 0003:000035cc       ??_C@_0BE@CPC@SetChannelTextColor?$AA@ 0046a5cc     ShortcutKey.obj
 0003:000035e0       ??_C@_0BA@CHHB@SetChatFontSize?$AA@ 0046a5e0     ShortcutKey.obj
 0003:000035f0       ??_C@_0O@NAOM@ThrowAwayItem?$AA@ 0046a5f0     ShortcutKey.obj
 0003:00003600       ??_C@_06HNLE@TurnTo?$AA@   0046a600     ShortcutKey.obj
 0003:00003608       ??_C@_06KPOE@MoveTo?$AA@   0046a608     ShortcutKey.obj
 0003:00003610       ??_C@_0L@OHFM@ShowWindow?$AA@ 0046a610     ShortcutKey.obj
 0003:0000361c       ??_C@_0L@HLBI@SizeWindow?$AA@ 0046a61c     ShortcutKey.obj
 0003:00003628       ??_C@_0L@DFNN@MoveWindow?$AA@ 0046a628     ShortcutKey.obj
 0003:00003634       ??_C@_0O@DDEJ@SetFullWindow?$AA@ 0046a634     ShortcutKey.obj
 0003:00003644       ??_C@_05IAGE@Set3D?$AA@    0046a644     ShortcutKey.obj
 0003:0000364c       ??_C@_04LKDK@Exit?$AA@     0046a64c     ShortcutKey.obj
 0003:00003654       ??_C@_09CBNM@SetPhrase?$AA@ 0046a654     ShortcutKey.obj
 0003:00003660       ??_C@_09OBAI@SayPhrase?$AA@ 0046a660     ShortcutKey.obj
 0003:0000366c       ??_C@_0BG@HOHH@RegisterFunctionAlias?$AA@ 0046a66c     ShortcutKey.obj
 0003:00003684       ??_C@_04PBOI@Chat?$AA@     0046a684     ShortcutKey.obj
 0003:0000368c       ??_C@_03JLNJ@Say?$AA@      0046a68c     ShortcutKey.obj
 0003:00003690       ??_C@_0N@HAJP@ClearMessage?$AA@ 0046a690     ShortcutKey.obj
 0003:000036a0       ??_C@_08BJP@ViewItem?$AA@  0046a6a0     ShortcutKey.obj
 0003:000036ac       ??_C@_06IHCL@Follow?$AA@   0046a6ac     ShortcutKey.obj
 0003:000036b4       ??_C@_07NNGJ@Revenge?$AA@  0046a6b4     ShortcutKey.obj
 0003:000036bc       ??_C@_05CNAJ@Trade?$AA@    0046a6bc     ShortcutKey.obj
 0003:000036c4       ??_C@_0L@CKDA@InviteTeam?$AA@ 0046a6c4     ShortcutKey.obj
 0003:000036d0       ??_C@_08LLGD@JoinTeam?$AA@ 0046a6d0     ShortcutKey.obj
 0003:000036dc       ??_C@_0L@FKHC@CreateTeam?$AA@ 0046a6dc     ShortcutKey.obj
 0003:000036e8       ??_C@_0L@MFFM@MakeFriend?$AA@ 0046a6e8     ShortcutKey.obj
 0003:000036f4       ??_C@_0BA@IEA@ShortcutUseItem?$AA@ 0046a6f4     ShortcutKey.obj
 0003:00003704       ??_C@_0BE@BFKB@DirectShortcutSkill?$AA@ 0046a704     ShortcutKey.obj
 0003:00003718       ??_C@_0O@PIKK@ShortcutSkill?$AA@ 0046a718     ShortcutKey.obj
 0003:00003728       ??_C@_06FLGA@Switch?$AA@   0046a728     ShortcutKey.obj
 0003:00003730       ??_C@_05COJB@Focus?$AA@    0046a730     ShortcutKey.obj
 0003:00003738       ??_C@_04NKD@Open?$AA@      0046a738     ShortcutKey.obj
 0003:00003740       ??_C@_0O@KLII@RemoveCommand?$AA@ 0046a740     ShortcutKey.obj
 0003:00003750       ??_C@_0L@PBGJ@AddCommand?$AA@ 0046a750     ShortcutKey.obj
 0003:0000375c       ??_C@_0BA@CGJI@Mouse_BlackList?$AA@ 0046a75c     ShortcutKey.obj
 0003:0000376c       ??_C@_0P@IIKM@Mouse_ViewItem?$AA@ 0046a76c     ShortcutKey.obj
 0003:0000377c       ??_C@_0N@BBLB@Mouse_Follow?$AA@ 0046a77c     ShortcutKey.obj
 0003:0000378c       ??_C@_0O@OOPP@Mouse_Revenge?$AA@ 0046a78c     ShortcutKey.obj
 0003:0000379c       ??_C@_0M@LHMN@Mouse_Trade?$AA@ 0046a79c     ShortcutKey.obj
 0003:000037a8       ??_C@_0BB@CIIM@Mouse_InviteTeam?$AA@ 0046a7a8     ShortcutKey.obj
 0003:000037bc       ??_C@_0P@DCFA@Mouse_JoinTeam?$AA@ 0046a7bc     ShortcutKey.obj
 0003:000037cc       ??_C@_0BB@MHOA@Mouse_MakeFriend?$AA@ 0046a7cc     ShortcutKey.obj
 0003:000037e0       ??_C@_09KJFP@Mouse_Say?$AA@ 0046a7e0     ShortcutKey.obj
 0003:000037ec       ??_C@_0BB@FGNP@Mouse_Emote_Menu?$AA@ 0046a7ec     ShortcutKey.obj
 0003:00003800       ??_C@_0L@DEMJ@Mouse_Menu?$AA@ 0046a800     ShortcutKey.obj
 0003:0000380c       ??_C@_0N@DJHO@Mouse_MoveTo?$AA@ 0046a80c     ShortcutKey.obj
 0003:0000381c       ??_C@_0N@FNIL@Mouse_Force1?$AA@ 0046a81c     ShortcutKey.obj
 0003:0000382c       ??_C@_0N@PHBM@Mouse_Force0?$AA@ 0046a82c     ShortcutKey.obj
 0003:0000383c       ??_C@_0N@EKMM@Mouse_Action?$AA@ 0046a83c     ShortcutKey.obj
 0003:0000384c       ??_C@_08DGNE@MDButton?$AA@ 0046a84c     ShortcutKey.obj
 0003:00003858       ??_C@_08NIA@RDButton?$AA@  0046a858     ShortcutKey.obj
 0003:00003864       ??_C@_08HOPK@LDButton?$AA@ 0046a864     ShortcutKey.obj
 0003:00003870       ??_C@_01HAF@?8?$AA@        0046a870     ShortcutKey.obj
 0003:00003874       ??_C@_01FIMD@?$FN?$AA@     0046a874     ShortcutKey.obj
 0003:00003878       ??_C@_01KHLB@?$FL?$AA@     0046a878     ShortcutKey.obj
 0003:0000387c       ??_C@_01PHCA@?$GA?$AA@     0046a87c     ShortcutKey.obj
 0003:00003880       ??_C@_01PJCK@?4?$AA@       0046a880     ShortcutKey.obj
 0003:00003884       ??_C@_01GJD@?9?$AA@        0046a884     ShortcutKey.obj
 0003:00003888       ??_C@_01KMAE@?0?$AA@       0046a888     ShortcutKey.obj
 0003:0000388c       ??_C@_01KPOD@?$DN?$AA@     0046a88c     ShortcutKey.obj
 0003:00003890       ??_C@_01FAJB@?$DL?$AA@     0046a890     ShortcutKey.obj
 0003:00003894       ??_C@_0L@GGGO@ScrollLock?$AA@ 0046a894     ShortcutKey.obj
 0003:000038a0       ??_C@_07EFCM@NumLock?$AA@  0046a8a0     ShortcutKey.obj
 0003:000038a8       ??_C@_03KKLP@F24?$AA@      0046a8a8     ShortcutKey.obj
 0003:000038ac       ??_C@_03PPFK@F23?$AA@      0046a8ac     ShortcutKey.obj
 0003:000038b0       ??_C@_03FFMN@F22?$AA@      0046a8b0     ShortcutKey.obj
 0003:000038b4       ??_C@_03KKHE@F21?$AA@      0046a8b4     ShortcutKey.obj
 0003:000038b8       ??_C@_03OD@F20?$AA@        0046a8b8     ShortcutKey.obj
 0003:000038bc       ??_C@_03MFDD@F19?$AA@      0046a8bc     ShortcutKey.obj
 0003:000038c0       ??_C@_03GPKE@F18?$AA@      0046a8c0     ShortcutKey.obj
 0003:000038c4       ??_C@_03GOPJ@F17?$AA@      0046a8c4     ShortcutKey.obj
 0003:000038c8       ??_C@_03MEGO@F16?$AA@      0046a8c8     ShortcutKey.obj
 0003:000038cc       ??_C@_03DLNH@F15?$AA@      0046a8cc     ShortcutKey.obj
 0003:000038d0       ??_C@_03JBEA@F14?$AA@      0046a8d0     ShortcutKey.obj
 0003:000038d4       ??_C@_03MEKF@F13?$AA@      0046a8d4     ShortcutKey.obj
 0003:000038d8       ??_C@_03GODC@F12?$AA@      0046a8d8     ShortcutKey.obj
 0003:000038dc       ??_C@_03JBIL@F11?$AA@      0046a8dc     ShortcutKey.obj
 0003:000038e0       ??_C@_03DLBM@F10?$AA@      0046a8e0     ShortcutKey.obj
 0003:000038e4       ??_C@_02NIOF@F9?$AA@       0046a8e4     ShortcutKey.obj
 0003:000038e8       ??_C@_02HCHC@F8?$AA@       0046a8e8     ShortcutKey.obj
 0003:000038ec       ??_C@_02HDCP@F7?$AA@       0046a8ec     ShortcutKey.obj
 0003:000038f0       ??_C@_02NJLI@F6?$AA@       0046a8f0     ShortcutKey.obj
 0003:000038f4       ??_C@_02CGAB@F5?$AA@       0046a8f4     ShortcutKey.obj
 0003:000038f8       ??_C@_02IMJG@F4?$AA@       0046a8f8     ShortcutKey.obj
 0003:000038fc       ??_C@_02NJHD@F3?$AA@       0046a8fc     ShortcutKey.obj
 0003:00003900       ??_C@_02HDOE@F2?$AA@       0046a900     ShortcutKey.obj
 0003:00003904       ??_C@_02IMFN@F1?$AA@       0046a904     ShortcutKey.obj
 0003:00003908       ??_C@_04IILO@Num?1?$AA@    0046a908     ShortcutKey.obj
 0003:00003910       ??_C@_04CCCJ@Num?4?$AA@    0046a910     ShortcutKey.obj
 0003:00003918       ??_C@_04NNJA@Num?9?$AA@    0046a918     ShortcutKey.obj
 0003:00003920       ??_C@_09NLCK@Separator?$AA@ 0046a920     ShortcutKey.obj
 0003:0000392c       ??_C@_04CCOC@Num?$CL?$AA@  0046a92c     ShortcutKey.obj
 0003:00003934       ??_C@_04IIHF@Num?$CK?$AA@  0046a934     ShortcutKey.obj
 0003:0000393c       ??_C@_04NOLM@Num9?$AA@     0046a93c     ShortcutKey.obj
 0003:00003944       ??_C@_04HECL@Num8?$AA@     0046a944     ShortcutKey.obj
 0003:0000394c       ??_C@_04HFHG@Num7?$AA@     0046a94c     ShortcutKey.obj
 0003:00003954       ??_C@_04NPOB@Num6?$AA@     0046a954     ShortcutKey.obj
 0003:0000395c       ??_C@_04CAFI@Num5?$AA@     0046a95c     ShortcutKey.obj
 0003:00003964       ??_C@_04IKMP@Num4?$AA@     0046a964     ShortcutKey.obj
 0003:0000396c       ??_C@_04NPCK@Num3?$AA@     0046a96c     ShortcutKey.obj
 0003:00003974       ??_C@_04HFLN@Num2?$AA@     0046a974     ShortcutKey.obj
 0003:0000397c       ??_C@_04IKAE@Num1?$AA@     0046a97c     ShortcutKey.obj
 0003:00003984       ??_C@_04CAJD@Num0?$AA@     0046a984     ShortcutKey.obj
 0003:0000398c       ??_C@_07PKLL@Windows?$AA@  0046a98c     ShortcutKey.obj
 0003:00003994       ??_C@_01NCG@Z?$AA@         0046a994     ShortcutKey.obj
 0003:00003998       ??_C@_01PCJP@Y?$AA@        0046a998     ShortcutKey.obj
 0003:0000399c       ??_C@_01FIAI@X?$AA@        0046a99c     ShortcutKey.obj
 0003:000039a0       ??_C@_01FJFF@W?$AA@        0046a9a0     ShortcutKey.obj
 0003:000039a4       ??_C@_01PDMC@V?$AA@        0046a9a4     ShortcutKey.obj
 0003:000039a8       ??_C@_01MHL@U?$AA@         0046a9a8     ShortcutKey.obj
 0003:000039ac       ??_C@_01KGOM@T?$AA@        0046a9ac     ShortcutKey.obj
 0003:000039b0       ??_C@_01PDAJ@S?$AA@        0046a9b0     ShortcutKey.obj
 0003:000039b4       ??_C@_01FJJO@R?$AA@        0046a9b4     ShortcutKey.obj
 0003:000039b8       ??_C@_01KGCH@Q?$AA@        0046a9b8     ShortcutKey.obj
 0003:000039bc       ??_C@_01MLA@P?$AA@         0046a9bc     ShortcutKey.obj
 0003:000039c0       ??_C@_01KEJN@O?$AA@        0046a9c0     ShortcutKey.obj
 0003:000039c4       ??_C@_01OAK@N?$AA@         0046a9c4     ShortcutKey.obj
 0003:000039c8       ??_C@_01PBLD@M?$AA@        0046a9c8     ShortcutKey.obj
 0003:000039cc       ??_C@_01FLCE@L?$AA@        0046a9cc     ShortcutKey.obj
 0003:000039d0       ??_C@_01OMB@K?$AA@         0046a9d0     ShortcutKey.obj
 0003:000039d4       ??_C@_01KEFG@J?$AA@        0046a9d4     ShortcutKey.obj
 0003:000039d8       ??_C@_01FLOP@I?$AA@        0046a9d8     ShortcutKey.obj
 0003:000039dc       ??_C@_01PBHI@H?$AA@        0046a9dc     ShortcutKey.obj
 0003:000039e0       ??_C@_01PACF@G?$AA@        0046a9e0     ShortcutKey.obj
 0003:000039e4       ??_C@_01FKLC@F?$AA@        0046a9e4     ShortcutKey.obj
 0003:000039e8       ??_C@_01KFAL@E?$AA@        0046a9e8     ShortcutKey.obj
 0003:000039ec       ??_C@_01PJM@D?$AA@         0046a9ec     ShortcutKey.obj
 0003:000039f0       ??_C@_01FKHJ@C?$AA@        0046a9f0     ShortcutKey.obj
 0003:000039f4       ??_C@_01PAOO@B?$AA@        0046a9f4     ShortcutKey.obj
 0003:000039f8       ??_C@_01PFH@A?$AA@         0046a9f8     ShortcutKey.obj
 0003:000039fc       ??_C@_01FLP@9?$AA@         0046a9fc     ShortcutKey.obj
 0003:00003a00       ??_C@_01KPCI@8?$AA@        0046aa00     ShortcutKey.obj
 0003:00003a04       ??_C@_01KOHF@7?$AA@        0046aa04     ShortcutKey.obj
 0003:00003a08       ??_C@_01EOC@6?$AA@         0046aa08     ShortcutKey.obj
 0003:00003a0c       ??_C@_01PLFL@5?$AA@        0046aa0c     ShortcutKey.obj
 0003:00003a10       ??_C@_01FBMM@4?$AA@        0046aa10     ShortcutKey.obj
 0003:00003a14       ??_C@_01ECJ@3?$AA@         0046aa14     ShortcutKey.obj
 0003:00003a18       ??_C@_01KOLO@2?$AA@        0046aa18     ShortcutKey.obj
 0003:00003a1c       ??_C@_01FBAH@1?$AA@        0046aa1c     ShortcutKey.obj
 0003:00003a20       ??_C@_04GNHP@Help?$AA@     0046aa20     ShortcutKey.obj
 0003:00003a28       ??_C@_06DHPE@Delete?$AA@   0046aa28     ShortcutKey.obj
 0003:00003a30       ??_C@_06EJIH@Insert?$AA@   0046aa30     ShortcutKey.obj
 0003:00003a38       ??_C@_0M@CFC@PrintScreen?$AA@ 0046aa38     ShortcutKey.obj
 0003:00003a44       ??_C@_07OCJM@Execute?$AA@  0046aa44     ShortcutKey.obj
 0003:00003a4c       ??_C@_05KGMP@Print?$AA@    0046aa4c     ShortcutKey.obj
 0003:00003a54       ??_C@_05PNPP@Right?$AA@    0046aa54     ShortcutKey.obj
 0003:00003a5c       ??_C@_04OGPG@Home?$AA@     0046aa5c     ShortcutKey.obj
 0003:00003a64       ??_C@_03HPMG@End?$AA@      0046aa64     ShortcutKey.obj
 0003:00003a68       ??_C@_08MJKB@PageDown?$AA@ 0046aa68     ShortcutKey.obj
 0003:00003a74       ??_C@_06JEMG@PageUp?$AA@   0046aa74     ShortcutKey.obj
 0003:00003a7c       ??_C@_05GGAC@Space?$AA@    0046aa7c     ShortcutKey.obj
 0003:00003a84       ??_C@_0L@CGHC@ModeChange?$AA@ 0046aa84     ShortcutKey.obj
 0003:00003a90       ??_C@_06LNGI@Accept?$AA@   0046aa90     ShortcutKey.obj
 0003:00003a98       ??_C@_0L@DBNB@NonConvert?$AA@ 0046aa98     ShortcutKey.obj
 0003:00003aa4       ??_C@_07OGIP@Convert?$AA@  0046aaa4     ShortcutKey.obj
 0003:00003aac       ??_C@_03DOGM@ESC?$AA@      0046aaac     ShortcutKey.obj
 0003:00003ab0       ??_C@_07IKAP@CapLock?$AA@  0046aab0     ShortcutKey.obj
 0003:00003ab8       ??_C@_05PFIH@Pause?$AA@    0046aab8     ShortcutKey.obj
 0003:00003ac0       ??_C@_05LEJJ@Enter?$AA@    0046aac0     ShortcutKey.obj
 0003:00003ac8       ??_C@_05BHDE@Clear?$AA@    0046aac8     ShortcutKey.obj
 0003:00003ad0       ??_C@_03CHMJ@Tab?$AA@      0046aad0     ShortcutKey.obj
 0003:00003ad4       ??_C@_09PNEO@BackSpace?$AA@ 0046aad4     ShortcutKey.obj
 0003:00003ae0       ??_C@_07EOKJ@MButton?$AA@  0046aae0     ShortcutKey.obj
 0003:00003ae8       ??_C@_07BKLG@RButton?$AA@  0046aae8     ShortcutKey.obj
 0003:00003af0       ??_C@_07GADM@LButton?$AA@  0046aaf0     ShortcutKey.obj
 0003:00003af8       ??_C@_03MLOA@Ext?$AA@      0046aaf8     ShortcutKey.obj
 0003:00003afc       ??_C@_03LDLJ@Alt?$AA@      0046aafc     ShortcutKey.obj
 0003:00003b00       ??_C@_04KEPD@Ctrl?$AA@     0046ab00     ShortcutKey.obj
 0003:00003b08       ??_C@_05MGOB@Shift?$AA@    0046ab08     ShortcutKey.obj
 0003:00003b10       ??_C@_0BB@HAFO@showplayernumber?$AA@ 0046ab10     ShortcutKey.obj
 0003:00003b24       ??_C@_0P@JHCH@showplayermana?$AA@ 0046ab24     ShortcutKey.obj
 0003:00003b34       ??_C@_0P@DNMI@showplayerlife?$AA@ 0046ab34     ShortcutKey.obj
 0003:00003b44       ??_C@_0P@GJHC@showplayername?$AA@ 0046ab44     ShortcutKey.obj
 0003:00003b54       ??_C@_05LJEP@horse?$AA@    0046ab54     ShortcutKey.obj
 0003:00003b5c       ??_C@_02EJHP@pk?$AA@       0046ab5c     ShortcutKey.obj
 0003:00003b60       ??_C@_05CJKD@trade?$AA@    0046ab60     ShortcutKey.obj
 0003:00003b68       ??_C@_03DICL@sit?$AA@      0046ab68     ShortcutKey.obj
 0003:00003b6c       ??_C@_03EHIM@run?$AA@      0046ab6c     ShortcutKey.obj
 0003:00003b70       ??_C@_05FLHP@debug?$AA@    0046ab70     ShortcutKey.obj
 0003:00003b78       ??_C@_0M@FKLE@newsmessage?$AA@ 0046ab78     ShortcutKey.obj
 0003:00003b84       ??_C@_08BDKK@chatroom?$AA@ 0046ab84     ShortcutKey.obj
 0003:00003b90       ??_C@_0L@OLFJ@normaltool?$AA@ 0046ab90     ShortcutKey.obj
 0003:00003b9c       ??_C@_0L@CPEA@statustool?$AA@ 0046ab9c     ShortcutKey.obj
 0003:00003ba8       ??_C@_07MHLD@options?$AA@  0046aba8     ShortcutKey.obj
 0003:00003bb0       ??_C@_0M@OHDE@commandline?$AA@ 0046abb0     ShortcutKey.obj
 0003:00003bbc       ??_C@_0L@NEI@rightskill?$AA@ 0046abbc     ShortcutKey.obj
 0003:00003bc8       ??_C@_09CONG@leftskill?$AA@ 0046abc8     ShortcutKey.obj
 0003:00003bd4       ??_C@_08HLDG@tasknote?$AA@ 0046abd4     ShortcutKey.obj
 0003:00003be0       ??_C@_04MHDN@help?$AA@     0046abe0     ShortcutKey.obj
 0003:00003be8       ??_C@_06CCDK@friend?$AA@   0046abe8     ShortcutKey.obj
 0003:00003bf0       ??_C@_06GMLA@system?$AA@   0046abf0     ShortcutKey.obj
 0003:00003bf8       ??_C@_06LCB@skills?$AA@    0046abf8     ShortcutKey.obj
 0003:00003c00       ??_C@_05GMIM@Items?$AA@    0046ac00     ShortcutKey.obj
 0003:00003c08       ??_C@_06DKLM@status?$AA@   0046ac08     ShortcutKey.obj
 0003:00003c10       ??_C@_03HKIL@map?$AA@      0046ac10     ShortcutKey.obj
 0003:00003c14       ??_C@_04CJJD@team?$AA@     0046ac14     ShortcutKey.obj
 0003:00003c1c       ??_C@_02JNDC@2D?$AA@       0046ac1c     ShortcutKey.obj
 0003:00003c20       ??_C@_02ILJI@3D?$AA@       0046ac20     ShortcutKey.obj
 0003:00003c24       ??_C@_0L@GACC@FullWindow?$AA@ 0046ac24     ShortcutKey.obj
 0003:00003c30       ??_C@_0L@IMOG@NumDecimal?$AA@ 0046ac30     ShortcutKey.obj
 0003:00003c3c       ??_C@_06EDEF@NumDiv?$AA@   0046ac3c     ShortcutKey.obj
 0003:00003c44       ??_C@_06KMFH@NumMul?$AA@   0046ac44     ShortcutKey.obj
 0003:00003c4c       ??_C@_06FKDF@NumSub?$AA@   0046ac4c     ShortcutKey.obj
 0003:00003c54       ??_C@_06FMAD@NumAdd?$AA@   0046ac54     ShortcutKey.obj
 0003:00003c5c       ??_C@_08GOIM@ScrlLock?$AA@ 0046ac5c     ShortcutKey.obj
 0003:00003c68       ??_C@_03HAHB@DEL?$AA@      0046ac68     ShortcutKey.obj
 0003:00003c6c       ??_C@_03NMAO@INS?$AA@      0046ac6c     ShortcutKey.obj
 0003:00003c70       ??_C@_04FGAG@BACK?$AA@     0046ac70     ShortcutKey.obj
 0003:00003c78       ??_C@_05EABD@Break?$AA@    0046ac78     ShortcutKey.obj
 0003:00003c80       ??_C@_08JFFH@SnapShot?$AA@ 0046ac80     ShortcutKey.obj
 0003:00003c8c       ??_C@_04CIMM@Next?$AA@     0046ac8c     ShortcutKey.obj
 0003:00003c94       ??_C@_05EPBH@Prior?$AA@    0046ac94     ShortcutKey.obj
 0003:00003c9c       ??_C@_06KCAA@Escape?$AA@   0046ac9c     ShortcutKey.obj
 0003:00003ca4       ??_C@_06JCBD@Return?$AA@   0046aca4     ShortcutKey.obj
 0003:00003cac       ??_C@_07FNBF@Control?$AA@  0046acac     ShortcutKey.obj
 0003:00003cb4       ??_C@_02PPMJ@?$CC?$CC?$AA@ 0046acb4     ShortcutKey.obj
 0003:00003cb8       ??_C@_06DPMO@Client?$AA@   0046acb8     ShortcutKey.obj
 0003:00003cc0       ??_C@_09BKAO@Represent?$AA@ 0046acc0     ShortcutKey.obj
 0003:00003ccc       ??_C@_0CF@LGGK@?S?N?O?$LH?I?h?N?$KK2D?D?$KD?J?$LN?$KD?$KM?V?X?P?B?F?t?$LG?$KP?S?N?O?$LH?$LK?s?I?z@ 0046accc     ShortcutKey.obj
 0003:00003cf4       ??_C@_06OELI@Config?$AA@   0046acf4     ShortcutKey.obj
 0003:00003cfc       ??_C@_0CF@ECGI@?S?N?O?$LH?I?h?N?$KK3D?D?$KD?J?$LN?$KD?$KM?V?X?P?B?F?t?$LG?$KP?S?N?O?$LH?$LK?s?I?z@ 0046acfc     ShortcutKey.obj
 0003:00003d24       ??_C@_0M@ODDL@?2config?4ini?$AA@ 0046ad24     ShortcutKey.obj
 0003:00003d30       ??_C@_0L@HD@FullScreen?$AA@ 0046ad30     ShortcutKey.obj
 0003:00003d3c       ??_C@_06FCEH@Window?$AA@   0046ad3c     ShortcutKey.obj
 0003:00003d44       ??_C@_0DF@GIKO@?S?N?O?$LH?I?h?$LG?$KI?$LI?D?$LB?d?N?$KK?$LE?$LA?$LP?Z?T?K?P?P?$KD?$KM?$LN?$KL?T?Z?O?B?$LE?N@ 0046ad44     ShortcutKey.obj
 0003:00003d7c       ??_C@_0DF@CEFH@?S?N?O?$LH?I?h?$LG?$KI?$LI?D?$LB?d?N?$KK?H?$KL?F?A?T?K?P?P?$KD?$KM?$LN?$KL?T?Z?O?B?$LE?N@ 0046ad7c     ShortcutKey.obj
 0003:00003db4       ??_C@_0N@CLNL@ShowMouseWnd?$AA@ 0046adb4     ShortcutKey.obj
 0003:00003dc4       ??_C@_0BB@FHFD@?2Ui?2autoexec?4lua?$AA@ 0046adc4     ShortcutKey.obj
 0003:00003dd8       ??_C@_0L@NDH@ScriptAuto?$AA@ 0046add8     ShortcutKey.obj
 0003:00003de4       ??_C@_07MNFD@Version?$AA@  0046ade4     ShortcutKey.obj
 0003:00003dec       ??_C@_0CB@JMJM@SetStrangerTextColor?$CI?$CC?$CFs?$CC?0?5?$CC?$CFs?$CC?$CJ@ 0046adec     ShortcutKey.obj
 0003:00003e10       ??_C@_0BP@BMBG@SetFriendTextColor?$CI?$CC?$CFs?$CC?0?5?$CC?$CFs?$CC?$CJ?$AA@ 0046ae10     ShortcutKey.obj
 0003:00003e30       ??_C@_0BL@DLAK@SetMeTextColor?$CI?$CC?$CFs?$CC?0?5?$CC?$CFs?$CC?$CJ?$AA@ 0046ae30     ShortcutKey.obj
 0003:00003e4c       ??_C@_0CG@HNGK@SetChannelTextColor?$CI?$CC?$CFs?$CC?0?5?$CC?$CFs?$CC?0?5@ 0046ae4c     ShortcutKey.obj
 0003:00003e74       ??_C@_0BE@BMPC@SetChatFontSize?$CI?$CFd?$CJ?$AA@ 0046ae74     ShortcutKey.obj
 0003:00003e88       ??_C@_0BJ@JHOO@SizeWindow?$CI?$CC?$CFs?$CC?0?5?$CFd?0?5?$CFd?$CJ?$AA@ 0046ae88     ShortcutKey.obj
 0003:00003ea4       ??_C@_0BF@DEID@ShowWindow?$CI?$CC?$CFs?$CC?0?5?$CFd?$CJ?$AA@ 0046aea4     ShortcutKey.obj
 0003:00003ebc       ??_C@_0BJ@LGJJ@MoveWindow?$CI?$CC?$CFs?$CC?0?5?$CFd?0?5?$CFd?$CJ?$AA@ 0046aebc     ShortcutKey.obj
 0003:00003ed8       ??_C@_01KMMP@?$CJ?$AA@     0046aed8     ShortcutKey.obj
 0003:00003edc       ??_C@_04KIIG@?0?5?$CC?$CC?$AA@ 0046aedc     ShortcutKey.obj
 0003:00003ee4       ??_C@_06NKDP@?0?5?$CC?$CFs?$CC?$AA@ 0046aee4     ShortcutKey.obj
 0003:00003eec       ??_C@_0CF@HCFA@RegisterFunctionAlias?$CI?$CC?$CFs?$CC?0?5?$CC?$CFs?$CC@ 0046aeec     ShortcutKey.obj
 0003:00003f14       ??_C@_0BN@LOIL@AddCommand?$CI?$CC?$CFs?$CC?0?5?$CC?$CFs?$CC?0?5?$CC?$CFs?$CC?$CJ?$AA@ 0046af14     ShortcutKey.obj
 0003:00003f34       ?$Main@@3PBDB              0046af34     UiBase.obj
 0003:00003f38       ??_C@_0P@JGMG@?2UserData?2Temp?$AA@ 0046af38     UiBase.obj
 0003:00003f48       ??_C@_04IMLO@?2?$CK?4?$CK?$AA@ 0046af48     UiBase.obj
 0003:00003f50       ??_C@_09LHCD@?2UserData?$AA@ 0046af50     UiBase.obj
 0003:00003f5c       ??_C@_0BA@IJOL@WndMoveInterval?$AA@ 0046af5c     UiBase.obj
 0003:00003f6c       ??_C@_0P@FIIH@LastUsedScheme?$AA@ 0046af6c     UiBase.obj
 0003:00003f7c       ??_C@_09FBPN@?$CFx?$CFxl?$CFx?$CFx?$AA@ 0046af7c     UiBase.obj
 0003:00003f88       ??_C@_08ONGK@?$CFs?2?$CFs?2?$CFs?$AA@ 0046af88     UiBase.obj
 0003:00003f94       ??_C@_06BJFG@Scheme?$AA@   0046af94     UiBase.obj
 0003:00003f9c       ??_C@_06KCPA@?$CFs?2?$CFs?2?$AA@ 0046af9c     UiBase.obj
 0003:00003fa4       ??_C@_0N@BGJL@CursorList98?$AA@ 0046afa4     UiBase.obj
 0003:00003fb4       ??_C@_0L@EHGK@CursorList?$AA@ 0046afb4     UiBase.obj
 0003:00003fc0       ??_C@_05IDIG@_File?$AA@    0046afc0     UiBase.obj
 0003:00003fc8       ??_C@_08MGAF@FontList?$AA@ 0046afc8     UiBase.obj
 0003:00003fd4       ??_C@_0M@GCFN@?$CFs?2?$LJ?$KL?$LJ?$LC?4ini?$AA@ 0046afd4     UiBase.obj
 0003:00003fe0       ??_C@_03PJCM@?2Ui?$AA@     0046afe0     UiBase.obj
 0003:00003fe4       ??_C@_06PMHG@0_Path?$AA@   0046afe4     UiBase.obj
 0003:00003fec       ??_C@_05BCHA@_Path?$AA@    0046afec     UiBase.obj
 0003:00003ff4       ??_C@_05PDLI@Theme?$AA@    0046aff4     UiBase.obj
 0003:00003ffc       ??_C@_0BH@HEHC@?2UserData?2UiCommon?4ini?$AA@ 0046affc     UiBase.obj
 0003:00004014       ??_C@_0BA@JGC@?2Ui?2Setting?4ini?$AA@ 0046b014     UiBase.obj
 0003:00004024       ??_C@_0N@NMIN@UiConfig?4ini?$AA@ 0046b024     UiBase.obj
 0003:00004034       ??_C@_0BB@JNBA@CreateUnit?$CI?$CC?$CFs?$CC?$CJ?$AA@ 0046b034     UiBase.obj
 0003:00004048       ??_C@_0BB@PIFE@DeleteUnit?$CI?$CC?$CFs?$CC?$CJ?$AA@ 0046b048     UiBase.obj
 0003:0000405c       ??_C@_0BM@FLDN@CreateUnitGroup?$CI?$CC?$CFs?$CC?0?5?$CC?$CFs?$CC?$CJ?$AA@ 0046b05c     UiBase.obj
 0003:00004078       ??_C@_0CC@JKKH@RenameUnitGroup?$CI?$CC?$CFs?$CC?0?5?$CC?$CFs?$CC?0?5?$CC?$CFs?$CC@ 0046b078     UiBase.obj
 0003:0000409c       ??_C@_0BM@FAPF@DeleteUnitGroup?$CI?$CC?$CFs?$CC?0?5?$CC?$CFs?$CC?$CJ?$AA@ 0046b09c     UiBase.obj
 0003:000040b8       ??_C@_0CA@MIIF@MoveUnitGroup?$CI?$CC?$CFs?$CC?0?5?$CC?$CFs?$CC?0?5?$CC?$CFs?$CC?$CJ?$AA@ 0046b0b8     UiBase.obj
 0003:000040d8       ??_C@_0CD@KCHP@CreateUnitMember?$CI?$CC?$CFs?$CC?0?5?$CC?$CFs?$CC?0?5?$CC?$CFs@ 0046b0d8     UiBase.obj
 0003:000040fc       ??_C@_0BN@OJOP@DeleteUnitMember?$CI?$CC?$CFs?$CC?0?5?$CC?$CFs?$CC?$CJ?$AA@ 0046b0fc     UiBase.obj
 0003:0000411c       ??_C@_0CB@LMCE@MoveUnitMember?$CI?$CC?$CFs?$CC?0?5?$CC?$CFs?$CC?0?5?$CC?$CFs?$CC?$CJ@ 0046b11c     UiBase.obj
 0003:00004140       ??_C@_0CG@OPPG@SetUnitMemberStatus?$CI?$CC?$CFs?$CC?0?5?$CC?$CFs?$CC?0?5@ 0046b140     UiBase.obj
 0003:00004168       ?m_one@Player_Life@@2UKComClassInfo@@A 0046b168     UiShell.obj
 0003:0000418c       ?m_bText@Player_Life@@2_NA 0046b18c     UiShell.obj
 0003:00004190       ?m_one@Player_Mana@@2UKComClassInfo@@A 0046b190     UiShell.obj
 0003:000041b4       ?m_bText@Player_Mana@@2_NA 0046b1b4     UiShell.obj
 0003:000041b8       ?m_one@Player_Stamina@@2UKComClassInfo@@A 0046b1b8     UiShell.obj
 0003:000041dc       ?m_bText@Player_Stamina@@2_NA 0046b1dc     UiShell.obj
 0003:000041e0       ?m_one@Player_Exp@@2UKComClassInfo@@A 0046b1e0     UiShell.obj
 0003:00004204       ?m_bText@Player_Exp@@2_NA  0046b204     UiShell.obj
 0003:00004208       ?m_one@Player_Level@@2UKComClassInfo@@A 0046b208     UiShell.obj
 0003:00004230       ?m_one@Player_WorldSort@@2UKComClassInfo@@A 0046b230     UiShell.obj
 0003:00004258       ?m_one@Player_Status@@2UKComClassInfo@@A 0046b258     UiShell.obj
 0003:00004280       ?m_one@Player_Items@@2UKComClassInfo@@A 0046b280     UiShell.obj
 0003:000042a8       ?m_one@Player_Skills@@2UKComClassInfo@@A 0046b2a8     UiShell.obj
 0003:000042d0       ?m_one@Player_Team@@2UKComClassInfo@@A 0046b2d0     UiShell.obj
 0003:000042f8       ?m_one@Player_Faction@@2UKComClassInfo@@A 0046b2f8     UiShell.obj
 0003:00004320       ?m_one@Player_Sit@@2UKComClassInfo@@A 0046b320     UiShell.obj
 0003:00004348       ?m_one@Player_Run@@2UKComClassInfo@@A 0046b348     UiShell.obj
 0003:00004370       ?m_one@Player_Horse@@2UKComClassInfo@@A 0046b370     UiShell.obj
 0003:00004398       ?m_one@Player_Exchange@@2UKComClassInfo@@A 0046b398     UiShell.obj
 0003:000043c0       ?m_one@Player_PK@@2UKComClassInfo@@A 0046b3c0     UiShell.obj
 0003:000043e4       ??_C@_07MBBM@Start?$CI?$CJ?$AA@ 0046b3e4     UiShell.obj
 0003:000043ec       ??_C@_04MIPP@Init?$AA@     0046b3ec     UiShell.obj
 0003:000043f4       ??_C@_06DGCL@Exit?$CI?$CJ?$AA@ 0046b3f4     UiShell.obj
 0003:000043fc       ??_C@_0BA@MLHC@StartGame?$CI?$CC?$CFs?$CC?$CJ?$AA@ 0046b3fc     UiShell.obj
 0003:0000440c       ??_C@_0L@NGGM@ExitGame?$CI?$CJ?$AA@ 0046b40c     UiShell.obj
 0003:00004418       ??_C@_0BN@LGHI@Switch?$CI?$FL?$FLshowplayernumber?$FN?$FN?$CJ?$AA@ 0046b418     UiShell.obj
 0003:00004438       ??_C@_0L@ONEP@?$LO?$KN?Q?i?5?$CFd?1?$CFd?$AA@ 0046b438     UiShell.obj
 0003:00004444       ??_C@_0BB@OPPL@Open?$CI?$FL?$FLskills?$FN?$FN?$CJ?$AA@ 0046b444     UiShell.obj
 0003:00004458       ??_C@_0P@OOFO@Open?$CI?$FL?$FLteam?$FN?$FN?$CJ?$AA@ 0046b458     UiShell.obj
 0003:00004468       ??_C@_0BA@BHHD@Switch?$CI?$FL?$FLsit?$FN?$FN?$CJ?$AA@ 0046b468     UiShell.obj
 0003:00004478       ??_C@_0BA@DECM@Switch?$CI?$FL?$FLrun?$FN?$FN?$CJ?$AA@ 0046b478     UiShell.obj
 0003:00004488       ??_C@_0BC@EMMN@Switch?$CI?$FL?$FLhorse?$FN?$FN?$CJ?$AA@ 0046b488     UiShell.obj
 0003:0000449c       ??_C@_0BC@CAJD@Switch?$CI?$FL?$FLtrade?$FN?$FN?$CJ?$AA@ 0046b49c     UiShell.obj
 0003:000044b0       ??_C@_0P@GCDK@Switch?$CI?$FL?$FLpk?$FN?$FN?$CJ?$AA@ 0046b4b0     UiShell.obj
 0003:000044c0       ??_C@_0BK@PCGG@CChatFilter?3?3Initialize?$CI?$CJ?$AA@ 0046b4c0     ChatFilter.obj
 0003:000044dc       ?g_bScreen@@3HA            0046b4dc     S3Client.obj
 0003:000044e0       ?g_szGameName@@3PADA       0046b4e0     S3Client.obj
 0003:00004500       ??_C@_06KOBP@Sword3?$AA@   0046b500     S3Client.obj
 0003:00004508       ??_C@_0BF@PCLC@CreateRepresentShell?$AA@ 0046b508     S3Client.obj
 0003:00004520       ??_C@_0P@PJAE@Represent2?4dll?$AA@ 0046b520     S3Client.obj
 0003:00004530       ??_C@_0P@FJCB@Represent3?4dll?$AA@ 0046b530     S3Client.obj
 0003:00004540       ??_C@_07LAPD@UiStart?$AA@  0046b540     S3Client.obj
 0003:00004548       ??_C@_0BA@EOIA@NetConnectAgent?$AA@ 0046b548     S3Client.obj
 0003:00004558       ??_C@_0N@LPGD@CoreGetShell?$AA@ 0046b558     S3Client.obj
 0003:00004568       ??_C@_06JFCF@UiInit?$AA@   0046b568     S3Client.obj
 0003:00004570       ??_C@_07OIHB@CapPath?$AA@  0046b570     S3Client.obj
 0003:00004578       ??_C@_08HAJP@GameName?$AA@ 0046b578     S3Client.obj
 0003:00004584       ??_C@_0BB@PKNL@KMyApp?3?3GameInit?$AA@ 0046b584     S3Client.obj
 0003:00004598       ??_C@_02JGIH@23?$AA@       0046b598     S3Client.obj
 0003:0000459c       ??_C@_02DMBA@22?$AA@       0046b59c     S3Client.obj
 0003:000045a0       ??_C@_0BA@PKLD@CreateInterface?$AA@ 0046b5a0     NetConnectAgent.obj
 0003:000045b0       ??_C@_0M@DIPF@Rainbow?4dll?$AA@ 0046b5b0     NetConnectAgent.obj
 0003:000045bc       ??_C@_0BG@PLO@?$FLGateway?$FN?5connectted?4?$AA@ 0046b5bc     NetConnectAgent.obj
 0003:000045d4       ??_C@_0M@IBML@?$CFd?4?$CFd?4?$CFd?4?$CFd?$AA@ 0046b5d4     NetConnectAgent.obj
 0003:000045e0       ??_C@_0BN@BNAL@?$FLGateway?$FN?5connection?5closed?4?$AA@ 0046b5e0     NetConnectAgent.obj
 0003:00004600       ??_C@_0CD@PNCO@?G?$LA?$LH?$LN?B?$LH?M?$LO?$LC?$LL?L?$KL?M?$KI?$LD?$KJ?$KD?$KM?$LL?$LJ?J?G?$LJ?$PN?$LL?a?T?Y?$MA?$LE?$LA?I@ 0046b600     NetConnectAgent.obj
 0003:00004624       ??_C@_0BB@DFIC@LastSelCharacter?$AA@ 0046b624     Login.obj
 0003:00004638       ??_C@_0N@PCGF@LastPassword?$AA@ 0046b638     Login.obj
 0003:00004648       ??_C@_0M@FALJ@LastAccount?$AA@ 0046b648     Login.obj
 0003:00004654       ??_C@_0P@BPIO@LastGameServer?$AA@ 0046b654     Login.obj
 0003:00004664       ??_C@_0BA@BMLF@SelServerRegion?$AA@ 0046b664     Login.obj
 0003:00004674       ??_C@_09CHMN@Region_?$CFd?$AA@ 0046b674     Login.obj
 0003:00004680       ??_C@_0M@EBFG@RegionCount?$AA@ 0046b680     Login.obj
 0003:0000468c       ??_C@_0BJ@BFMG@?2Settings?2ServerList?4ini?$AA@ 0046b68c     Login.obj
 0003:000046a8       ??_C@_0L@JFHP@?$CFd_Address?$AA@ 0046b6a8     Login.obj
 0003:000046b4       ??_C@_06HCAM@Server?$AA@   0046b6b4     Login.obj
 0003:000046bc       ??_C@_0N@EBMG@GameServPort?$AA@ 0046b6bc     Login.obj
 0003:000046cc       ??_C@_0M@BLHC@?2Config?4ini?$AA@ 0046b6cc     Login.obj
 0003:000046d8       ??_C@_0P@FGB@?$LN?$KD?O?$MA?G?i?T?$LF?M?x?B?g?$LA?f?$AA@ 0046b6d8     ErrorCode.obj
 0003:000046e8       ??_C@_0BH@BECA@?N?$LE?V?$KK?$LF?D?$LE?m?N?s?$CI?$LE?m?N?s?$LK?E?3?5?$CFd?$CJ?$AA@ 0046b6e8     ErrorCode.obj
 0003:00004700       ??_C@_07PCHH@Unknown?$AA@  0046b700     ErrorCode.obj
 0003:00004708       ??_C@_07FFBB@Strings?$AA@  0046b708     ErrorCode.obj
 0003:00004710       ??_C@_0BB@EIAC@?2UI?2?$LE?m?N?s?C?h?J?v?4ini?$AA@ 0046b710     ErrorCode.obj
 0003:00004730       ___defaultmatherr          0046b730     MSVCRT:merr.obj
 0003:00004738       ?errors@@3PAUregErr@@A     0046b738     FilterText_StaticLib:Regexp.obj
 0003:00004800       ??_C@_0O@NOFB@Unknown?5error?$AA@ 0046b800     FilterText_StaticLib:Regexp.obj
 0003:00004810       ??_C@_0M@KCHH@NULL?5regexp?$AA@ 0046b810     FilterText_StaticLib:Regexp.obj
 0003:0000481c       ??_C@_0BK@BPJE@internal?5error?3?5strcspn?50?$AA@ 0046b81c     FilterText_StaticLib:Regexp.obj
 0003:00004838       ??_C@_0L@FIJ@trailing?5?2?$AA@ 0046b838     FilterText_StaticLib:Regexp.obj
 0003:00004844       ??_C@_0BE@LCBL@?$DP?$CL?$CK?5follows?5nothing?$AA@ 0046b844     FilterText_StaticLib:Regexp.obj
 0003:00004858       ??_C@_0CA@PHPB@internal?5error?3?5?20?$HM?$CJ?5unexpected?$AA@ 0046b858     FilterText_StaticLib:Regexp.obj
 0003:00004878       ??_C@_0N@ODC@unmatched?5?$FL?$FN?$AA@ 0046b878     FilterText_StaticLib:Regexp.obj
 0003:00004888       ??_C@_0BB@BPGK@invalid?5?$FL?$FN?5range?$AA@ 0046b888     FilterText_StaticLib:Regexp.obj
 0003:0000489c       ??_C@_0L@OKEN@nested?5?$CK?$DP?$CL?$AA@ 0046b89c     FilterText_StaticLib:Regexp.obj
 0003:000048a8       ??_C@_0BK@OENN@?$CK?$CL?5operand?5could?5be?5empty?$AA@ 0046b8a8     FilterText_StaticLib:Regexp.obj
 0003:000048c4       ??_C@_0BM@OKCI@internal?5error?3?5junk?5on?5end?$AA@ 0046b8c4     FilterText_StaticLib:Regexp.obj
 0003:000048e0       ??_C@_0N@NEJP@unmatched?5?$CI?$CJ?$AA@ 0046b8e0     FilterText_StaticLib:Regexp.obj
 0003:000048f0       ??_C@_0BA@HCN@unterminated?5?$CI?$CJ?$AA@ 0046b8f0     FilterText_StaticLib:Regexp.obj
 0003:00004900       ??_C@_0M@JCAE@too?5many?5?$CI?$CJ?$AA@ 0046b900     FilterText_StaticLib:Regexp.obj
 0003:0000490c       ??_C@_0P@FLPN@regexp?5too?5big?$AA@ 0046b90c     FilterText_StaticLib:Regexp.obj
 0003:0000491c       ??_C@_0BJ@EOEN@NULL?5argument?5to?5regcomp?$AA@ 0046b91c     FilterText_StaticLib:Regexp.obj
 0003:00004938       ??_C@_0BF@KGCJ@damaged?5match?5string?$AA@ 0046b938     FilterText_StaticLib:Regexp.obj
 0003:00004950       ??_C@_0BN@JMBG@damaged?5regexp?5fed?5to?5regsub?$AA@ 0046b950     FilterText_StaticLib:Regexp.obj
 0003:00004970       ??_C@_0BE@NJJK@NULL?5parm?5to?5regsub?$AA@ 0046b970     FilterText_StaticLib:Regexp.obj
 0003:00004984       ??_C@_0BB@JFCK@corrupted?5opcode?$AA@ 0046b984     FilterText_StaticLib:Regexp.obj
 0003:00004998       ??_C@_0CG@LCPC@internal?5error?3?5bad?5call?5of?5regr@ 0046b998     FilterText_StaticLib:Regexp.obj
 0003:000049c0       ??_C@_0BD@HEBG@corrupted?5pointers?$AA@ 0046b9c0     FilterText_StaticLib:Regexp.obj
 0003:000049d4       ??_C@_0BC@KCEE@regexp?5corruption?$AA@ 0046b9d4     FilterText_StaticLib:Regexp.obj
 0003:000049e8       ??_C@_0BB@ONA@corrupted?5regexp?$AA@ 0046b9e8     FilterText_StaticLib:Regexp.obj
 0003:000049fc       ??_C@_0BJ@ONDH@NULL?5argument?5to?5regexec?$AA@ 0046b9fc     FilterText_StaticLib:Regexp.obj
 0003:00005838       ?g_MouseOver@@3VKMouseOver@@A 0046c838     MouseHover.obj
 0003:00006164       ??_C@_00A@?$AA@            0046d164     MouseHover.obj
 0003:00006168       ?m_pMenu@KPopupMenu@@0PAUKPopupMenuData@@A 0046d168     PopupMenu.obj
 0003:0000616c       ?m_pCaller@KPopupMenu@@0PAVKWndWindow@@A 0046d16c     PopupMenu.obj
 0003:00006170       ?m_uCallerParam@KPopupMenu@@0IA 0046d170     PopupMenu.obj
 0003:00006174       ?m_nImgWidth@KPopupMenu@@0FA 0046d174     PopupMenu.obj
 0003:00006176       ?m_nImgHeight@KPopupMenu@@0FA 0046d176     PopupMenu.obj
 0003:00006178       ?m_nIndent@KPopupMenu@@0FA 0046d178     PopupMenu.obj
 0003:0000617a       ?m_nFrame@KPopupMenu@@0FA  0046d17a     PopupMenu.obj
 0003:0000617c       ?m_nMenuHeight@KPopupMenu@@0HA 0046d17c     PopupMenu.obj
 0003:00006180       ?m_szImage@KPopupMenu@@0PADA 0046d180     PopupMenu.obj
 0003:00006304       ?l_Time@@3IA               0046d304     UiImage.obj
 0003:00006308       ?m_pPressedDownBtn@KWndButton@@0PAV1@A 0046d308     WndButton.obj
 0003:0000630c       ?ms_nDisableBtnTip@KWndButton@@0HA 0046d30c     WndButton.obj
 0003:00006310       ?m_pSelf@KWndChessPanel@@0PAV1@A 0046d310     WndChessPanel.obj
 0003:0000648c       ?WND_SHOW_MOUSE_OVER_WND@@3HA 0046d48c     Wnds.obj
 0003:000064a0       ?WND_SHOW_DEBUG_FRAME_TEXT@@3HA 0046d4a0     WndWindow.obj
 0003:000064a4       ?m_pSelf@KUiConnectInfo@@0PAV1@A 0046d4a4     UiConnectInfo.obj
 0003:000064a8       ?m_pSelf@KUiLogin@@0PAV1@A 0046d4a8     UiLogin.obj
 0003:000064ac       ?m_pSelf@KUiLoginBackGround@@0PAV1@A 0046d4ac     UiLoginBg.obj
 0003:000064b0       ?m_pSelf@KUiSelServer@@0PAV1@A 0046d4b0     UiSelServer.obj
 0003:000064b4       ?m_pSelf@KUiFaceSelector@@0PAV1@A 0046d4b4     UiFaceSelector.obj
 0003:000064b8       ?ms_pFaceList@KUiFaceSelector@@0PAUKFaceItem@1@A 0046d4b8     UiFaceSelector.obj
 0003:000064bc       ?ms_nNumFaces@KUiFaceSelector@@0HA 0046d4bc     UiFaceSelector.obj
 0003:000064c0       ?m_pSelf@KUiPlayerBar@@0PAV1@A 0046d4c0     UiPlayerBar.obj
 0003:000064c4       ?s_CanFocusColor@@3IA      0046d4c4     UiPlayerBar.obj
 0003:000064c8       ?s_NotCanFocusColor@@3IA   0046d4c8     UiPlayerBar.obj
 0003:000064cc       ?_Nil@?$_Tree@V?$basic_string@DU?$char_traits@D@std@@V?$allocator@D@2@@std@@U?$pair@$$CBV?$basic_string@DU?$char_traits@D@std@@V?$allocator@D@2@@std@@UShortFuncInfo@@@2@U_Kfn@?$map@V?$basic_string@DU?$char_traits@D@std@@V?$allocator@D@2@@std@@UShortFuncInfo@@Ustring_iless@@V?$allocator@UShortFuncInfo@@@2@@2@Ustring_iless@@V?$allocator@UShortFuncInfo@@@2@@std@@1PAU_Node@12@A 0046d4cc     UiPlayerBar.obj
 0003:000064d0       ?m_pSelf@KUiStatus@@0PAV1@A 0046d4d0     UiStatus.obj
 0003:000064d4       ?m_pSelf@KUiOptions@@0PAV1@A 0046d4d4     UiOptions.obj
 0003:000064d8       ?m_pSelf@KUiInit@@0PAV1@A  0046d4d8     UiInit.obj
 0003:000064dc       ?m_pSelf@KUiGetMoney@@0PAV1@A 0046d4dc     UiGetMoney.obj
 0003:000064e0       ?m_pSelf@KUiItem@@0PAV1@A  0046d4e0     UiItem.obj
 0003:000064e4       ?m_pSelf@KUiSkills@@0PAV1@A 0046d4e4     UiSkills.obj
 0003:000064e8       ?ms_ShortcutSkills@KUiSkillTree@@0PAUKUiSkillData@@A 0046d4e8     UiSkillTree.obj
 0003:00006554       ?m_pSelf@KUiSkillTree@@0PAV1@A 0046d554     UiSkillTree.obj
 0003:00006558       ?m_pSelf@KUiStoreBox@@0PAV1@A 0046d558     UiStoreBox.obj
 0003:0000655c       ?m_pSelf@KUiESCDlg@@0PAV1@A 0046d55c     UiESCDlg.obj
 0003:00006560       ?m_pSelf@KUiGetString@@0PAV1@A 0046d560     UiGetString.obj
 0003:00006564       ?m_pSelf@KUiMsgSel@@0PAV1@A 0046d564     UiMsgSel.obj
 0003:00006568       ?m_pSelf@KUiParadeItem@@0PAV1@A 0046d568     UiParadeItem.obj
 0003:0000656c       ?m_pSelf@KUiSelPlayerNearby@@0PAV1@A 0046d56c     UiSelPlayerNearby.obj
 0003:00006570       ?m_pSelf@KUiNewPlayer@@0PAV1@A 0046d570     UiNewPlayer.obj
 0003:00006574       ?m_pSelf@KUiSelNativePlace@@0PAV1@A 0046d574     UiSelNativePlace.obj
 0003:00006578       ?m_pSelf@KUiSelPlayer@@0PAV1@A 0046d578     UiSelPlayer.obj
 0003:00006580       ?ms_SNotify@KUiChatCentre@@0UServerNotify@@A 0046d580     UiChatCentre.obj
 0003:00006588       ?m_pSelf@KUiChatCentre@@0PAV1@A 0046d588     UiChatCentre.obj
 0003:00006590       ?_Nil@?$_Tree@V?$basic_string@DU?$char_traits@D@std@@V?$allocator@D@2@@std@@U?$pair@$$CBV?$basic_string@DU?$char_traits@D@std@@V?$allocator@D@2@@std@@V12@@2@U_Kfn@?$map@V?$basic_string@DU?$char_traits@D@std@@V?$allocator@D@2@@std@@V12@U?$less@V?$basic_string@DU?$char_traits@D@std@@V?$allocator@D@2@@std@@@2@V?$allocator@V?$basic_string@DU?$char_traits@D@std@@V?$allocator@D@2@@std@@@2@@2@U?$less@V?$basic_string@DU?$char_traits@D@std@@V?$allocator@D@2@@std@@@2@V?$allocator@V?$basic_string@DU?$char_traits@D@std@@V?$allocator@D@2@@std@@@2@@std@@1PAU_Node@12@A 0046d590     UiChatCentre.obj
 0003:00006594       ?_Nilrefs@?$_Tree@V?$basic_string@DU?$char_traits@D@std@@V?$allocator@D@2@@std@@U?$pair@$$CBV?$basic_string@DU?$char_traits@D@std@@V?$allocator@D@2@@std@@V12@@2@U_Kfn@?$map@V?$basic_string@DU?$char_traits@D@std@@V?$allocator@D@2@@std@@V12@U?$less@V?$basic_string@DU?$char_traits@D@std@@V?$allocator@D@2@@std@@@2@V?$allocator@V?$basic_string@DU?$char_traits@D@std@@V?$allocator@D@2@@std@@@2@@2@U?$less@V?$basic_string@DU?$char_traits@D@std@@V?$allocator@D@2@@std@@@2@V?$allocator@V?$basic_string@DU?$char_traits@D@std@@V?$allocator@D@2@@std@@@2@@std@@1IA 0046d594     UiChatCentre.obj
 0003:00006598       ?_Nil@?$_Tree@V?$basic_string@DU?$char_traits@D@std@@V?$allocator@D@2@@std@@U?$pair@$$CBV?$basic_string@DU?$char_traits@D@std@@V?$allocator@D@2@@std@@E@2@U_Kfn@?$map@V?$basic_string@DU?$char_traits@D@std@@V?$allocator@D@2@@std@@EU?$less@V?$basic_string@DU?$char_traits@D@std@@V?$allocator@D@2@@std@@@2@V?$allocator@E@2@@2@U?$less@V?$basic_string@DU?$char_traits@D@std@@V?$allocator@D@2@@std@@@2@V?$allocator@E@2@@std@@1PAU_Node@12@A 0046d598     UiChatCentre.obj
 0003:0000659c       ?_Nilrefs@?$_Tree@V?$basic_string@DU?$char_traits@D@std@@V?$allocator@D@2@@std@@U?$pair@$$CBV?$basic_string@DU?$char_traits@D@std@@V?$allocator@D@2@@std@@E@2@U_Kfn@?$map@V?$basic_string@DU?$char_traits@D@std@@V?$allocator@D@2@@std@@EU?$less@V?$basic_string@DU?$char_traits@D@std@@V?$allocator@D@2@@std@@@2@V?$allocator@E@2@@2@U?$less@V?$basic_string@DU?$char_traits@D@std@@V?$allocator@D@2@@std@@@2@V?$allocator@E@2@@std@@1IA 0046d59c     UiChatCentre.obj
 0003:000065a0       ?g_UiChatPhrase@@3VKUiChatPhrase@@A 0046d5a0     UiChatPhrase.obj
 0003:00006860       ?m_pSelf@KUiChatStatus@@0PAV1@A 0046d860     UiChatStatus.obj
 0003:00006868       ?g_UiInformation@@3VKUiInformation@@A 0046d868     UiInformation.obj
 0003:00006c38       ?g_UiInformation2@@3VKUiInformation2@@A 0046dc38     UiInformation2.obj
 0003:00006f68       ?m_pSelf@KUiTeamManage@@0PAV1@A 0046df68     UiTeamManage.obj
 0003:00006f6c       ?m_pSelf@KUiHeaderControlBar@@0PAV1@A 0046df6c     UiHeaderControlBar.obj
 0003:00006f78       ?m_pSelf@KUiMsgCentrePad@@0PAV1@A 0046df78     UiMsgCentrePad.obj
 0003:00006f7c       ?ms_DefaultWidth@KUiMsgCentrePad@@0HA 0046df7c     UiMsgCentrePad.obj
 0003:00006f80       ?ms_DefaultHeight@KUiMsgCentrePad@@0HA 0046df80     UiMsgCentrePad.obj
 0003:00006f84       ?m_pSelf@KUiToolsControlBar@@0PAV1@A 0046df84     UiToolsControlBar.obj
 0003:00006f88       ?m_pSelf@KUiShop@@0PAV1@A  0046df88     UiShop.obj
 0003:00006f8c       ?m_pSelf@KUiTrade@@0PAV1@A 0046df8c     UiTrade.obj
 0003:00006f90       ?m_pSelf@KUiTradeConfirm@@0PAV1@A 0046df90     UiTradeConfirmWnd.obj
 0003:00006f98       ?g_WndGameSpace@@3VKUiGameSpace@@A 0046df98     UiGame.obj
 0003:00007000       ?m_pSelf@KUiSysMsgCentre@@0PAV1@A 0046e000     UiSysMsgCentre.obj
 0003:00007004       ?ms_pSelf@KUiMiniMap@@0PAV1@A 0046e004     UiMiniMap.obj
 0003:0000700c       ?m_MenuData@KUiSelColor@@0PAEA 0046e00c     UiSelColor.obj
 0003:000073cc       ?m_pSelf@KUiNewPlayerStartMsg@@0PAV1@A 0046e3cc     UiNewPlayerStartMsg.obj
 0003:000073d0       ?m_pSelf@KUiPlayVideo@@0PAV1@A 0046e3d0     UiPlayVideo.obj
 0003:000073d4       ?m_pSelf@KUiHelper@@0PAV1@A 0046e3d4     UiHelper.obj
 0003:000073d8       ?ms_nImgFrame@KUiHelper@@0HA 0046e3d8     UiHelper.obj
 0003:000073dc       ?m_pSelf@KUiHelper2@@0PAV1@A 0046e3dc     UiHelper2.obj
 0003:000073e0       ?m_pSelf@KReconnectWnd@@0PAV1@A 0046e3e0     UiReconnect.obj
 0003:000073e4       ?ms_pPersonalRecord@KTaskDataFile@@0PAUKPersonalRecord@1@A 0046e3e4     UiTaskDataFile.obj
 0003:000073e8       ?ms_pSystemRecordList@KTaskDataFile@@0PAUKTaskSystemRecordNode@1@A 0046e3e8     UiTaskDataFile.obj
 0003:000073ec       ?ms_nSystemRecordCount@KTaskDataFile@@0HA 0046e3ec     UiTaskDataFile.obj
 0003:000073f0       ?m_pSelf@KUiTaskNote@@0PAV1@A 0046e3f0     UiTaskNote.obj
 0003:000073f4       ?m_pSelf@KUiWorldmap@@0PAV1@A 0046e3f4     UiWorldMap.obj
 0003:000073f8       ?m_pSelf@KUiNewsMessage@@0PAV1@A 0046e3f8     UiNewsMessage.obj
 0003:000073fc       ?ms_bEnableIdleMsg@KUiNewsMessage@@0HA 0046e3fc     UiNewsMessage.obj
 0003:00007408       ?m_IndexIDIni@KUiStrengthRank@@0VKIniFile@@A 0046e408     UiStrengthRank.obj
 0003:00007460       ?m_RankData@KUiStrengthRank@@0V?$KLinkStruct@UKRankNode@@@@A 0046e460     UiStrengthRank.obj
 0003:00007480       ?m_IndexData@KUiStrengthRank@@0V?$KLinkStruct@UKRankIndexNode@@@@A 0046e480     UiStrengthRank.obj
 0003:0000749c       ?m_pSelf@KUiStrengthRank@@0PAV1@A 0046e49c     UiStrengthRank.obj
 0003:000074a0       ?m_bIsIndexDataChange@KUiStrengthRank@@0HA 0046e4a0     UiStrengthRank.obj
 0003:000074a4       ?m_bIsRankDataChange@KUiStrengthRank@@0HA 0046e4a4     UiStrengthRank.obj
 0003:000074a8       ?ms_pSelf@KUiPopupPasswordQuery@@0PAV1@A 0046e4a8     UiPopupPasswordQuery.obj
 0003:000074ac       ?ms_pSelf@KUiTongAssignBox@@0PAV1@A 0046e4ac     UiTongAssignBox.obj
 0003:000074b0       ?ms_pSelf@KUiTongCreateSheet@@0PAV1@A 0046e4b0     UiTongCreateSheet.obj
 0003:000074b4       ?m_pSelf@KUiTongGetString@@0PAV1@A 0046e4b4     UiTongGetString.obj
 0003:000074b8       ?m_TongData@KUiTongManager@@0UKTongInfo@@A 0046e4b8     UiTongManager.obj
 0003:00007500       ?ms_pSelf@KUiTongManager@@0PAV1@A 0046e500     UiTongManager.obj
 0003:00007504       ?m_nElderDataIndex@KUiTongManager@@0HA 0046e504     UiTongManager.obj
 0003:00007508       ?m_nMemberDataIndex@KUiTongManager@@0HA 0046e508     UiTongManager.obj
 0003:0000750c       ?m_nCaptainDataIndex@KUiTongManager@@0HA 0046e50c     UiTongManager.obj
 0003:00007510       ?ms_pSelf@KUiTrembleItem@@0PAV1@A 0046e510     UiTrembleItem.obj
 0003:000076f8       ?s_LNotify@@3UBlacklistNotify@@A 0046e6f8     GameSpaceChangedNotify.obj
 0003:00007700       ?g_BlackListUserNames@@3V?$map@V?$basic_string@DU?$char_traits@D@std@@V?$allocator@D@2@@std@@V12@U?$less@V?$basic_string@DU?$char_traits@D@std@@V?$allocator@D@2@@std@@@2@V?$allocator@V?$basic_string@DU?$char_traits@D@std@@V?$allocator@D@2@@std@@@2@@std@@A 0046e700     GameSpaceChangedNotify.obj
 0003:00007780       ?ms_FunsMap@KShortcutKeyCentre@@2V?$map@V?$basic_string@DU?$char_traits@D@std@@V?$allocator@D@2@@std@@UShortFuncInfo@@Ustring_iless@@V?$allocator@UShortFuncInfo@@@2@@std@@A 0046e780     ShortcutKey.obj
 0003:00007798       ?ms_Script@KShortcutKeyCentre@@0VKLuaScript@@A 0046e798     ShortcutKey.obj
 0003:0000780c       ?ms_pCommands@KShortcutKeyCentre@@0PAUCOMMAND_SETTING@@A 0046e80c     ShortcutKey.obj
 0003:00007810       ?ms_nCommands@KShortcutKeyCentre@@0HA 0046e810     ShortcutKey.obj
 0003:00007814       ?ms_Enable@KShortcutKeyCentre@@0_NA 0046e814     ShortcutKey.obj
 0003:00007815       ?ms_bMouse@KShortcutKeyCentre@@2_NA 0046e815     ShortcutKey.obj
 0003:00007818       ?ms_MouseX@KShortcutKeyCentre@@2HA 0046e818     ShortcutKey.obj
 0003:0000781c       ?ms_MouseY@KShortcutKeyCentre@@2HA 0046e81c     ShortcutKey.obj
 0003:00007820       ?_Nilrefs@?$_Tree@V?$basic_string@DU?$char_traits@D@std@@V?$allocator@D@2@@std@@U?$pair@$$CBV?$basic_string@DU?$char_traits@D@std@@V?$allocator@D@2@@std@@UShortFuncInfo@@@2@U_Kfn@?$map@V?$basic_string@DU?$char_traits@D@std@@V?$allocator@D@2@@std@@UShortFuncInfo@@Ustring_iless@@V?$allocator@UShortFuncInfo@@@2@@2@Ustring_iless@@V?$allocator@UShortFuncInfo@@@2@@std@@1IA 0046e820     ShortcutKey.obj
 0003:00007824       ?_Nilrefs@?$_Tree@V?$basic_string@DU?$char_traits@D@std@@V?$allocator@D@2@@std@@U?$pair@$$CBV?$basic_string@DU?$char_traits@D@std@@V?$allocator@D@2@@std@@U?$pair@KK@2@@2@U_Kfn@?$map@V?$basic_string@DU?$char_traits@D@std@@V?$allocator@D@2@@std@@U?$pair@KK@2@Ustring_iless@@V?$allocator@U?$pair@KK@std@@@2@@2@Ustring_iless@@V?$allocator@U?$pair@KK@std@@@2@@std@@1IA 0046e824     ShortcutKey.obj
 0003:00007828       ?_Nil@?$_Tree@V?$basic_string@DU?$char_traits@D@std@@V?$allocator@D@2@@std@@U?$pair@$$CBV?$basic_string@DU?$char_traits@D@std@@V?$allocator@D@2@@std@@U?$pair@KK@2@@2@U_Kfn@?$map@V?$basic_string@DU?$char_traits@D@std@@V?$allocator@D@2@@std@@U?$pair@KK@2@Ustring_iless@@V?$allocator@U?$pair@KK@std@@@2@@2@Ustring_iless@@V?$allocator@U?$pair@KK@std@@@2@@std@@1PAU_Node@12@A 0046e828     ShortcutKey.obj
 0003:00007830       ?s_ANotify@@3UAddinNotify@@A 0046e830     UiBase.obj
 0003:00007838       ?g_UiBase@@3VKUiBase@@A    0046e838     UiBase.obj
 0003:000078c0       ?g_nWindowNTFlag@@3HA      0046e8c0     UiBase.obj
 0003:000078c4       ?_Nilrefs@?$_Tree@V?$basic_string@DU?$char_traits@D@std@@V?$allocator@D@2@@std@@U?$pair@$$CBV?$basic_string@DU?$char_traits@D@std@@V?$allocator@D@2@@std@@PAX@2@U_Kfn@?$map@V?$basic_string@DU?$char_traits@D@std@@V?$allocator@D@2@@std@@PAXU?$less@V?$basic_string@DU?$char_traits@D@std@@V?$allocator@D@2@@std@@@2@V?$allocator@PAX@2@@2@U?$less@V?$basic_string@DU?$char_traits@D@std@@V?$allocator@D@2@@std@@@2@V?$allocator@PAX@2@@std@@1IA 0046e8c4     UiBase.obj
 0003:000078c8       ?_Nil@?$_Tree@V?$basic_string@DU?$char_traits@D@std@@V?$allocator@D@2@@std@@U?$pair@$$CBV?$basic_string@DU?$char_traits@D@std@@V?$allocator@D@2@@std@@PAX@2@U_Kfn@?$map@V?$basic_string@DU?$char_traits@D@std@@V?$allocator@D@2@@std@@PAXU?$less@V?$basic_string@DU?$char_traits@D@std@@V?$allocator@D@2@@std@@@2@V?$allocator@PAX@2@@2@U?$less@V?$basic_string@DU?$char_traits@D@std@@V?$allocator@D@2@@std@@@2@V?$allocator@PAX@2@@std@@1PAU_Node@12@A 0046e8c8     UiBase.obj
 0003:000078d0       ?g_bDisconnect@@3HA        0046e8d0     UiShell.obj
 0003:000078d8       ?g_ClientCallback@@3UKClientCallback@@A 0046e8d8     S3Client.obj
 0003:000078e0       ?g_ChatFilter@@3VCChatFilter@@A 0046e8e0     S3Client.obj
 0003:000078e8       ?g_libFilterText@@3VCFilterTextLib@@A 0046e8e8     S3Client.obj
 0003:000078f0       ?g_PakList@@3VKPakList@@A  0046e8f0     S3Client.obj
 0003:00007974       ?hInst@@3PAUHINSTANCE__@@A 0046e974     S3Client.obj
 0003:00007978       ?MyApp@@3VKMyApp@@A        0046e978     S3Client.obj
 0003:00007aa0       ?g_pRepresentShell@@3PAUiRepresentShell@@A 0046eaa0     S3Client.obj
 0003:00007aa4       ?g_pIInlinePicSink@@3PAUIInlinePicEngineSink@@A 0046eaa4     S3Client.obj
 0003:00007aa8       ?g_pCoreShell@@3PAUiCoreShell@@A 0046eaa8     S3Client.obj
 0003:00007aac       ?g_pMusic@@3PAVKMusic@@A   0046eaac     S3Client.obj
 0003:00007ab4       ?g_bRepresent3@@3HA        0046eab4     S3Client.obj
 0003:00007ac0       ?g_NetConnectAgent@@3VKNetConnectAgent@@A 0046eac0     NetConnectAgent.obj
 0003:00007ee8       ?g_LoginLogic@@3VKLogin@@A 0046eee8     Login.obj
 0003:0000803c       __dowildcard               0046f03c     MSVCRT:wildcard.obj
 0003:00008040       __newmode                  0046f040     MSVCRT:_newmode.obj
 0003:00008044       __commode                  0046f044     MSVCRT:xncommod.obj
 0003:00008048       __fmode                    0046f048     MSVCRT:xtxtmode.obj
 0003:0000804c       __adjust_fdiv              0046f04c     <common>
 0003:00008050       ___onexitend               0046f050     <common>
 0003:00008054       ___onexitbegin             0046f054     <common>

 entry point at        0001:00053ee4

 Static symbols

 0001:00051dc0       _$E52                      00452dc0 f   Login.obj
 0001:00051dd0       _$E49                      00452dd0 f   Login.obj
 0001:00051de0       _$E51                      00452de0 f   Login.obj
 0001:00051df0       _$E50                      00452df0 f   Login.obj
 0001:00051e90       _$E55                      00452e90 f   Login.obj
 0001:00051ea0       _$E54                      00452ea0 f   Login.obj
 0001:000515b0       _$E30                      004525b0 f   NetConnectAgent.obj
 0001:000515c0       _$E27                      004525c0 f   NetConnectAgent.obj
 0001:000515d0       _$E29                      004525d0 f   NetConnectAgent.obj
 0001:000515e0       _$E28                      004525e0 f   NetConnectAgent.obj
 0001:00050b60       _$E52                      00451b60 f   S3Client.obj
 0001:00050b70       _$E49                      00451b70 f   S3Client.obj
 0001:00050b80       _$E51                      00451b80 f   S3Client.obj
 0001:00050b90       _$E50                      00451b90 f   S3Client.obj
 0001:00050c20       _$E57                      00451c20 f   S3Client.obj
 0001:00050c30       _$E54                      00451c30 f   S3Client.obj
 0001:00050c40       _$E56                      00451c40 f   S3Client.obj
 0001:00050c50       _$E55                      00451c50 f   S3Client.obj
 0001:00050c60       _$E62                      00451c60 f   S3Client.obj
 0001:00050c70       _$E59                      00451c70 f   S3Client.obj
 0001:00050c80       _$E61                      00451c80 f   S3Client.obj
 0001:00050c90       _$E60                      00451c90 f   S3Client.obj
 0001:00050ca0       _$E67                      00451ca0 f   S3Client.obj
 0001:00050cb0       _$E64                      00451cb0 f   S3Client.obj
 0001:00050cc0       _$E66                      00451cc0 f   S3Client.obj
 0001:00050cd0       _$E65                      00451cd0 f   S3Client.obj
 0001:00050ce0       _$E70                      00451ce0 f   S3Client.obj
 0001:00050cf0       _$E69                      00451cf0 f   S3Client.obj
 0001:0004c430       _$E87                      0044d430 f   UiBase.obj
 0001:0004c440       _$E84                      0044d440 f   UiBase.obj
 0001:0004c450       _$E86                      0044d450 f   UiBase.obj
 0001:0004c460       _$E85                      0044d460 f   UiBase.obj
 0001:0004ce50       ?_KSG_GetWindowVersion@@YAHXZ 0044de50 f   UiBase.obj
 0001:0004e0b0       _$E90                      0044f0b0 f   UiBase.obj
 0001:0004e0c0       _$E89                      0044f0c0 f   UiBase.obj
 0001:000442b0       _$E118                     004452b0 f   ShortcutKey.obj
 0001:000442c0       _$E114                     004452c0 f   ShortcutKey.obj
 0001:000442d0       _$E117                     004452d0 f   ShortcutKey.obj
 0001:000442e0       _$E115                     004452e0 f   ShortcutKey.obj
 0001:00044300       _$E123                     00445300 f   ShortcutKey.obj
 0001:00044310       _$E120                     00445310 f   ShortcutKey.obj
 0001:00044330       _$E122                     00445330 f   ShortcutKey.obj
 0001:00044340       _$E121                     00445340 f   ShortcutKey.obj
 0001:00046860       _$E128                     00447860 f   ShortcutKey.obj
 0001:0004a260       _$E131                     0044b260 f   ShortcutKey.obj
 0001:00042900       _$E106                     00443900 f   GameSpaceChangedNotify.obj
 0001:00042910       _$E103                     00443910 f   GameSpaceChangedNotify.obj
 0001:00042930       _$E105                     00443930 f   GameSpaceChangedNotify.obj
 0001:00042940       _$E104                     00443940 f   GameSpaceChangedNotify.obj
 0001:00042950       _$E109                     00443950 f   GameSpaceChangedNotify.obj
 0001:00042960       _$E108                     00443960 f   GameSpaceChangedNotify.obj
 0001:00039d70       _$E40                      0043ad70 f   UiStrengthRank.obj
 0001:00039d80       _$E36                      0043ad80 f   UiStrengthRank.obj
 0001:00039db0       _$E39                      0043adb0 f   UiStrengthRank.obj
 0001:00039dc0       _$E37                      0043adc0 f   UiStrengthRank.obj
 0001:00039f00       _$E45                      0043af00 f   UiStrengthRank.obj
 0001:00039f10       _$E42                      0043af10 f   UiStrengthRank.obj
 0001:00039f40       _$E44                      0043af40 f   UiStrengthRank.obj
 0001:00039f50       _$E43                      0043af50 f   UiStrengthRank.obj
 0001:0003a090       _$E50                      0043b090 f   UiStrengthRank.obj
 0001:0003a0a0       _$E47                      0043b0a0 f   UiStrengthRank.obj
 0001:0003a0b0       _$E49                      0043b0b0 f   UiStrengthRank.obj
 0001:0003a0c0       _$E48                      0043b0c0 f   UiStrengthRank.obj
 0001:000323f0       _$E76                      004333f0 f   UiGame.obj
 0001:00032400       _$E73                      00433400 f   UiGame.obj
 0001:00032410       _$E75                      00433410 f   UiGame.obj
 0001:00032420       _$E74                      00433420 f   UiGame.obj
 0001:0002add0       _$E7                       0042bdd0 f   UiInformation2.obj
 0001:0002ade0       _$E4                       0042bde0 f   UiInformation2.obj
 0001:0002adf0       _$E6                       0042bdf0 f   UiInformation2.obj
 0001:0002ae00       _$E5                       0042be00 f   UiInformation2.obj
 0001:0002a890       _$E7                       0042b890 f   UiInformation.obj
 0001:0002a8a0       _$E4                       0042b8a0 f   UiInformation.obj
 0001:0002a8b0       _$E6                       0042b8b0 f   UiInformation.obj
 0001:0002a8c0       _$E5                       0042b8c0 f   UiInformation.obj
 0001:00028fb0       _$E37                      00429fb0 f   UiChatPhrase.obj
 0001:00028fc0       _$E34                      00429fc0 f   UiChatPhrase.obj
 0001:00028fd0       _$E36                      00429fd0 f   UiChatPhrase.obj
 0001:00028fe0       _$E35                      00429fe0 f   UiChatPhrase.obj
 0001:000212d0       _$E56                      004222d0 f   UiChatCentre.obj
 0001:000212e0       _$E55                      004222e0 f   UiChatCentre.obj
 0001:0000b7a0       _$E55                      0040c7a0 f   Wnds.obj
 0001:0000b7b0       _$E52                      0040c7b0 f   Wnds.obj
 0001:0000b8a0       _$E54                      0040c8a0 f   Wnds.obj
 0001:0000b8b0       _$E53                      0040c8b0 f   Wnds.obj
 0001:0000c020       ?Wnd_GetActive@@YAPAVKWndWindow@@HH_N@Z 0040d020 f   Wnds.obj
 0001:000048c0       _$E4                       004058c0 f   WndEdit.obj
 0001:000048d0       _$E1                       004058d0 f   WndEdit.obj
 0001:000048e0       _$E3                       004058e0 f   WndEdit.obj
 0001:000048f0       _$E2                       004058f0 f   WndEdit.obj
 0001:000001e0       _$E25                      004011e0 f   MouseHover.obj
 0001:000001f0       _$E24                      004011f0 f   MouseHover.obj
 0001:000000b0       _$E2                       004010b0 f   ComWindow.obj
 0001:000000c0       _$E1                       004010c0 f   ComWindow.obj
 0001:00053e04       ?ArrayUnwindFilter@@YAHPAU_EXCEPTION_POINTERS@@@Z 00454e04 f   MSVCRT:ehvecdtr.obj
