 Rainbow

 Timestamp is 60606681 (Sun Mar 28 18:20:33 2021)

 Preferred load address is 10000000

 Start         Length     Name                   Class
 0001:00000000 00059419H .text                   CODE
 0001:00059420 00005042H .text$x                 CODE
 0001:0005e462 00031d0eH .textbss                CODE
 0002:00000000 00003031H .rdata                  DATA
 0002:00003038 0000181eH .rdata$r                DATA
 0002:00004858 00005584H .xdata$x                DATA
 0002:00009de0 0000015dH .edata                  DATA
 0003:00000000 00000104H .CRT$XCA                DATA
 0003:00000104 000001d6H .CRT$XCU                DATA
 0003:000002dc 00000104H .CRT$XCZ                DATA
 0003:000003e0 00000104H .CRT$XIA                DATA
 0003:000004e4 0000010eH .CRT$XIC                DATA
 0003:000005f4 00000104H .CRT$XIY                DATA
 0003:000006f8 00000104H .CRT$XIZ                DATA
 0003:000007fc 00000104H .CRT$XPA                DATA
 0003:00000900 00000109H .CRT$XPX                DATA
 0003:00000a0c 00000104H .CRT$XPZ                DATA
 0003:00000b10 00000104H .CRT$XTA                DATA
 0003:00000c14 00000104H .CRT$XTB                DATA
 0003:00000d18 00000104H .CRT$XTZ                DATA
 0003:00000e20 00003769H .data                   DATA
 0003:00004590 0000232dH .bss                    DATA
 0004:00000000 00000064H .idata$2                DATA
 0004:00000064 00000014H .idata$3                DATA
 0004:00000078 00000328H .idata$4                DATA
 0004:000003a0 00000328H .idata$5                DATA
 0004:000006c8 000009a5H .idata$6                DATA

  Address         Publics by Value              Rva+Base     Lib:Object

 0001:000003c0       _DllMain@12                100013c0 f   Rainbow.obj
 0001:000003f0       _CreateInterface@8         100013f0 f   ClientStage.obj
 0001:00000570       ??0CGameClient@@QAE@IIII@Z 10001570 f   ClientStage.obj
 0001:000006c0       ??_ECGameClient@@UAEPAXI@Z 100016c0 f i ClientStage.obj
 0001:000006c0       ??_GCGameClient@@UAEPAXI@Z 100016c0 f i ClientStage.obj
 0001:00000730       ??0IClient@@QAE@XZ         10001730 f i ClientStage.obj
 0001:00000790       ??0IUnknown@@QAE@XZ        10001790 f i ClientStage.obj
 0001:000007c0       ??1CGameClient@@UAE@XZ     100017c0 f   ClientStage.obj
 0001:000008d0       ?Startup@CGameClient@@UAGJXZ 100018d0 f   ClientStage.obj
 0001:00000b40       ?Cleanup@CGameClient@@UAGJXZ 10001b40 f   ClientStage.obj
 0001:00000dc0       ?ConnectTo@CGameClient@@UAGJABQBDG@Z 10001dc0 f   ClientStage.obj
 0001:000010b0       ?RegisterMsgFilter@CGameClient@@UAGJPAXP6GX0ABK@Z@Z 100020b0 f   ClientStage.obj
 0001:00001100       ?SendPackToServer@CGameClient@@UAGJQBXABI@Z 10002100 f   ClientStage.obj
 0001:00001240       ?GetPackFromServer@CGameClient@@UAGPBXAAI@Z 10002240 f   ClientStage.obj
 0001:00001340       ?Shutdown@CGameClient@@UAGJXZ 10002340 f   ClientStage.obj
 0001:00001390       ?QueryInterface@CGameClient@@UAGJABU_GUID@@PAPAX@Z 10002390 f   ClientStage.obj
 0001:00001460       ?AddRef@CGameClient@@UAGKXZ 10002460 f   ClientStage.obj
 0001:000014c0       ?Release@CGameClient@@UAGKXZ 100024c0 f   ClientStage.obj
 0001:00001570       ?ProcessCommand@CGameClient@@IAEXPBVCIOBuffer@Win32@OnlineGameLib@@@Z 10002570 f   ClientStage.obj
 0001:00001660       ?GetMinimumMessageSize@CGameClient@@IBEIXZ 10002660 f   ClientStage.obj
 0001:000016a0       ?GetMessageSize@CGameClient@@IBEIPBVCIOBuffer@Win32@OnlineGameLib@@@Z 100026a0 f   ClientStage.obj
 0001:00001710       ?ProcessDataStream@CGameClient@@IAEPAVCIOBuffer@Win32@OnlineGameLib@@PAV234@@Z 10002710 f   ClientStage.obj
 0001:00001970       ?OnStartConnections@CGameClient@@EAEXXZ 10002970 f   ClientStage.obj
 0001:000019f0       ?OnStopConnections@CGameClient@@EAEXXZ 100029f0 f   ClientStage.obj
 0001:00001a70       ?ReadCompleted@CGameClient@@EAEXPAVCIOBuffer@Win32@OnlineGameLib@@@Z 10002a70 f   ClientStage.obj
 0001:00001d80       ??0CClientFactory@@QAE@XZ  10002d80 f   ClientStage.obj
 0001:00001df0       ??_GCClientFactory@@UAEPAXI@Z 10002df0 f i ClientStage.obj
 0001:00001df0       ??_ECClientFactory@@UAEPAXI@Z 10002df0 f i ClientStage.obj
 0001:00001e60       ??0IClientFactory@@QAE@XZ  10002e60 f i ClientStage.obj
 0001:00001ec0       ??1CClientFactory@@UAE@XZ  10002ec0 f   ClientStage.obj
 0001:00001f00       ?SetEnvironment@CClientFactory@@UAGJABI@Z 10002f00 f   ClientStage.obj
 0001:00001f40       ?CreateClientInterface@CClientFactory@@UAGJABU_GUID@@PAPAX@Z 10002f40 f   ClientStage.obj
 0001:000020b0       ?QueryInterface@CClientFactory@@UAGJABU_GUID@@PAPAX@Z 100030b0 f   ClientStage.obj
 0001:00002180       ?AddRef@CClientFactory@@UAGKXZ 10003180 f   ClientStage.obj
 0001:000021e0       ?Release@CClientFactory@@UAGKXZ 100031e0 f   ClientStage.obj
 0001:00002290       ??0?$basic_string@DU?$char_traits@D@std@@V?$allocator@D@2@@std@@QAE@PBDABV?$allocator@D@1@@Z 10003290 f i ClientStage.obj
 0001:00002300       ??1?$basic_string@DU?$char_traits@D@std@@V?$allocator@D@2@@std@@QAE@XZ 10003300 f i ClientStage.obj
 0001:00002350       ?assign@?$basic_string@DU?$char_traits@D@std@@V?$allocator@D@2@@std@@QAEAAV12@PBD@Z 10003350 f i ClientStage.obj
 0001:000023b0       ?length@?$char_traits@D@std@@SAIPBD@Z 100033b0 f i ClientStage.obj
 0001:00002400       ?_Tidy@?$basic_string@DU?$char_traits@D@std@@V?$allocator@D@2@@std@@AAEX_N@Z 10003400 f i ClientStage.obj
 0001:00002510       ?assign@?$basic_string@DU?$char_traits@D@std@@V?$allocator@D@2@@std@@QAEAAV12@PBDI@Z 10003510 f i ClientStage.obj
 0001:000025a0       ?copy@?$char_traits@D@std@@SAPADPADPBDI@Z 100035a0 f i ClientStage.obj
 0001:000025f0       ?_Eos@?$basic_string@DU?$char_traits@D@std@@V?$allocator@D@2@@std@@AAEXI@Z 100035f0 f i ClientStage.obj
 0001:00002660       ?assign@?$char_traits@D@std@@SAXAADABD@Z 10003660 f i ClientStage.obj
 0001:000026a0       ?_Grow@?$basic_string@DU?$char_traits@D@std@@V?$allocator@D@2@@std@@AAE_NI_N@Z 100036a0 f i ClientStage.obj
 0001:00002850       ?_Refcnt@?$basic_string@DU?$char_traits@D@std@@V?$allocator@D@2@@std@@AAEAAEPBD@Z 10003850 f i ClientStage.obj
 0001:00002890       ?deallocate@?$allocator@D@std@@QAEXPAXI@Z 10003890 f i ClientStage.obj
 0001:000028e0       ??8@YAHABU_GUID@@0@Z       100038e0 f i ClientStage.obj
 0001:00002930       ?max_size@?$basic_string@DU?$char_traits@D@std@@V?$allocator@D@2@@std@@QBEIXZ 10003930 f i ClientStage.obj
 0001:000029a0       ?_Copy@?$basic_string@DU?$char_traits@D@std@@V?$allocator@D@2@@std@@AAEXI@Z 100039a0 f i ClientStage.obj
 0001:00002b50       ?allocate@?$allocator@D@std@@QAEPADIPBX@Z 10003b50 f i ClientStage.obj
 0001:00002ba0       ?max_size@?$allocator@D@std@@QBEIXZ 10003ba0 f i ClientStage.obj
 0001:00002c00       ??Hstd@@YA?AV?$basic_string@DU?$char_traits@D@std@@V?$allocator@D@2@@0@PBDABV10@@Z 10003c00 f i ClientStage.obj
 0001:00002cd0       ??0?$basic_string@DU?$char_traits@D@std@@V?$allocator@D@2@@std@@QAE@ABV01@@Z 10003cd0 f i ClientStage.obj
 0001:00002d50       ?assign@?$basic_string@DU?$char_traits@D@std@@V?$allocator@D@2@@std@@QAEAAV12@ABV12@II@Z 10003d50 f i ClientStage.obj
 0001:00002f30       ?c_str@?$basic_string@DU?$char_traits@D@std@@V?$allocator@D@2@@std@@QBEPBDXZ 10003f30 f i ClientStage.obj
 0001:00002f90       ?size@?$basic_string@DU?$char_traits@D@std@@V?$allocator@D@2@@std@@QBEIXZ 10003f90 f i ClientStage.obj
 0001:00002fd0       ?_Nullstr@?$basic_string@DU?$char_traits@D@std@@V?$allocator@D@2@@std@@CAPBDXZ 10003fd0 f i ClientStage.obj
 0001:00003000       ?erase@?$basic_string@DU?$char_traits@D@std@@V?$allocator@D@2@@std@@QAEAAV12@II@Z 10004000 f i ClientStage.obj
 0001:00003100       ?move@?$char_traits@D@std@@SAPADPADPBDI@Z 10004100 f i ClientStage.obj
 0001:00003150       ?capacity@?$basic_string@DU?$char_traits@D@std@@V?$allocator@D@2@@std@@QBEIXZ 10004150 f i ClientStage.obj
 0001:00003190       ?_Split@?$basic_string@DU?$char_traits@D@std@@V?$allocator@D@2@@std@@AAEXXZ 10004190 f i ClientStage.obj
 0001:00003240       ??Hstd@@YA?AV?$basic_string@DU?$char_traits@D@std@@V?$allocator@D@2@@0@ABV10@PBD@Z 10004240 f i ClientStage.obj
 0001:00003300       ??Hstd@@YA?AV?$basic_string@DU?$char_traits@D@std@@V?$allocator@D@2@@0@ABV10@0@Z 10004300 f i ClientStage.obj
 0001:000033c0       ??8std@@YA_NABV?$allocator@D@0@0@Z 100043c0 f i ClientStage.obj
 0001:000033f0       ?_Allocate@std@@YAPADHPAD@Z 100043f0 f i ClientStage.obj
 0001:00003450       ??Y?$basic_string@DU?$char_traits@D@std@@V?$allocator@D@2@@std@@QAEAAV01@ABV01@@Z 10004450 f i ClientStage.obj
 0001:000034a0       ??Y?$basic_string@DU?$char_traits@D@std@@V?$allocator@D@2@@std@@QAEAAV01@PBD@Z 100044a0 f i ClientStage.obj
 0001:000034f0       ?append@?$basic_string@DU?$char_traits@D@std@@V?$allocator@D@2@@std@@QAEAAV12@ABV12@@Z 100044f0 f i ClientStage.obj
 0001:00003540       ?append@?$basic_string@DU?$char_traits@D@std@@V?$allocator@D@2@@std@@QAEAAV12@PBD@Z 10004540 f i ClientStage.obj
 0001:000035a0       ?append@?$basic_string@DU?$char_traits@D@std@@V?$allocator@D@2@@std@@QAEAAV12@ABV12@II@Z 100045a0 f i ClientStage.obj
 0001:000036b0       ?append@?$basic_string@DU?$char_traits@D@std@@V?$allocator@D@2@@std@@QAEAAV12@PBDI@Z 100046b0 f i ClientStage.obj
 0001:000037b0       ?id@?$ctype@G@std@@$D      100047b0 f i ClientStage.obj
 0001:00003850       ?id@?$ctype@G@std@@$E      10004850 f i ClientStage.obj
 0001:00003880       ??_ECGameClient@@W7AEPAXI@Z 10004880 f i ClientStage.obj
 0001:00003890       ??0CCriticalSection@Win32@OnlineGameLib@@QAE@XZ 10004890 f i ClientStage.obj
 0001:000038f0       ??1CCriticalSection@Win32@OnlineGameLib@@QAE@XZ 100048f0 f i ClientStage.obj
 0001:00003950       ??0Owner@CCriticalSection@Win32@OnlineGameLib@@QAE@AAV123@@Z 10004950 f i ClientStage.obj
 0001:000039b0       ?Enter@CCriticalSection@Win32@OnlineGameLib@@QAEXXZ 100049b0 f i ClientStage.obj
 0001:00003a10       ??1Owner@CCriticalSection@Win32@OnlineGameLib@@QAE@XZ 10004a10 f i ClientStage.obj
 0001:00003a60       ?Leave@CCriticalSection@Win32@OnlineGameLib@@QAEXXZ 10004a60 f i ClientStage.obj
 0001:00003ac0       ?GetUsed@CIOBuffer@Win32@OnlineGameLib@@QBEIXZ 10004ac0 f i ClientStage.obj
 0001:00003b00       ?GetSize@CIOBuffer@Win32@OnlineGameLib@@QBEIXZ 10004b00 f i ClientStage.obj
 0001:00003b40       ?GetBuffer@CIOBuffer@Win32@OnlineGameLib@@QBEPBEXZ 10004b40 f i ClientStage.obj
 0001:00003b80       ?OnBufferCreated@Allocator@CIOBuffer@Win32@OnlineGameLib@@EAEXXZ 10004b80 f i ClientStage.obj
 0001:00003bb0       ?OnBufferAllocated@Allocator@CIOBuffer@Win32@OnlineGameLib@@EAEXXZ 10004bb0 f i ClientStage.obj
 0001:00003be0       ?OnBufferReleased@Allocator@CIOBuffer@Win32@OnlineGameLib@@EAEXXZ 10004be0 f i ClientStage.obj
 0001:00003c10       ?OnShutdownInitiated@CSocketClient@Win32@OnlineGameLib@@EAEXXZ 10004c10 f i ClientStage.obj
 0001:00003c40       ?OnShutdownComplete@CSocketClient@Win32@OnlineGameLib@@EAEXXZ 10004c40 f i ClientStage.obj
 0001:00003c70       ?OnConnect@CSocketClient@Win32@OnlineGameLib@@EAEXXZ 10004c70 f i ClientStage.obj
 0001:00003ca0       ?OnClose@CSocketClient@Win32@OnlineGameLib@@EAEXXZ 10004ca0 f i ClientStage.obj
 0001:00003cd0       ?OnWrite@CSocketClient@Win32@OnlineGameLib@@EAEXXZ 10004cd0 f i ClientStage.obj
 0001:00003d00       ?KSG_DecodeBuf@@YAHIPAEPAI@Z 10004d00 f i ClientStage.obj
 0001:00003df0       ?KSG_EncodeBuf@@YAHIPAEPAI@Z 10004df0 f i ClientStage.obj
 0001:00003ed8       _InterlockedIncrement@4    10004ed8 f   kernel32:KERNEL32.dll
 0001:00003ede       _InterlockedDecrement@4    10004ede f   kernel32:KERNEL32.dll
 0001:00003ee4       _InitializeCriticalSection@4 10004ee4 f   kernel32:KERNEL32.dll
 0001:00003eea       _DeleteCriticalSection@4   10004eea f   kernel32:KERNEL32.dll
 0001:00003ef0       _EnterCriticalSection@4    10004ef0 f   kernel32:KERNEL32.dll
 0001:00003ef6       _LeaveCriticalSection@4    10004ef6 f   kernel32:KERNEL32.dll
 0001:00003f00       ??0CSocketClient@Win32@OnlineGameLib@@IAE@ABV?$basic_string@DU?$char_traits@D@std@@V?$allocator@D@2@@std@@GII@Z 10004f00 f   common:SocketClient.obj
 0001:00004008       ??0CSocketClient@Win32@OnlineGameLib@@IAE@II@Z 10005008 f   common:SocketClient.obj
 0001:00004117       ?Connect@CSocketClient@Win32@OnlineGameLib@@QAEXABV?$basic_string@DU?$char_traits@D@std@@V?$allocator@D@2@@std@@G@Z 10005117 f   common:SocketClient.obj
 0001:00004155       ??1CSocketClient@Win32@OnlineGameLib@@UAE@XZ 10005155 f   common:SocketClient.obj
 0001:0000429d       ?StartConnections@CSocketClient@Win32@OnlineGameLib@@QAE_NXZ 1000529d f   common:SocketClient.obj
 0001:000043c2       ?StopConnections@CSocketClient@Win32@OnlineGameLib@@QAEXXZ 100053c2 f   common:SocketClient.obj
 0001:000045ce       ?CreateConnectionSocket@CSocketClient@Win32@OnlineGameLib@@EAEIABV?$basic_string@DU?$char_traits@D@std@@V?$allocator@D@2@@std@@G@Z 100055ce f   common:SocketClient.obj
 0001:000046ce       ?InitiateShutdown@CSocketClient@Win32@OnlineGameLib@@QAEXXZ 100056ce f   common:SocketClient.obj
 0001:00004716       ?WaitForShutdownToComplete@CSocketClient@Win32@OnlineGameLib@@QAEXXZ 10005716 f   common:SocketClient.obj
 0001:00004742       ?Run@CSocketClient@Win32@OnlineGameLib@@MAEHXZ 10005742 f   common:SocketClient.obj
 0001:00004c8b       ?ReleaseBuffers@CSocketClient@Win32@OnlineGameLib@@IAEXXZ 10005c8b f   common:SocketClient.obj
 0001:00004cb2       ?OnError@CSocketClient@Win32@OnlineGameLib@@EAEXABV?$basic_string@DU?$char_traits@D@std@@V?$allocator@D@2@@std@@@Z 10005cb2 f   common:SocketClient.obj
 0001:00004cdc       ?OnRead@CSocketClient@Win32@OnlineGameLib@@AAEXPAVCIOBuffer@23@@Z 10005cdc f   common:SocketClient.obj
 0001:00004e40       ?Write@CSocketClient@Win32@OnlineGameLib@@QAEXPBDI@Z 10005e40 f   common:SocketClient.obj
 0001:00004eb1       ?Write@CSocketClient@Win32@OnlineGameLib@@QAEXPAVCIOBuffer@23@@Z 10005eb1 f   common:SocketClient.obj
 0001:00005263       ?WaitAndVerifyCipher@CSocketClient@Win32@OnlineGameLib@@IAE_NXZ 10006263 f   common:SocketClient.obj
 0001:00005640       ?OnStartConnections@CSocketClient@Win32@OnlineGameLib@@EAEXXZ 10006640 f i common:SocketClient.obj
 0001:00005660       ?OnStopConnections@CSocketClient@Win32@OnlineGameLib@@EAEXXZ 10006660 f i common:SocketClient.obj
 0001:00005680       ??_ECSocketClient@Win32@OnlineGameLib@@UAEPAXI@Z 10006680 f i common:SocketClient.obj
 0001:00005680       ??_GCSocketClient@Win32@OnlineGameLib@@UAEPAXI@Z 10006680 f i common:SocketClient.obj
 0001:000056c0       ??1CManualResetEvent@Win32@OnlineGameLib@@UAE@XZ 100066c0 f i common:SocketClient.obj
 0001:000056f0       ??1CWin32Exception@Win32@OnlineGameLib@@UAE@XZ 100066f0 f i common:SocketClient.obj
 0001:00005720       ??1CException@Win32@OnlineGameLib@@UAE@XZ 10006720 f i common:SocketClient.obj
 0001:00005790       ??_ECException@Win32@OnlineGameLib@@UAEPAXI@Z 10006790 f i common:SocketClient.obj
 0001:00005790       ??_GCException@Win32@OnlineGameLib@@UAEPAXI@Z 10006790 f i common:SocketClient.obj
 0001:000057d0       ??0CWin32Exception@Win32@OnlineGameLib@@QAE@ABV012@@Z 100067d0 f i common:SocketClient.obj
 0001:00005820       ??0CException@Win32@OnlineGameLib@@QAE@ABV012@@Z 10006820 f i common:SocketClient.obj
 0001:000058a0       ??_ECWin32Exception@Win32@OnlineGameLib@@UAEPAXI@Z 100068a0 f i common:SocketClient.obj
 0001:000058a0       ??_GCWin32Exception@Win32@OnlineGameLib@@UAEPAXI@Z 100068a0 f i common:SocketClient.obj
 0001:000058e0       ?GetEvent@CEvent@Win32@OnlineGameLib@@QBEPAXXZ 100068e0 f i common:SocketClient.obj
 0001:00005900       ?IsError@CEventSelect@Win32@OnlineGameLib@@QAE_NXZ 10006900 f i common:SocketClient.obj
 0001:00005920       ?WaitForEnumEvent@CEventSelect@Win32@OnlineGameLib@@QAE_NIK@Z 10006920 f i common:SocketClient.obj
 0001:000059c0       ?Read@CEventSelect@Win32@OnlineGameLib@@QAEHXZ 100069c0 f i common:SocketClient.obj
 0001:00005a10       ?Connect@CEventSelect@Win32@OnlineGameLib@@QAEHXZ 10006a10 f i common:SocketClient.obj
 0001:00005a60       ?Close@CEventSelect@Win32@OnlineGameLib@@QAEHXZ 10006a60 f i common:SocketClient.obj
 0001:00005ab0       ?GetWSABUF@CIOBuffer@Win32@OnlineGameLib@@QBEPAU_WSABUF@@XZ 10006ab0 f i common:SocketClient.obj
 0001:00005ad0       ?Use@CIOBuffer@Win32@OnlineGameLib@@QAEXI@Z 10006ad0 f i common:SocketClient.obj
 0001:00005b00       ?SetupRead@CIOBuffer@Win32@OnlineGameLib@@QAEXXZ 10006b00 f i common:SocketClient.obj
 0001:00005b60       ?SetupWrite@CIOBuffer@Win32@OnlineGameLib@@QAEXXZ 10006b60 f i common:SocketClient.obj
 0001:00005ba0       ??0?$basic_string@DU?$char_traits@D@std@@V?$allocator@D@2@@std@@QAE@ABV?$allocator@D@1@@Z 10006ba0 f i common:SocketClient.obj
 0001:00005be0       ??4?$basic_string@DU?$char_traits@D@std@@V?$allocator@D@2@@std@@QAEAAV01@ABV01@@Z 10006be0 f i common:SocketClient.obj
 0001:00005c10       ?assign@?$basic_string@DU?$char_traits@D@std@@V?$allocator@D@2@@std@@QAEAAV12@ABV12@@Z 10006c10 f i common:SocketClient.obj
 0001:00005c50       ??_ECSocketClient@Win32@OnlineGameLib@@W7AEPAXI@Z 10006c50 f i common:SocketClient.obj
 0001:00005c60       ??0CIOBuffer@Win32@OnlineGameLib@@AAE@AAVAllocator@012@I@Z 10006c60 f   common:IOBuffer.obj
 0001:00005d3b       ??1CIOBuffer@Win32@OnlineGameLib@@AAE@XZ 10006d3b f   common:IOBuffer.obj
 0001:00005e26       ?Empty@CIOBuffer@Win32@OnlineGameLib@@QAEXXZ 10006e26 f   common:IOBuffer.obj
 0001:00005e5a       ??2CIOBuffer@Win32@OnlineGameLib@@CAPAXII@Z 10006e5a f   common:IOBuffer.obj
 0001:00005e94       ??3CIOBuffer@Win32@OnlineGameLib@@CAXPAXI@Z 10006e94 f   common:IOBuffer.obj
 0001:00005f18       ?SplitBuffer@CIOBuffer@Win32@OnlineGameLib@@QAEPAV123@I@Z 10006f18 f   common:IOBuffer.obj
 0001:00005f92       ?RemoveBuffer@CIOBuffer@Win32@OnlineGameLib@@QAEXI@Z 10006f92 f   common:IOBuffer.obj
 0001:00005fec       ?AllocateNewBuffer@CIOBuffer@Win32@OnlineGameLib@@QBEPAV123@XZ 10006fec f   common:IOBuffer.obj
 0001:00006013       ?AddData@CIOBuffer@Win32@OnlineGameLib@@QAEXQBDI@Z 10007013 f   common:IOBuffer.obj
 0001:000060f3       ?AddData@CIOBuffer@Win32@OnlineGameLib@@QAEXQBEI@Z 100070f3 f   common:IOBuffer.obj
 0001:00006121       ?AddData@CIOBuffer@Win32@OnlineGameLib@@QAEXE@Z 10007121 f   common:IOBuffer.obj
 0001:0000614d       ?Release@CIOBuffer@Win32@OnlineGameLib@@QAEXXZ 1000714d f   common:IOBuffer.obj
 0001:00006233       ??0Allocator@CIOBuffer@Win32@OnlineGameLib@@QAE@II@Z 10007233 f   common:IOBuffer.obj
 0001:00006290       ??1Allocator@CIOBuffer@Win32@OnlineGameLib@@UAE@XZ 10007290 f   common:IOBuffer.obj
 0001:0000631f       ?Allocate@Allocator@CIOBuffer@Win32@OnlineGameLib@@QAEPAV234@XZ 1000731f f   common:IOBuffer.obj
 0001:000064b8       ?Release@Allocator@CIOBuffer@Win32@OnlineGameLib@@AAEXPAV234@@Z 100074b8 f   common:IOBuffer.obj
 0001:000065f3       ?DestroyBuffer@Allocator@CIOBuffer@Win32@OnlineGameLib@@AAEXPAV234@@Z 100075f3 f   common:IOBuffer.obj
 0001:000066a7       ?Flush@Allocator@CIOBuffer@Win32@OnlineGameLib@@IAEXXZ 100076a7 f   common:IOBuffer.obj
 0001:0000677a       ??0InOrderBufferList@CIOBuffer@Win32@OnlineGameLib@@QAE@AAVCCriticalSection@23@@Z 1000777a f   common:IOBuffer.obj
 0001:000067d0       ?AddBuffer@InOrderBufferList@CIOBuffer@Win32@OnlineGameLib@@QAEXPAV234@@Z 100077d0 f   common:IOBuffer.obj
 0001:000068b0       ?ProcessAndGetNext@InOrderBufferList@CIOBuffer@Win32@OnlineGameLib@@QAEPAV234@XZ 100078b0 f   common:IOBuffer.obj
 0001:00006b86       ?GetNext@InOrderBufferList@CIOBuffer@Win32@OnlineGameLib@@QAEPAV234@XZ 10007b86 f   common:IOBuffer.obj
 0001:00006e49       ?GetNext@InOrderBufferList@CIOBuffer@Win32@OnlineGameLib@@QAEPAV234@PAV234@@Z 10007e49 f   common:IOBuffer.obj
 0001:000071c1       ?ProcessBuffer@InOrderBufferList@CIOBuffer@Win32@OnlineGameLib@@QAEXXZ 100081c1 f   common:IOBuffer.obj
 0001:000072f7       ?Reset@InOrderBufferList@CIOBuffer@Win32@OnlineGameLib@@QAEXXZ 100082f7 f   common:IOBuffer.obj
 0001:00007420       ??0COpaqueUserData@OnlineGameLib@@IAE@XZ 10008420 f i common:IOBuffer.obj
 0001:00007440       ??1COpaqueUserData@OnlineGameLib@@IAE@XZ 10008440 f i common:IOBuffer.obj
 0001:00007460       ??_GAllocator@CIOBuffer@Win32@OnlineGameLib@@UAEPAXI@Z 10008460 f i common:IOBuffer.obj
 0001:00007460       ??_EAllocator@CIOBuffer@Win32@OnlineGameLib@@UAEPAXI@Z 10008460 f i common:IOBuffer.obj
 0001:000074a0       ??0?$TNodeList@VCIOBuffer@Win32@OnlineGameLib@@@OnlineGameLib@@QAE@XZ 100084a0 f i common:IOBuffer.obj
 0001:000074d0       ?Empty@CNodeList@OnlineGameLib@@QBE_NXZ 100084d0 f i common:IOBuffer.obj
 0001:000074f0       ?AddRef@CIOBuffer@Win32@OnlineGameLib@@QAEXXZ 100084f0 f i common:IOBuffer.obj
 0001:00007530       ?Count@CNodeList@OnlineGameLib@@QBEIXZ 10008530 f i common:IOBuffer.obj
 0001:00007550       ??_GCIOBuffer@Win32@OnlineGameLib@@AAEPAXI@Z 10008550 f i common:IOBuffer.obj
 0001:000075a0       ?GetSequenceNumber@CIOBuffer@Win32@OnlineGameLib@@QBEIXZ 100085a0 f i common:IOBuffer.obj
 0001:000075c0       ??0?$map@IPAVCIOBuffer@Win32@OnlineGameLib@@U?$less@I@std@@V?$allocator@PAVCIOBuffer@Win32@OnlineGameLib@@@5@@std@@QAE@ABU?$less@I@1@ABV?$allocator@PAVCIOBuffer@Win32@OnlineGameLib@@@1@@Z 100085c0 f i common:IOBuffer.obj
 0001:00007600       ?begin@?$map@IPAVCIOBuffer@Win32@OnlineGameLib@@U?$less@I@std@@V?$allocator@PAVCIOBuffer@Win32@OnlineGameLib@@@5@@std@@QAE?AViterator@?$_Tree@IU?$pair@$$CBIPAVCIOBuffer@Win32@OnlineGameLib@@@std@@U_Kfn@?$map@IPAVCIOBuffer@Win32@OnlineGameLib@@U?$less@I@std@@V?$allocator@PAVCIOBuffer@Win32@OnlineGameLib@@@5@@2@U?$less@I@2@V?$allocator@PAVCIOBuffer@Win32@OnlineGameLib@@@2@@2@XZ 10008600 f i common:IOBuffer.obj
 0001:00007640       ?end@?$map@IPAVCIOBuffer@Win32@OnlineGameLib@@U?$less@I@std@@V?$allocator@PAVCIOBuffer@Win32@OnlineGameLib@@@5@@std@@QAE?AViterator@?$_Tree@IU?$pair@$$CBIPAVCIOBuffer@Win32@OnlineGameLib@@@std@@U_Kfn@?$map@IPAVCIOBuffer@Win32@OnlineGameLib@@U?$less@I@std@@V?$allocator@PAVCIOBuffer@Win32@OnlineGameLib@@@5@@2@U?$less@I@2@V?$allocator@PAVCIOBuffer@Win32@OnlineGameLib@@@2@@2@XZ 10008640 f i common:IOBuffer.obj
 0001:00007680       ?empty@?$map@IPAVCIOBuffer@Win32@OnlineGameLib@@U?$less@I@std@@V?$allocator@PAVCIOBuffer@Win32@OnlineGameLib@@@5@@std@@QBE_NXZ 10008680 f i common:IOBuffer.obj
 0001:000076b0       ?insert@?$map@IPAVCIOBuffer@Win32@OnlineGameLib@@U?$less@I@std@@V?$allocator@PAVCIOBuffer@Win32@OnlineGameLib@@@5@@std@@QAE?AU?$pair@Viterator@?$_Tree@IU?$pair@$$CBIPAVCIOBuffer@Win32@OnlineGameLib@@@std@@U_Kfn@?$map@IPAVCIOBuffer@Win32@OnlineGameLib@@U?$less@I@std@@V?$allocator@PAVCIOBuffer@Win32@OnlineGameLib@@@5@@2@U?$less@I@2@V?$allocator@PAVCIOBuffer@Win32@OnlineGameLib@@@2@@std@@_N@2@ABU?$pair@$$CBIPAVCIOBuffer@Win32@OnlineGameLib@@@2@@Z 100086b0 f i common:IOBuffer.obj
 0001:00007720       ?erase@?$map@IPAVCIOBuffer@Win32@OnlineGameLib@@U?$less@I@std@@V?$allocator@PAVCIOBuffer@Win32@OnlineGameLib@@@5@@std@@QAE?AViterator@?$_Tree@IU?$pair@$$CBIPAVCIOBuffer@Win32@OnlineGameLib@@@std@@U_Kfn@?$map@IPAVCIOBuffer@Win32@OnlineGameLib@@U?$less@I@std@@V?$allocator@PAVCIOBuffer@Win32@OnlineGameLib@@@5@@2@U?$less@I@2@V?$allocator@PAVCIOBuffer@Win32@OnlineGameLib@@@2@@2@V342@@Z 10008720 f i common:IOBuffer.obj
 0001:00007770       ??0?$pair@$$CBIPAVCIOBuffer@Win32@OnlineGameLib@@@std@@QAE@ABIABQAVCIOBuffer@Win32@OnlineGameLib@@@Z 10008770 f i common:IOBuffer.obj
 0001:000077a0       ??0iterator@?$_Tree@IU?$pair@$$CBIPAVCIOBuffer@Win32@OnlineGameLib@@@std@@U_Kfn@?$map@IPAVCIOBuffer@Win32@OnlineGameLib@@U?$less@I@std@@V?$allocator@PAVCIOBuffer@Win32@OnlineGameLib@@@5@@2@U?$less@I@2@V?$allocator@PAVCIOBuffer@Win32@OnlineGameLib@@@2@@std@@QAE@XZ 100087a0 f i common:IOBuffer.obj
 0001:000077d0       ??Citerator@?$_Tree@IU?$pair@$$CBIPAVCIOBuffer@Win32@OnlineGameLib@@@std@@U_Kfn@?$map@IPAVCIOBuffer@Win32@OnlineGameLib@@U?$less@I@std@@V?$allocator@PAVCIOBuffer@Win32@OnlineGameLib@@@5@@2@U?$less@I@2@V?$allocator@PAVCIOBuffer@Win32@OnlineGameLib@@@2@@std@@QBEPAU?$pair@$$CBIPAVCIOBuffer@Win32@OnlineGameLib@@@2@XZ 100087d0 f i common:IOBuffer.obj
 0001:00007800       ??9iterator@?$_Tree@IU?$pair@$$CBIPAVCIOBuffer@Win32@OnlineGameLib@@@std@@U_Kfn@?$map@IPAVCIOBuffer@Win32@OnlineGameLib@@U?$less@I@std@@V?$allocator@PAVCIOBuffer@Win32@OnlineGameLib@@@5@@2@U?$less@I@2@V?$allocator@PAVCIOBuffer@Win32@OnlineGameLib@@@2@@std@@QBE_NABV012@@Z 10008800 f i common:IOBuffer.obj
 0001:00007840       ??0?$_Tree@IU?$pair@$$CBIPAVCIOBuffer@Win32@OnlineGameLib@@@std@@U_Kfn@?$map@IPAVCIOBuffer@Win32@OnlineGameLib@@U?$less@I@std@@V?$allocator@PAVCIOBuffer@Win32@OnlineGameLib@@@5@@2@U?$less@I@2@V?$allocator@PAVCIOBuffer@Win32@OnlineGameLib@@@2@@std@@QAE@ABU?$less@I@1@_NABV?$allocator@PAVCIOBuffer@Win32@OnlineGameLib@@@1@@Z 10008840 f i common:IOBuffer.obj
 0001:00007890       ?begin@?$_Tree@IU?$pair@$$CBIPAVCIOBuffer@Win32@OnlineGameLib@@@std@@U_Kfn@?$map@IPAVCIOBuffer@Win32@OnlineGameLib@@U?$less@I@std@@V?$allocator@PAVCIOBuffer@Win32@OnlineGameLib@@@5@@2@U?$less@I@2@V?$allocator@PAVCIOBuffer@Win32@OnlineGameLib@@@2@@std@@QAE?AViterator@12@XZ 10008890 f i common:IOBuffer.obj
 0001:000078e0       ?end@?$_Tree@IU?$pair@$$CBIPAVCIOBuffer@Win32@OnlineGameLib@@@std@@U_Kfn@?$map@IPAVCIOBuffer@Win32@OnlineGameLib@@U?$less@I@std@@V?$allocator@PAVCIOBuffer@Win32@OnlineGameLib@@@5@@2@U?$less@I@2@V?$allocator@PAVCIOBuffer@Win32@OnlineGameLib@@@2@@std@@QAE?AViterator@12@XZ 100088e0 f i common:IOBuffer.obj
 0001:00007920       ?empty@?$_Tree@IU?$pair@$$CBIPAVCIOBuffer@Win32@OnlineGameLib@@@std@@U_Kfn@?$map@IPAVCIOBuffer@Win32@OnlineGameLib@@U?$less@I@std@@V?$allocator@PAVCIOBuffer@Win32@OnlineGameLib@@@5@@2@U?$less@I@2@V?$allocator@PAVCIOBuffer@Win32@OnlineGameLib@@@2@@std@@QBE_NXZ 10008920 f i common:IOBuffer.obj
 0001:00007950       ?insert@?$_Tree@IU?$pair@$$CBIPAVCIOBuffer@Win32@OnlineGameLib@@@std@@U_Kfn@?$map@IPAVCIOBuffer@Win32@OnlineGameLib@@U?$less@I@std@@V?$allocator@PAVCIOBuffer@Win32@OnlineGameLib@@@5@@2@U?$less@I@2@V?$allocator@PAVCIOBuffer@Win32@OnlineGameLib@@@2@@std@@QAE?AU?$pair@Viterator@?$_Tree@IU?$pair@$$CBIPAVCIOBuffer@Win32@OnlineGameLib@@@std@@U_Kfn@?$map@IPAVCIOBuffer@Win32@OnlineGameLib@@U?$less@I@std@@V?$allocator@PAVCIOBuffer@Win32@OnlineGameLib@@@5@@2@U?$less@I@2@V?$allocator@PAVCIOBuffer@Win32@OnlineGameLib@@@2@@std@@_N@2@ABU?$pair@$$CBIPAVCIOBuffer@Win32@OnlineGameLib@@@2@@Z 10008950 f i common:IOBuffer.obj
 0001:00007bb0       ?erase@?$_Tree@IU?$pair@$$CBIPAVCIOBuffer@Win32@OnlineGameLib@@@std@@U_Kfn@?$map@IPAVCIOBuffer@Win32@OnlineGameLib@@U?$less@I@std@@V?$allocator@PAVCIOBuffer@Win32@OnlineGameLib@@@5@@2@U?$less@I@2@V?$allocator@PAVCIOBuffer@Win32@OnlineGameLib@@@2@@std@@QAE?AViterator@12@V312@@Z 10008bb0 f i common:IOBuffer.obj
 0001:00008420       ?_Freenode@?$_Tree@IU?$pair@$$CBIPAVCIOBuffer@Win32@OnlineGameLib@@@std@@U_Kfn@?$map@IPAVCIOBuffer@Win32@OnlineGameLib@@U?$less@I@std@@V?$allocator@PAVCIOBuffer@Win32@OnlineGameLib@@@5@@2@U?$less@I@2@V?$allocator@PAVCIOBuffer@Win32@OnlineGameLib@@@2@@std@@IAEXPAU_Node@12@@Z 10009420 f i common:IOBuffer.obj
 0001:00008450       ??0const_iterator@?$_Tree@IU?$pair@$$CBIPAVCIOBuffer@Win32@OnlineGameLib@@@std@@U_Kfn@?$map@IPAVCIOBuffer@Win32@OnlineGameLib@@U?$less@I@std@@V?$allocator@PAVCIOBuffer@Win32@OnlineGameLib@@@5@@2@U?$less@I@2@V?$allocator@PAVCIOBuffer@Win32@OnlineGameLib@@@2@@std@@QAE@XZ 10009450 f i common:IOBuffer.obj
 0001:00008470       ??Diterator@?$_Tree@IU?$pair@$$CBIPAVCIOBuffer@Win32@OnlineGameLib@@@std@@U_Kfn@?$map@IPAVCIOBuffer@Win32@OnlineGameLib@@U?$less@I@std@@V?$allocator@PAVCIOBuffer@Win32@OnlineGameLib@@@5@@2@U?$less@I@2@V?$allocator@PAVCIOBuffer@Win32@OnlineGameLib@@@2@@std@@QBEAAU?$pair@$$CBIPAVCIOBuffer@Win32@OnlineGameLib@@@2@XZ 10009470 f i common:IOBuffer.obj
 0001:000084a0       ??8iterator@?$_Tree@IU?$pair@$$CBIPAVCIOBuffer@Win32@OnlineGameLib@@@std@@U_Kfn@?$map@IPAVCIOBuffer@Win32@OnlineGameLib@@U?$less@I@std@@V?$allocator@PAVCIOBuffer@Win32@OnlineGameLib@@@5@@2@U?$less@I@2@V?$allocator@PAVCIOBuffer@Win32@OnlineGameLib@@@2@@std@@QBE_NABV012@@Z 100094a0 f i common:IOBuffer.obj
 0001:000084d0       ??0?$pair@Viterator@?$_Tree@IU?$pair@$$CBIPAVCIOBuffer@Win32@OnlineGameLib@@@std@@U_Kfn@?$map@IPAVCIOBuffer@Win32@OnlineGameLib@@U?$less@I@std@@V?$allocator@PAVCIOBuffer@Win32@OnlineGameLib@@@5@@2@U?$less@I@2@V?$allocator@PAVCIOBuffer@Win32@OnlineGameLib@@@2@@std@@_N@std@@QAE@ABViterator@?$_Tree@IU?$pair@$$CBIPAVCIOBuffer@Win32@OnlineGameLib@@@std@@U_Kfn@?$map@IPAVCIOBuffer@Win32@OnlineGameLib@@U?$less@I@std@@V?$allocator@PAVCIOBuffer@Win32@OnlineGameLib@@@5@@2@U?$less@I@2@V?$allocator@PAVCIOBuffer@Win32@OnlineGameLib@@@2@@1@AB_N@Z 100094d0 f i common:IOBuffer.obj
 0001:00008500       ??R_Kfn@?$map@IPAVCIOBuffer@Win32@OnlineGameLib@@U?$less@I@std@@V?$allocator@PAVCIOBuffer@Win32@OnlineGameLib@@@5@@std@@QBEABIABU?$pair@$$CBIPAVCIOBuffer@Win32@OnlineGameLib@@@2@@Z 10009500 f i common:IOBuffer.obj
 0001:00008520       ??R?$less@I@std@@QBE_NABI0@Z 10009520 f i common:IOBuffer.obj
 0001:00008550       ?deallocate@?$allocator@PAVCIOBuffer@Win32@OnlineGameLib@@@std@@QAEXPAXI@Z 10009550 f i common:IOBuffer.obj
 0001:00008580       ?_Color@?$_Tree@IU?$pair@$$CBIPAVCIOBuffer@Win32@OnlineGameLib@@@std@@U_Kfn@?$map@IPAVCIOBuffer@Win32@OnlineGameLib@@U?$less@I@std@@V?$allocator@PAVCIOBuffer@Win32@OnlineGameLib@@@5@@2@U?$less@I@2@V?$allocator@PAVCIOBuffer@Win32@OnlineGameLib@@@2@@std@@KAAAW4_Redbl@12@PAU_Node@12@@Z 10009580 f i common:IOBuffer.obj
 0001:00008590       ?_Key@?$_Tree@IU?$pair@$$CBIPAVCIOBuffer@Win32@OnlineGameLib@@@std@@U_Kfn@?$map@IPAVCIOBuffer@Win32@OnlineGameLib@@U?$less@I@std@@V?$allocator@PAVCIOBuffer@Win32@OnlineGameLib@@@5@@2@U?$less@I@2@V?$allocator@PAVCIOBuffer@Win32@OnlineGameLib@@@2@@std@@KAABIPAU_Node@12@@Z 10009590 f i common:IOBuffer.obj
 0001:000085c0       ?_Left@?$_Tree@IU?$pair@$$CBIPAVCIOBuffer@Win32@OnlineGameLib@@@std@@U_Kfn@?$map@IPAVCIOBuffer@Win32@OnlineGameLib@@U?$less@I@std@@V?$allocator@PAVCIOBuffer@Win32@OnlineGameLib@@@5@@2@U?$less@I@2@V?$allocator@PAVCIOBuffer@Win32@OnlineGameLib@@@2@@std@@KAAAPAU_Node@12@PAU312@@Z 100095c0 f i common:IOBuffer.obj
 0001:000085d0       ?_Parent@?$_Tree@IU?$pair@$$CBIPAVCIOBuffer@Win32@OnlineGameLib@@@std@@U_Kfn@?$map@IPAVCIOBuffer@Win32@OnlineGameLib@@U?$less@I@std@@V?$allocator@PAVCIOBuffer@Win32@OnlineGameLib@@@5@@2@U?$less@I@2@V?$allocator@PAVCIOBuffer@Win32@OnlineGameLib@@@2@@std@@KAAAPAU_Node@12@PAU312@@Z 100095d0 f i common:IOBuffer.obj
 0001:000085e0       ?_Right@?$_Tree@IU?$pair@$$CBIPAVCIOBuffer@Win32@OnlineGameLib@@@std@@U_Kfn@?$map@IPAVCIOBuffer@Win32@OnlineGameLib@@U?$less@I@std@@V?$allocator@PAVCIOBuffer@Win32@OnlineGameLib@@@5@@2@U?$less@I@2@V?$allocator@PAVCIOBuffer@Win32@OnlineGameLib@@@2@@std@@KAAAPAU_Node@12@PAU312@@Z 100095e0 f i common:IOBuffer.obj
 0001:000085f0       ?_Value@?$_Tree@IU?$pair@$$CBIPAVCIOBuffer@Win32@OnlineGameLib@@@std@@U_Kfn@?$map@IPAVCIOBuffer@Win32@OnlineGameLib@@U?$less@I@std@@V?$allocator@PAVCIOBuffer@Win32@OnlineGameLib@@@5@@2@U?$less@I@2@V?$allocator@PAVCIOBuffer@Win32@OnlineGameLib@@@2@@std@@KAAAU?$pair@$$CBIPAVCIOBuffer@Win32@OnlineGameLib@@@2@PAU_Node@12@@Z 100095f0 f i common:IOBuffer.obj
 0001:00008600       ?size@?$_Tree@IU?$pair@$$CBIPAVCIOBuffer@Win32@OnlineGameLib@@@std@@U_Kfn@?$map@IPAVCIOBuffer@Win32@OnlineGameLib@@U?$less@I@std@@V?$allocator@PAVCIOBuffer@Win32@OnlineGameLib@@@5@@2@U?$less@I@2@V?$allocator@PAVCIOBuffer@Win32@OnlineGameLib@@@2@@std@@QBEIXZ 10009600 f i common:IOBuffer.obj
 0001:00008620       ?_Init@?$_Tree@IU?$pair@$$CBIPAVCIOBuffer@Win32@OnlineGameLib@@@std@@U_Kfn@?$map@IPAVCIOBuffer@Win32@OnlineGameLib@@U?$less@I@std@@V?$allocator@PAVCIOBuffer@Win32@OnlineGameLib@@@5@@2@U?$less@I@2@V?$allocator@PAVCIOBuffer@Win32@OnlineGameLib@@@2@@std@@IAEXXZ 10009620 f i common:IOBuffer.obj
 0001:00008720       ?_Insert@?$_Tree@IU?$pair@$$CBIPAVCIOBuffer@Win32@OnlineGameLib@@@std@@U_Kfn@?$map@IPAVCIOBuffer@Win32@OnlineGameLib@@U?$less@I@std@@V?$allocator@PAVCIOBuffer@Win32@OnlineGameLib@@@5@@2@U?$less@I@2@V?$allocator@PAVCIOBuffer@Win32@OnlineGameLib@@@2@@std@@IAE?AViterator@12@PAU_Node@12@0ABU?$pair@$$CBIPAVCIOBuffer@Win32@OnlineGameLib@@@2@@Z 10009720 f i common:IOBuffer.obj
 0001:00008c10       ?_Lmost@?$_Tree@IU?$pair@$$CBIPAVCIOBuffer@Win32@OnlineGameLib@@@std@@U_Kfn@?$map@IPAVCIOBuffer@Win32@OnlineGameLib@@U?$less@I@std@@V?$allocator@PAVCIOBuffer@Win32@OnlineGameLib@@@5@@2@U?$less@I@2@V?$allocator@PAVCIOBuffer@Win32@OnlineGameLib@@@2@@std@@IAEAAPAU_Node@12@XZ 10009c10 f i common:IOBuffer.obj
 0001:00008c40       ?_Lrotate@?$_Tree@IU?$pair@$$CBIPAVCIOBuffer@Win32@OnlineGameLib@@@std@@U_Kfn@?$map@IPAVCIOBuffer@Win32@OnlineGameLib@@U?$less@I@std@@V?$allocator@PAVCIOBuffer@Win32@OnlineGameLib@@@5@@2@U?$less@I@2@V?$allocator@PAVCIOBuffer@Win32@OnlineGameLib@@@2@@std@@IAEXPAU_Node@12@@Z 10009c40 f i common:IOBuffer.obj
 0001:00008dd0       ?_Max@?$_Tree@IU?$pair@$$CBIPAVCIOBuffer@Win32@OnlineGameLib@@@std@@U_Kfn@?$map@IPAVCIOBuffer@Win32@OnlineGameLib@@U?$less@I@std@@V?$allocator@PAVCIOBuffer@Win32@OnlineGameLib@@@5@@2@U?$less@I@2@V?$allocator@PAVCIOBuffer@Win32@OnlineGameLib@@@2@@std@@KAPAU_Node@12@PAU312@@Z 10009dd0 f i common:IOBuffer.obj
 0001:00008e70       ?_Min@?$_Tree@IU?$pair@$$CBIPAVCIOBuffer@Win32@OnlineGameLib@@@std@@U_Kfn@?$map@IPAVCIOBuffer@Win32@OnlineGameLib@@U?$less@I@std@@V?$allocator@PAVCIOBuffer@Win32@OnlineGameLib@@@5@@2@U?$less@I@2@V?$allocator@PAVCIOBuffer@Win32@OnlineGameLib@@@2@@std@@KAPAU_Node@12@PAU312@@Z 10009e70 f i common:IOBuffer.obj
 0001:00008f10       ?_Rmost@?$_Tree@IU?$pair@$$CBIPAVCIOBuffer@Win32@OnlineGameLib@@@std@@U_Kfn@?$map@IPAVCIOBuffer@Win32@OnlineGameLib@@U?$less@I@std@@V?$allocator@PAVCIOBuffer@Win32@OnlineGameLib@@@5@@2@U?$less@I@2@V?$allocator@PAVCIOBuffer@Win32@OnlineGameLib@@@2@@std@@IAEAAPAU_Node@12@XZ 10009f10 f i common:IOBuffer.obj
 0001:00008f40       ?_Root@?$_Tree@IU?$pair@$$CBIPAVCIOBuffer@Win32@OnlineGameLib@@@std@@U_Kfn@?$map@IPAVCIOBuffer@Win32@OnlineGameLib@@U?$less@I@std@@V?$allocator@PAVCIOBuffer@Win32@OnlineGameLib@@@5@@2@U?$less@I@2@V?$allocator@PAVCIOBuffer@Win32@OnlineGameLib@@@2@@std@@IAEAAPAU_Node@12@XZ 10009f40 f i common:IOBuffer.obj
 0001:00008f70       ?_Rrotate@?$_Tree@IU?$pair@$$CBIPAVCIOBuffer@Win32@OnlineGameLib@@@std@@U_Kfn@?$map@IPAVCIOBuffer@Win32@OnlineGameLib@@U?$less@I@std@@V?$allocator@PAVCIOBuffer@Win32@OnlineGameLib@@@5@@2@U?$less@I@2@V?$allocator@PAVCIOBuffer@Win32@OnlineGameLib@@@2@@std@@IAEXPAU_Node@12@@Z 10009f70 f i common:IOBuffer.obj
 0001:00009100       ?_Destval@?$_Tree@IU?$pair@$$CBIPAVCIOBuffer@Win32@OnlineGameLib@@@std@@U_Kfn@?$map@IPAVCIOBuffer@Win32@OnlineGameLib@@U?$less@I@std@@V?$allocator@PAVCIOBuffer@Win32@OnlineGameLib@@@5@@2@U?$less@I@2@V?$allocator@PAVCIOBuffer@Win32@OnlineGameLib@@@2@@std@@IAEXPAU?$pair@$$CBIPAVCIOBuffer@Win32@OnlineGameLib@@@2@@Z 1000a100 f i common:IOBuffer.obj
 0001:00009130       ?_Mynode@const_iterator@?$_Tree@IU?$pair@$$CBIPAVCIOBuffer@Win32@OnlineGameLib@@@std@@U_Kfn@?$map@IPAVCIOBuffer@Win32@OnlineGameLib@@U?$less@I@std@@V?$allocator@PAVCIOBuffer@Win32@OnlineGameLib@@@5@@2@U?$less@I@2@V?$allocator@PAVCIOBuffer@Win32@OnlineGameLib@@@2@@std@@QBEPAU_Node@23@XZ 1000a130 f i common:IOBuffer.obj
 0001:00009150       ??0iterator@?$_Tree@IU?$pair@$$CBIPAVCIOBuffer@Win32@OnlineGameLib@@@std@@U_Kfn@?$map@IPAVCIOBuffer@Win32@OnlineGameLib@@U?$less@I@std@@V?$allocator@PAVCIOBuffer@Win32@OnlineGameLib@@@5@@2@U?$less@I@2@V?$allocator@PAVCIOBuffer@Win32@OnlineGameLib@@@2@@std@@QAE@PAU_Node@12@@Z 1000a150 f i common:IOBuffer.obj
 0001:00009180       ??Eiterator@?$_Tree@IU?$pair@$$CBIPAVCIOBuffer@Win32@OnlineGameLib@@@std@@U_Kfn@?$map@IPAVCIOBuffer@Win32@OnlineGameLib@@U?$less@I@std@@V?$allocator@PAVCIOBuffer@Win32@OnlineGameLib@@@5@@2@U?$less@I@2@V?$allocator@PAVCIOBuffer@Win32@OnlineGameLib@@@2@@std@@QAE?AV012@H@Z 1000a180 f i common:IOBuffer.obj
 0001:000091d0       ??Fiterator@?$_Tree@IU?$pair@$$CBIPAVCIOBuffer@Win32@OnlineGameLib@@@std@@U_Kfn@?$map@IPAVCIOBuffer@Win32@OnlineGameLib@@U?$less@I@std@@V?$allocator@PAVCIOBuffer@Win32@OnlineGameLib@@@5@@2@U?$less@I@2@V?$allocator@PAVCIOBuffer@Win32@OnlineGameLib@@@2@@std@@QAEAAV012@XZ 1000a1d0 f i common:IOBuffer.obj
 0001:00009200       ?_Buynode@?$_Tree@IU?$pair@$$CBIPAVCIOBuffer@Win32@OnlineGameLib@@@std@@U_Kfn@?$map@IPAVCIOBuffer@Win32@OnlineGameLib@@U?$less@I@std@@V?$allocator@PAVCIOBuffer@Win32@OnlineGameLib@@@5@@2@U?$less@I@2@V?$allocator@PAVCIOBuffer@Win32@OnlineGameLib@@@2@@std@@IAEPAU_Node@12@PAU312@W4_Redbl@12@@Z 1000a200 f i common:IOBuffer.obj
 0001:00009260       ?_Consval@?$_Tree@IU?$pair@$$CBIPAVCIOBuffer@Win32@OnlineGameLib@@@std@@U_Kfn@?$map@IPAVCIOBuffer@Win32@OnlineGameLib@@U?$less@I@std@@V?$allocator@PAVCIOBuffer@Win32@OnlineGameLib@@@5@@2@U?$less@I@2@V?$allocator@PAVCIOBuffer@Win32@OnlineGameLib@@@2@@std@@IAEXPAU?$pair@$$CBIPAVCIOBuffer@Win32@OnlineGameLib@@@2@ABU32@@Z 1000a260 f i common:IOBuffer.obj
 0001:00009290       ??0const_iterator@?$_Tree@IU?$pair@$$CBIPAVCIOBuffer@Win32@OnlineGameLib@@@std@@U_Kfn@?$map@IPAVCIOBuffer@Win32@OnlineGameLib@@U?$less@I@std@@V?$allocator@PAVCIOBuffer@Win32@OnlineGameLib@@@5@@2@U?$less@I@2@V?$allocator@PAVCIOBuffer@Win32@OnlineGameLib@@@2@@std@@QAE@PAU_Node@12@@Z 1000a290 f i common:IOBuffer.obj
 0001:000092b0       ?_Dec@const_iterator@?$_Tree@IU?$pair@$$CBIPAVCIOBuffer@Win32@OnlineGameLib@@@std@@U_Kfn@?$map@IPAVCIOBuffer@Win32@OnlineGameLib@@U?$less@I@std@@V?$allocator@PAVCIOBuffer@Win32@OnlineGameLib@@@5@@2@U?$less@I@2@V?$allocator@PAVCIOBuffer@Win32@OnlineGameLib@@@2@@std@@QAEXXZ 1000a2b0 f i common:IOBuffer.obj
 0001:000093e0       ??Eiterator@?$_Tree@IU?$pair@$$CBIPAVCIOBuffer@Win32@OnlineGameLib@@@std@@U_Kfn@?$map@IPAVCIOBuffer@Win32@OnlineGameLib@@U?$less@I@std@@V?$allocator@PAVCIOBuffer@Win32@OnlineGameLib@@@5@@2@U?$less@I@2@V?$allocator@PAVCIOBuffer@Win32@OnlineGameLib@@@2@@std@@QAEAAV012@XZ 1000a3e0 f i common:IOBuffer.obj
 0001:00009410       ?_Charalloc@?$allocator@PAVCIOBuffer@Win32@OnlineGameLib@@@std@@QAEPADI@Z 1000a410 f i common:IOBuffer.obj
 0001:00009440       ?_Inc@const_iterator@?$_Tree@IU?$pair@$$CBIPAVCIOBuffer@Win32@OnlineGameLib@@@std@@U_Kfn@?$map@IPAVCIOBuffer@Win32@OnlineGameLib@@U?$less@I@std@@V?$allocator@PAVCIOBuffer@Win32@OnlineGameLib@@@5@@2@U?$less@I@2@V?$allocator@PAVCIOBuffer@Win32@OnlineGameLib@@@2@@std@@QAEXXZ 1000a440 f i common:IOBuffer.obj
 0001:00009530       ?PopNode@?$TNodeList@VCIOBuffer@Win32@OnlineGameLib@@@OnlineGameLib@@QAEPAVCIOBuffer@Win32@2@XZ 1000a530 f i common:IOBuffer.obj
 0001:00009590       ?ToString@Win32@OnlineGameLib@@YA?AV?$basic_string@DU?$char_traits@D@std@@V?$allocator@D@2@@std@@PAVInOrderBufferList@CIOBuffer@12@@Z 1000a590 f i common:IOBuffer.obj
 0001:00009690       ?ends@std@@YAAAV?$basic_ostream@DU?$char_traits@D@std@@@1@AAV21@@Z 1000a690 f i common:IOBuffer.obj
 0001:000096b0       ??0strstream@std@@QAE@XZ   1000a6b0 f i common:IOBuffer.obj
 0001:00009780       ??0strstreambuf@std@@QAE@H@Z 1000a780 f i common:IOBuffer.obj
 0001:00009800       ??_Estrstreambuf@std@@UAEPAXI@Z 1000a800 f i common:IOBuffer.obj
 0001:00009800       ??_Gstrstreambuf@std@@UAEPAXI@Z 1000a800 f i common:IOBuffer.obj
 0001:00009840       ?freeze@strstream@std@@QAEX_N@Z 1000a840 f i common:IOBuffer.obj
 0001:00009870       ?str@strstream@std@@QAEPADXZ 1000a870 f i common:IOBuffer.obj
 0001:000098a0       ?str@strstreambuf@std@@QAEPADXZ 1000a8a0 f i common:IOBuffer.obj
 0001:000098d0       ??_Estrstream@std@@UAEPAXI@Z 1000a8d0 f i common:IOBuffer.obj
 0001:000098d0       ??_Gstrstream@std@@UAEPAXI@Z 1000a8d0 f i common:IOBuffer.obj
 0001:00009920       ??_Dstrstream@std@@QAEXXZ  1000a920 f i common:IOBuffer.obj
 0001:00009960       ??4?$basic_string@DU?$char_traits@D@std@@V?$allocator@D@2@@std@@QAEAAV01@PBD@Z 1000a960 f i common:IOBuffer.obj
 0001:00009990       ?put@?$basic_ostream@DU?$char_traits@D@std@@@std@@QAEAAV12@D@Z 1000a990 f i common:IOBuffer.obj
 0001:00009ad0       ?eq_int_type@?$char_traits@D@std@@SA_NABH0@Z 1000aad0 f i common:IOBuffer.obj
 0001:00009af0       ?eof@?$char_traits@D@std@@SAHXZ 1000aaf0 f i common:IOBuffer.obj
 0001:00009b00       ??1?$basic_ios@DU?$char_traits@D@std@@@std@@UAE@XZ 1000ab00 f i common:IOBuffer.obj
 0001:00009b30       ?setstate@?$basic_ios@DU?$char_traits@D@std@@@std@@QAEXH_N@Z 1000ab30 f i common:IOBuffer.obj
 0001:00009b70       ?rdstate@ios_base@std@@QBEHXZ 1000ab70 f i common:IOBuffer.obj
 0001:00009b90       ?rdbuf@?$basic_ios@DU?$char_traits@D@std@@@std@@QBEPAV?$basic_streambuf@DU?$char_traits@D@std@@@2@XZ 1000ab90 f i common:IOBuffer.obj
 0001:00009bb0       ??0?$basic_ios@DU?$char_traits@D@std@@@std@@IAE@XZ 1000abb0 f i common:IOBuffer.obj
 0001:00009be0       ??0ios_base@std@@IAE@XZ    1000abe0 f i common:IOBuffer.obj
 0001:00009c20       ??0locale@std@@QAE@W4_Uninitialized@1@@Z 1000ac20 f i common:IOBuffer.obj
 0001:00009c40       ??_Gios_base@std@@UAEPAXI@Z 1000ac40 f i common:IOBuffer.obj
 0001:00009c40       ??_Eios_base@std@@UAEPAXI@Z 1000ac40 f i common:IOBuffer.obj
 0001:00009c80       ??0?$basic_streambuf@DU?$char_traits@D@std@@@std@@IAE@XZ 1000ac80 f i common:IOBuffer.obj
 0001:00009cf0       ??0locale@std@@QAE@XZ      1000acf0 f i common:IOBuffer.obj
 0001:00009d40       ?_Incref@facet@locale@std@@QAEXXZ 1000ad40 f i common:IOBuffer.obj
 0001:00009d90       ??1locale@std@@QAE@XZ      1000ad90 f i common:IOBuffer.obj
 0001:00009e00       ?_Decref@facet@locale@std@@QAEPAV123@XZ 1000ae00 f i common:IOBuffer.obj
 0001:00009e80       ??1?$basic_streambuf@DU?$char_traits@D@std@@@std@@UAE@XZ 1000ae80 f i common:IOBuffer.obj
 0001:00009eb0       ?gptr@?$basic_streambuf@DU?$char_traits@D@std@@@std@@IBEPADXZ 1000aeb0 f i common:IOBuffer.obj
 0001:00009ed0       ?overflow@?$basic_streambuf@DU?$char_traits@D@std@@@std@@MAEHH@Z 1000aed0 f i common:IOBuffer.obj
 0001:00009f00       ?pbackfail@?$basic_streambuf@DU?$char_traits@D@std@@@std@@MAEHH@Z 1000af00 f i common:IOBuffer.obj
 0001:00009f30       ?showmanyc@?$basic_streambuf@DU?$char_traits@D@std@@@std@@MAEHXZ 1000af30 f i common:IOBuffer.obj
 0001:00009f50       ?underflow@?$basic_streambuf@DU?$char_traits@D@std@@@std@@MAEHXZ 1000af50 f i common:IOBuffer.obj
 0001:00009f80       ?uflow@?$basic_streambuf@DU?$char_traits@D@std@@@std@@MAEHXZ 1000af80 f i common:IOBuffer.obj
 0001:0000a010       ?to_int_type@?$char_traits@D@std@@SAHABD@Z 1000b010 f i common:IOBuffer.obj
 0001:0000a020       ?xsgetn@?$basic_streambuf@DU?$char_traits@D@std@@@std@@MAEHPADH@Z 1000b020 f i common:IOBuffer.obj
 0001:0000a150       ?to_char_type@?$char_traits@D@std@@SADABH@Z 1000b150 f i common:IOBuffer.obj
 0001:0000a160       ?xsputn@?$basic_streambuf@DU?$char_traits@D@std@@@std@@MAEHPBDH@Z 1000b160 f i common:IOBuffer.obj
 0001:0000a290       ?pptr@?$basic_streambuf@DU?$char_traits@D@std@@@std@@IBEPADXZ 1000b290 f i common:IOBuffer.obj
 0001:0000a2b0       ?seekoff@?$basic_streambuf@DU?$char_traits@D@std@@@std@@MAE?AV?$fpos@H@2@JW4seekdir@ios_base@2@H@Z 1000b2b0 f i common:IOBuffer.obj
 0001:0000a300       ?seekpos@?$basic_streambuf@DU?$char_traits@D@std@@@std@@MAE?AV?$fpos@H@2@V32@H@Z 1000b300 f i common:IOBuffer.obj
 0001:0000a350       ?setbuf@?$basic_streambuf@DU?$char_traits@D@std@@@std@@MAEPAV12@PADH@Z 1000b350 f i common:IOBuffer.obj
 0001:0000a370       ?sync@?$basic_streambuf@DU?$char_traits@D@std@@@std@@MAEHXZ 1000b370 f i common:IOBuffer.obj
 0001:0000a390       ?imbue@?$basic_streambuf@DU?$char_traits@D@std@@@std@@MAEXABVlocale@2@@Z 1000b390 f i common:IOBuffer.obj
 0001:0000a3b0       ??0?$basic_iostream@DU?$char_traits@D@std@@@std@@QAE@PAV?$basic_streambuf@DU?$char_traits@D@std@@@1@@Z 1000b3b0 f i common:IOBuffer.obj
 0001:0000a480       ??0?$basic_ostream@DU?$char_traits@D@std@@@std@@QAE@PAV?$basic_streambuf@DU?$char_traits@D@std@@@1@_N1@Z 1000b480 f i common:IOBuffer.obj
 0001:0000a540       ??0?$basic_istream@DU?$char_traits@D@std@@@std@@QAE@PAV?$basic_streambuf@DU?$char_traits@D@std@@@1@_N@Z 1000b540 f i common:IOBuffer.obj
 0001:0000a600       ??1?$basic_istream@DU?$char_traits@D@std@@@std@@UAE@XZ 1000b600 f i common:IOBuffer.obj
 0001:0000a630       ??1?$basic_iostream@DU?$char_traits@D@std@@@std@@UAE@XZ 1000b630 f i common:IOBuffer.obj
 0001:0000a6d0       ??1?$basic_ostream@DU?$char_traits@D@std@@@std@@UAE@XZ 1000b6d0 f i common:IOBuffer.obj
 0001:0000a700       ??_G?$basic_ostream@DU?$char_traits@D@std@@@std@@UAEPAXI@Z 1000b700 f i common:IOBuffer.obj
 0001:0000a700       ??_E?$basic_ostream@DU?$char_traits@D@std@@@std@@UAEPAXI@Z 1000b700 f i common:IOBuffer.obj
 0001:0000a750       ??_E?$basic_ios@DU?$char_traits@D@std@@@std@@UAEPAXI@Z 1000b750 f i common:IOBuffer.obj
 0001:0000a750       ??_G?$basic_ios@DU?$char_traits@D@std@@@std@@UAEPAXI@Z 1000b750 f i common:IOBuffer.obj
 0001:0000a790       ??_E?$basic_istream@DU?$char_traits@D@std@@@std@@UAEPAXI@Z 1000b790 f i common:IOBuffer.obj
 0001:0000a790       ??_G?$basic_istream@DU?$char_traits@D@std@@@std@@UAEPAXI@Z 1000b790 f i common:IOBuffer.obj
 0001:0000a7e0       ??_G?$basic_streambuf@DU?$char_traits@D@std@@@std@@UAEPAXI@Z 1000b7e0 f i common:IOBuffer.obj
 0001:0000a7e0       ??_E?$basic_streambuf@DU?$char_traits@D@std@@@std@@UAEPAXI@Z 1000b7e0 f i common:IOBuffer.obj
 0001:0000a820       ??_G?$basic_iostream@DU?$char_traits@D@std@@@std@@UAEPAXI@Z 1000b820 f i common:IOBuffer.obj
 0001:0000a820       ??_E?$basic_iostream@DU?$char_traits@D@std@@@std@@UAEPAXI@Z 1000b820 f i common:IOBuffer.obj
 0001:0000a870       ??_D?$basic_ostream@DU?$char_traits@D@std@@@std@@QAEXXZ 1000b870 f i common:IOBuffer.obj
 0001:0000a8b0       ??_D?$basic_istream@DU?$char_traits@D@std@@@std@@QAEXXZ 1000b8b0 f i common:IOBuffer.obj
 0001:0000a8f0       ??_D?$basic_iostream@DU?$char_traits@D@std@@@std@@QAEXXZ 1000b8f0 f i common:IOBuffer.obj
 0001:0000a930       ?clear@?$basic_ios@DU?$char_traits@D@std@@@std@@QAEXH_N@Z 1000b930 f i common:IOBuffer.obj
 0001:0000a990       ?init@?$basic_ios@DU?$char_traits@D@std@@@std@@IAEXPAV?$basic_streambuf@DU?$char_traits@D@std@@@2@_N@Z 1000b990 f i common:IOBuffer.obj
 0001:0000aa10       ??0sentry@?$basic_ostream@DU?$char_traits@D@std@@@std@@QAE@AAV12@@Z 1000ba10 f i common:IOBuffer.obj
 0001:0000aa50       ??1sentry@?$basic_ostream@DU?$char_traits@D@std@@@std@@QAE@XZ 1000ba50 f i common:IOBuffer.obj
 0001:0000aa90       ??Bsentry@?$basic_ostream@DU?$char_traits@D@std@@@std@@QBE_NXZ 1000ba90 f i common:IOBuffer.obj
 0001:0000aab0       ??0?$fpos@H@std@@QAE@J@Z   1000bab0 f i common:IOBuffer.obj
 0001:0000ab20       ?sputc@?$basic_streambuf@DU?$char_traits@D@std@@@std@@QAEHD@Z 1000bb20 f i common:IOBuffer.obj
 0001:0000abc0       ?egptr@?$basic_streambuf@DU?$char_traits@D@std@@@std@@IBEPADXZ 1000bbc0 f i common:IOBuffer.obj
 0001:0000abf0       ?gbump@?$basic_streambuf@DU?$char_traits@D@std@@@std@@IAEXH@Z 1000bbf0 f i common:IOBuffer.obj
 0001:0000ac30       ?epptr@?$basic_streambuf@DU?$char_traits@D@std@@@std@@IBEPADXZ 1000bc30 f i common:IOBuffer.obj
 0001:0000ac60       ?_Gninc@?$basic_streambuf@DU?$char_traits@D@std@@@std@@IAEPADXZ 1000bc60 f i common:IOBuffer.obj
 0001:0000aca0       ?pbump@?$basic_streambuf@DU?$char_traits@D@std@@@std@@IAEXH@Z 1000bca0 f i common:IOBuffer.obj
 0001:0000ace0       ?_Init@?$basic_streambuf@DU?$char_traits@D@std@@@std@@IAEXXZ 1000bce0 f i common:IOBuffer.obj
 0001:0000ad60       ?opfx@?$basic_ostream@DU?$char_traits@D@std@@@std@@QAE_NXZ 1000bd60 f i common:IOBuffer.obj
 0001:0000ade0       ?good@ios_base@std@@QBE_NXZ 1000bde0 f i common:IOBuffer.obj
 0001:0000ae10       ?flush@?$basic_ostream@DU?$char_traits@D@std@@@std@@QAEAAV12@XZ 1000be10 f i common:IOBuffer.obj
 0001:0000aea0       ?fail@ios_base@std@@QBE_NXZ 1000bea0 f i common:IOBuffer.obj
 0001:0000aed0       ?pubsync@?$basic_streambuf@DU?$char_traits@D@std@@@std@@QAEHXZ 1000bed0 f i common:IOBuffer.obj
 0001:0000af10       ?osfx@?$basic_ostream@DU?$char_traits@D@std@@@std@@QAEXXZ 1000bf10 f i common:IOBuffer.obj
 0001:0000af50       ?flags@ios_base@std@@QBEHXZ 1000bf50 f i common:IOBuffer.obj
 0001:0000af70       ?tie@?$basic_ios@DU?$char_traits@D@std@@@std@@QBEPAV?$basic_ostream@DU?$char_traits@D@std@@@2@XZ 1000bf70 f i common:IOBuffer.obj
 0001:0000af90       ?setg@?$basic_streambuf@DU?$char_traits@D@std@@@std@@IAEXPAD00@Z 1000bf90 f i common:IOBuffer.obj
 0001:0000afd0       ?setp@?$basic_streambuf@DU?$char_traits@D@std@@@std@@IAEXPAD0@Z 1000bfd0 f i common:IOBuffer.obj
 0001:0000b010       ?_Pninc@?$basic_streambuf@DU?$char_traits@D@std@@@std@@IAEPADXZ 1000c010 f i common:IOBuffer.obj
 0001:0000b050       ?ToString@Win32@OnlineGameLib@@YA?AV?$basic_string@DU?$char_traits@D@std@@V?$allocator@D@2@@std@@I@Z 1000c050 f i common:IOBuffer.obj
 0001:0000b150       ?_Widen@std@@YADDPAD@Z     1000c150 f i common:IOBuffer.obj
 0001:0000b160       ?swap@std@@YAXAAW4_Redbl@?$_Tree@IU?$pair@$$CBIPAVCIOBuffer@Win32@OnlineGameLib@@@std@@U_Kfn@?$map@IPAVCIOBuffer@Win32@OnlineGameLib@@U?$less@I@std@@V?$allocator@PAVCIOBuffer@Win32@OnlineGameLib@@@5@@2@U?$less@I@2@V?$allocator@PAVCIOBuffer@Win32@OnlineGameLib@@@2@@1@0@Z 1000c160 f i common:IOBuffer.obj
 0001:0000b190       ?_Destroy@std@@YAXPAU?$pair@$$CBIPAVCIOBuffer@Win32@OnlineGameLib@@@1@@Z 1000c190 f i common:IOBuffer.obj
 0001:0000b1a0       ?_Construct@std@@YAXPAU?$pair@$$CBIPAVCIOBuffer@Win32@OnlineGameLib@@@1@ABU21@@Z 1000c1a0 f i common:IOBuffer.obj
 0001:0000b200       ??2@YAPAXIPAX@Z            1000c200 f i common:IOBuffer.obj
 0001:0000b210       ??6?$basic_ostream@DU?$char_traits@D@std@@@std@@QAEAAV01@P6AAAV01@AAV01@@Z@Z 1000c210 f i common:IOBuffer.obj
 0001:0000b250       ??6?$basic_ostream@DU?$char_traits@D@std@@@std@@QAEAAV01@I@Z 1000c250 f i common:IOBuffer.obj
 0001:0000b400       ?getloc@ios_base@std@@QBE?AVlocale@2@XZ 1000c400 f i common:IOBuffer.obj
 0001:0000b450       ??0locale@std@@QAE@ABV01@@Z 1000c450 f i common:IOBuffer.obj
 0001:0000b490       ??6?$basic_ostream@DU?$char_traits@D@std@@@std@@QAEAAV01@PBX@Z 1000c490 f i common:IOBuffer.obj
 0001:0000b640       ?fill@?$basic_ios@DU?$char_traits@D@std@@@std@@QBEDXZ 1000c640 f i common:IOBuffer.obj
 0001:0000b660       ?put@?$num_put@DV?$ostreambuf_iterator@DU?$char_traits@D@std@@@std@@@std@@QBE?AV?$ostreambuf_iterator@DU?$char_traits@D@std@@@2@V32@AAVios_base@2@DK@Z 1000c660 f i common:IOBuffer.obj
 0001:0000b6d0       ?put@?$num_put@DV?$ostreambuf_iterator@DU?$char_traits@D@std@@@std@@@std@@QBE?AV?$ostreambuf_iterator@DU?$char_traits@D@std@@@2@V32@AAVios_base@2@DPBX@Z 1000c6d0 f i common:IOBuffer.obj
 0001:0000b740       ??0?$ostreambuf_iterator@DU?$char_traits@D@std@@@std@@QAE@PAV?$basic_streambuf@DU?$char_traits@D@std@@@1@@Z 1000c740 f i common:IOBuffer.obj
 0001:0000b770       ?failed@?$ostreambuf_iterator@DU?$char_traits@D@std@@@std@@QBE_NXZ 1000c770 f i common:IOBuffer.obj
 0001:0000b790       ?use_facet@std@@YAABV?$num_put@DV?$ostreambuf_iterator@DU?$char_traits@D@std@@@std@@@1@ABVlocale@1@PBV21@_N@Z 1000c790 f i common:IOBuffer.obj
 0001:0000b8d0       ??0bad_cast@std@@QAE@PBD@Z 1000c8d0 f i common:IOBuffer.obj
 0001:0000b910       ??1bad_cast@std@@UAE@XZ    1000c910 f i common:IOBuffer.obj
 0001:0000b940       ?_Doraise@bad_cast@std@@MBEXXZ 1000c940 f i common:IOBuffer.obj
 0001:0000b990       ??_Gbad_cast@std@@UAEPAXI@Z 1000c990 f i common:IOBuffer.obj
 0001:0000b990       ??_Ebad_cast@std@@UAEPAXI@Z 1000c990 f i common:IOBuffer.obj
 0001:0000b9d0       ??0bad_cast@std@@QAE@ABV01@@Z 1000c9d0 f i common:IOBuffer.obj
 0001:0000ba10       ??Bid@locale@std@@QAEIXZ   1000ca10 f i common:IOBuffer.obj
 0001:0000ba80       ??0?$num_put@DV?$ostreambuf_iterator@DU?$char_traits@D@std@@@std@@@std@@QAE@I@Z 1000ca80 f i common:IOBuffer.obj
 0001:0000bb30       ??1facet@locale@std@@UAE@XZ 1000cb30 f i common:IOBuffer.obj
 0001:0000bb50       ??0facet@locale@std@@IAE@I@Z 1000cb50 f i common:IOBuffer.obj
 0001:0000bb80       ??_Gfacet@locale@std@@UAEPAXI@Z 1000cb80 f i common:IOBuffer.obj
 0001:0000bb80       ??_Efacet@locale@std@@UAEPAXI@Z 1000cb80 f i common:IOBuffer.obj
 0001:0000bbc0       ?do_put@?$num_put@DV?$ostreambuf_iterator@DU?$char_traits@D@std@@@std@@@std@@MBE?AV?$ostreambuf_iterator@DU?$char_traits@D@std@@@2@V32@AAVios_base@2@D_N@Z 1000cbc0 f i common:IOBuffer.obj
 0001:0000be20       ?width@ios_base@std@@QBEHXZ 1000ce20 f i common:IOBuffer.obj
 0001:0000be40       ?width@ios_base@std@@QAEHH@Z 1000ce40 f i common:IOBuffer.obj
 0001:0000be80       ?do_put@?$num_put@DV?$ostreambuf_iterator@DU?$char_traits@D@std@@@std@@@std@@MBE?AV?$ostreambuf_iterator@DU?$char_traits@D@std@@@2@V32@AAVios_base@2@DJ@Z 1000ce80 f i common:IOBuffer.obj
 0001:0000bf10       ?do_put@?$num_put@DV?$ostreambuf_iterator@DU?$char_traits@D@std@@@std@@@std@@MBE?AV?$ostreambuf_iterator@DU?$char_traits@D@std@@@2@V32@AAVios_base@2@DK@Z 1000cf10 f i common:IOBuffer.obj
 0001:0000bfa0       ?do_put@?$num_put@DV?$ostreambuf_iterator@DU?$char_traits@D@std@@@std@@@std@@MBE?AV?$ostreambuf_iterator@DU?$char_traits@D@std@@@2@V32@AAVios_base@2@DN@Z 1000cfa0 f i common:IOBuffer.obj
 0001:0000c090       ?precision@ios_base@std@@QBEHXZ 1000d090 f i common:IOBuffer.obj
 0001:0000c0b0       ?do_put@?$num_put@DV?$ostreambuf_iterator@DU?$char_traits@D@std@@@std@@@std@@MBE?AV?$ostreambuf_iterator@DU?$char_traits@D@std@@@2@V32@AAVios_base@2@DO@Z 1000d0b0 f i common:IOBuffer.obj
 0001:0000c1a0       ?do_put@?$num_put@DV?$ostreambuf_iterator@DU?$char_traits@D@std@@@std@@@std@@MBE?AV?$ostreambuf_iterator@DU?$char_traits@D@std@@@2@V32@AAVios_base@2@DPBX@Z 1000d1a0 f i common:IOBuffer.obj
 0001:0000c2d0       ??_E?$num_put@DV?$ostreambuf_iterator@DU?$char_traits@D@std@@@std@@@std@@UAEPAXI@Z 1000d2d0 f i common:IOBuffer.obj
 0001:0000c2d0       ??_G?$num_put@DV?$ostreambuf_iterator@DU?$char_traits@D@std@@@std@@@std@@UAEPAXI@Z 1000d2d0 f i common:IOBuffer.obj
 0001:0000c310       ??1?$num_put@DV?$ostreambuf_iterator@DU?$char_traits@D@std@@@std@@@std@@UAE@XZ 1000d310 f i common:IOBuffer.obj
 0001:0000c340       ?append@?$basic_string@DU?$char_traits@D@std@@V?$allocator@D@2@@std@@QAEAAV12@ID@Z 1000d340 f i common:IOBuffer.obj
 0001:0000c3d0       ?assign@?$char_traits@D@std@@SAPADPADIABD@Z 1000d3d0 f i common:IOBuffer.obj
 0001:0000c400       ?_Ffmt@?$num_put@DV?$ostreambuf_iterator@DU?$char_traits@D@std@@@std@@@std@@KAPADPADDH@Z 1000d400 f i common:IOBuffer.obj
 0001:0000c4f0       ?_Fput@?$num_put@DV?$ostreambuf_iterator@DU?$char_traits@D@std@@@std@@@std@@KA?AV?$ostreambuf_iterator@DU?$char_traits@D@std@@@2@V32@AAVios_base@2@DPBDII@Z 1000d4f0 f i common:IOBuffer.obj
 0001:0000c8c0       ?_Ifmt@?$num_put@DV?$ostreambuf_iterator@DU?$char_traits@D@std@@@std@@@std@@KAPADPADDH@Z 1000d8c0 f i common:IOBuffer.obj
 0001:0000c9a0       ?_Iput@?$num_put@DV?$ostreambuf_iterator@DU?$char_traits@D@std@@@std@@@std@@KA?AV?$ostreambuf_iterator@DU?$char_traits@D@std@@@2@V32@AAVios_base@2@DPADI@Z 1000d9a0 f i common:IOBuffer.obj
 0001:0000cda0       ?_Put@?$num_put@DV?$ostreambuf_iterator@DU?$char_traits@D@std@@@std@@@std@@KA?AV?$ostreambuf_iterator@DU?$char_traits@D@std@@@2@V32@PBDI@Z 1000dda0 f i common:IOBuffer.obj
 0001:0000ce00       ?_Putc@?$num_put@DV?$ostreambuf_iterator@DU?$char_traits@D@std@@@std@@@std@@KA?AV?$ostreambuf_iterator@DU?$char_traits@D@std@@@2@V32@PBDI@Z 1000de00 f i common:IOBuffer.obj
 0001:0000ce70       ?_Rep@?$num_put@DV?$ostreambuf_iterator@DU?$char_traits@D@std@@@std@@@std@@KA?AV?$ostreambuf_iterator@DU?$char_traits@D@std@@@2@V32@DI@Z 1000de70 f i common:IOBuffer.obj
 0001:0000cec0       ?falsename@?$numpunct@D@std@@QBE?AV?$basic_string@DU?$char_traits@D@std@@V?$allocator@D@2@@2@XZ 1000dec0 f i common:IOBuffer.obj
 0001:0000cf20       ?truename@?$numpunct@D@std@@QBE?AV?$basic_string@DU?$char_traits@D@std@@V?$allocator@D@2@@2@XZ 1000df20 f i common:IOBuffer.obj
 0001:0000cf80       ??4?$ostreambuf_iterator@DU?$char_traits@D@std@@@std@@QAEAAV01@D@Z 1000df80 f i common:IOBuffer.obj
 0001:0000d000       ??D?$ostreambuf_iterator@DU?$char_traits@D@std@@@std@@QAEAAV01@XZ 1000e000 f i common:IOBuffer.obj
 0001:0000d020       ??E?$ostreambuf_iterator@DU?$char_traits@D@std@@@std@@QAEAAV01@XZ 1000e020 f i common:IOBuffer.obj
 0001:0000d040       ?decimal_point@?$numpunct@D@std@@QBEDXZ 1000e040 f i common:IOBuffer.obj
 0001:0000d080       ?thousands_sep@?$numpunct@D@std@@QBEDXZ 1000e080 f i common:IOBuffer.obj
 0001:0000d0c0       ?grouping@?$numpunct@D@std@@QBE?AV?$basic_string@DU?$char_traits@D@std@@V?$allocator@D@2@@2@XZ 1000e0c0 f i common:IOBuffer.obj
 0001:0000d120       ?use_facet@std@@YAABV?$numpunct@D@1@ABVlocale@1@PBV21@_N@Z 1000e120 f i common:IOBuffer.obj
 0001:0000d260       ??0?$numpunct@D@std@@QAE@I@Z 1000e260 f i common:IOBuffer.obj
 0001:0000d310       ?do_decimal_point@?$numpunct@D@std@@MBEDXZ 1000e310 f i common:IOBuffer.obj
 0001:0000d330       ?do_thousands_sep@?$numpunct@D@std@@MBEDXZ 1000e330 f i common:IOBuffer.obj
 0001:0000d350       ?do_grouping@?$numpunct@D@std@@MBE?AV?$basic_string@DU?$char_traits@D@std@@V?$allocator@D@2@@2@XZ 1000e350 f i common:IOBuffer.obj
 0001:0000d3b0       ?do_falsename@?$numpunct@D@std@@MBE?AV?$basic_string@DU?$char_traits@D@std@@V?$allocator@D@2@@2@XZ 1000e3b0 f i common:IOBuffer.obj
 0001:0000d410       ?do_truename@?$numpunct@D@std@@MBE?AV?$basic_string@DU?$char_traits@D@std@@V?$allocator@D@2@@2@XZ 1000e410 f i common:IOBuffer.obj
 0001:0000d470       ??_G?$numpunct@D@std@@UAEPAXI@Z 1000e470 f i common:IOBuffer.obj
 0001:0000d470       ??_E?$numpunct@D@std@@UAEPAXI@Z 1000e470 f i common:IOBuffer.obj
 0001:0000d4b0       ??1?$numpunct@D@std@@UAE@XZ 1000e4b0 f i common:IOBuffer.obj
 0001:0000d530       ?_Save@?$_Tidyfac@V?$num_put@DV?$ostreambuf_iterator@DU?$char_traits@D@std@@@std@@@std@@@std@@SAPAV?$num_put@DV?$ostreambuf_iterator@DU?$char_traits@D@std@@@std@@@2@PAV32@@Z 1000e530 f i common:IOBuffer.obj
 0001:0000d5c0       ?_Save@?$_Tidyfac@V?$numpunct@D@std@@@std@@SAPAV?$numpunct@D@2@PAV32@@Z 1000e5c0 f i common:IOBuffer.obj
 0001:0000d650       ?_Init@?$num_put@DV?$ostreambuf_iterator@DU?$char_traits@D@std@@@std@@@std@@IAEXABV_Locinfo@2@@Z 1000e650 f i common:IOBuffer.obj
 0001:0000d670       ?_Init@?$numpunct@D@std@@IAEXABV_Locinfo@2@@Z 1000e670 f i common:IOBuffer.obj
 0001:0000d720       ?_Getlconv@_Locinfo@std@@QBEPBUlconv@@XZ 1000e720 f i common:IOBuffer.obj
 0001:0000d750       ?_Getfalse@_Locinfo@std@@QBEPBDXZ 1000e750 f i common:IOBuffer.obj
 0001:0000d770       ?_Gettrue@_Locinfo@std@@QBEPBDXZ 1000e770 f i common:IOBuffer.obj
 0001:0000d790       ?_Tidy@?$_Tidyfac@V?$num_put@DV?$ostreambuf_iterator@DU?$char_traits@D@std@@@std@@@std@@@std@@SAXXZ 1000e790 f i common:IOBuffer.obj
 0001:0000d840       ?_Tidy@?$_Tidyfac@V?$numpunct@D@std@@@std@@SAXXZ 1000e840 f i common:IOBuffer.obj
 0001:0000d8f0       ?_Maklocstr@std@@YAPADPBDPAD@Z 1000e8f0 f i common:IOBuffer.obj
 0001:0000d980       ?id@?$num_put@DV?$ostreambuf_iterator@DU?$char_traits@D@std@@@$D 1000e980 f i common:IOBuffer.obj
 0001:0000d9b0       ?id@?$numpunct@D@std@@$D   1000e9b0 f i common:IOBuffer.obj
 0001:0000d9e0       ?id@?$numpunct@D@std@@$E   1000e9e0 f i common:IOBuffer.obj
 0001:0000d9f0       ?id@?$num_put@DV?$ostreambuf_iterator@DU?$char_traits@D@std@@@$E 1000e9f0 f i common:IOBuffer.obj
 0001:0000dbdf       ?SetLogFileName@Win32@OnlineGameLib@@YAXABV?$basic_string@DU?$char_traits@D@std@@V?$allocator@D@2@@std@@@Z 1000ebdf f   common:Utils.obj
 0001:0000dc59       ?Message@Win32@OnlineGameLib@@YAXQBD@Z 1000ec59 f   common:Utils.obj
 0001:0000dc9a       ?Output@Win32@OnlineGameLib@@YAXABV?$basic_string@DU?$char_traits@D@std@@V?$allocator@D@2@@std@@@Z 1000ec9a f   common:Utils.obj
 0001:0000dce9       ?Trace@Win32@OnlineGameLib@@YAXABV?$basic_string@DU?$char_traits@D@std@@V?$allocator@D@2@@std@@0@Z 1000ece9 f   common:Utils.obj
 0001:0000de79       ?GetLastErrorMessage@Win32@OnlineGameLib@@YA?AV?$basic_string@DU?$char_traits@D@std@@V?$allocator@D@2@@std@@K@Z 1000ee79 f   common:Utils.obj
 0001:0000df37       ?HexToString@Win32@OnlineGameLib@@YA?AV?$basic_string@DU?$char_traits@D@std@@V?$allocator@D@2@@std@@PBEI@Z 1000ef37 f   common:Utils.obj
 0001:0000e07d       ?StringToHex@Win32@OnlineGameLib@@YAXABV?$basic_string@DU?$char_traits@D@std@@V?$allocator@D@2@@std@@PAEI@Z 1000f07d f   common:Utils.obj
 0001:0000e1fc       ?HexStringToDWORD@Win32@OnlineGameLib@@YAKPBD@Z 1000f1fc f   common:Utils.obj
 0001:0000e2e7       ?HashStr2ID@Win32@OnlineGameLib@@YAKQBD@Z 1000f2e7 f   common:Utils.obj
 0001:0000e360       ?net_aton@Win32@OnlineGameLib@@YAKPBD@Z 1000f360 f   common:Utils.obj
 0001:0000e466       ?net_ntoa@Win32@OnlineGameLib@@YAPBDK@Z 1000f466 f   common:Utils.obj
 0001:0000e4d3       ?GetCurrentDirectoryA@Win32@OnlineGameLib@@YA?AV?$basic_string@DU?$char_traits@D@std@@V?$allocator@D@2@@std@@XZ 1000f4d3 f   common:Utils.obj
 0001:0000e5ec       ?GetAppFullPath@Win32@OnlineGameLib@@YA?AV?$basic_string@DU?$char_traits@D@std@@V?$allocator@D@2@@std@@PAUHINSTANCE__@@@Z 1000f5ec f   common:Utils.obj
 0001:0000e739       ?GetDateStamp@Win32@OnlineGameLib@@YA?AV?$basic_string@DU?$char_traits@D@std@@V?$allocator@D@2@@std@@XZ 1000f739 f   common:Utils.obj
 0001:0000e7d8       ?GetTimeStamp@Win32@OnlineGameLib@@YA?AV?$basic_string@DU?$char_traits@D@std@@V?$allocator@D@2@@std@@XZ 1000f7d8 f   common:Utils.obj
 0001:0000e86b       ?ToHex@Win32@OnlineGameLib@@YA?AV?$basic_string@DU?$char_traits@D@std@@V?$allocator@D@2@@std@@E@Z 1000f86b f   common:Utils.obj
 0001:0000e8d3       ?DumpData@Win32@OnlineGameLib@@YA?AV?$basic_string@DU?$char_traits@D@std@@V?$allocator@D@2@@std@@QBEII@Z 1000f8d3 f   common:Utils.obj
 0001:0000ebf4       ?GetComputerNameA@Win32@OnlineGameLib@@YA?AV?$basic_string@DU?$char_traits@D@std@@V?$allocator@D@2@@std@@XZ 1000fbf4 f   common:Utils.obj
 0001:0000ecd9       ?GetModuleFileNameA@Win32@OnlineGameLib@@YA?AV?$basic_string@DU?$char_traits@D@std@@V?$allocator@D@2@@std@@PAUHINSTANCE__@@@Z 1000fcd9 f   common:Utils.obj
 0001:0000edd4       ?GetUserNameA@Win32@OnlineGameLib@@YA?AV?$basic_string@DU?$char_traits@D@std@@V?$allocator@D@2@@std@@XZ 1000fdd4 f   common:Utils.obj
 0001:0000eed1       ?StripLeading@Win32@OnlineGameLib@@YA?AV?$basic_string@DU?$char_traits@D@std@@V?$allocator@D@2@@std@@ABV34@D@Z 1000fed1 f   common:Utils.obj
 0001:0000ef46       ?StripTrailing@Win32@OnlineGameLib@@YA?AV?$basic_string@DU?$char_traits@D@std@@V?$allocator@D@2@@std@@ABV34@D@Z 1000ff46 f   common:Utils.obj
 0001:0000efde       ?GetFileVersion@Win32@OnlineGameLib@@YA?AV?$basic_string@DU?$char_traits@D@std@@V?$allocator@D@2@@std@@XZ 1000ffde f   common:Utils.obj
 0001:0000f27e       ?GetLocalName@Win32@OnlineGameLib@@YA_NPADI@Z 1001027e f   common:Utils.obj
 0001:0000f38d       ?GetLocalAddress@Win32@OnlineGameLib@@YA_NPADIH@Z 1001038d f   common:Utils.obj
 0001:0000f5b0       ??_D?$basic_fstream@DU?$char_traits@D@std@@@std@@QAEXXZ 100105b0 f i common:Utils.obj
 0001:0000f5f0       ?T2A@@YAPADPAD@Z           100105f0 f i common:Utils.obj
 0001:0000f600       ??Y?$basic_string@DU?$char_traits@D@std@@V?$allocator@D@2@@std@@QAEAAV01@D@Z 10010600 f i common:Utils.obj
 0001:0000f630       ??A?$basic_string@DU?$char_traits@D@std@@V?$allocator@D@2@@std@@QBEABDI@Z 10010630 f i common:Utils.obj
 0001:0000f670       ?length@?$basic_string@DU?$char_traits@D@std@@V?$allocator@D@2@@std@@QBEIXZ 10010670 f i common:Utils.obj
 0001:0000f690       ?substr@?$basic_string@DU?$char_traits@D@std@@V?$allocator@D@2@@std@@QBE?AV12@II@Z 10010690 f i common:Utils.obj
 0001:0000f6f0       ??0?$basic_fstream@DU?$char_traits@D@std@@@std@@QAE@XZ 100106f0 f i common:Utils.obj
 0001:0000f7c0       ??1?$basic_fstream@DU?$char_traits@D@std@@@std@@UAE@XZ 100107c0 f i common:Utils.obj
 0001:0000f840       ?is_open@?$basic_fstream@DU?$char_traits@D@std@@@std@@QBE_NXZ 10010840 f i common:Utils.obj
 0001:0000f870       ?close@?$basic_fstream@DU?$char_traits@D@std@@@std@@QAEXXZ 10010870 f i common:Utils.obj
 0001:0000f8c0       ??1?$basic_filebuf@DU?$char_traits@D@std@@@std@@UAE@XZ 100108c0 f i common:Utils.obj
 0001:0000f980       ?overflow@?$basic_filebuf@DU?$char_traits@D@std@@@std@@MAEHH@Z 10010980 f i common:Utils.obj
 0001:0000fbb0       ?not_eof@?$char_traits@D@std@@SAHABH@Z 10010bb0 f i common:Utils.obj
 0001:0000fbf0       ?_Fputc@std@@YA_NDPAU_iobuf@@@Z 10010bf0 f i common:Utils.obj
 0001:0000fc20       ?pbackfail@?$basic_filebuf@DU?$char_traits@D@std@@@std@@MAEHH@Z 10010c20 f i common:Utils.obj
 0001:0000fdc0       ?_Ungetc@std@@YA_NDPAU_iobuf@@@Z 10010dc0 f i common:Utils.obj
 0001:0000fdf0       ?underflow@?$basic_filebuf@DU?$char_traits@D@std@@@std@@MAEHXZ 10010df0 f i common:Utils.obj
 0001:0000fe70       ?uflow@?$basic_filebuf@DU?$char_traits@D@std@@@std@@MAEHXZ 10010e70 f i common:Utils.obj
 0001:00010030       ?_Fgetc@std@@YA_NAADPAU_iobuf@@@Z 10011030 f i common:Utils.obj
 0001:00010070       ?seekoff@?$basic_filebuf@DU?$char_traits@D@std@@@std@@MAE?AV?$fpos@H@2@JW4seekdir@ios_base@2@H@Z 10011070 f i common:Utils.obj
 0001:00010120       ?seekpos@?$basic_filebuf@DU?$char_traits@D@std@@@std@@MAE?AV?$fpos@H@2@V32@H@Z 10011120 f i common:Utils.obj
 0001:00010230       ?setbuf@?$basic_filebuf@DU?$char_traits@D@std@@@std@@MAEPAV?$basic_streambuf@DU?$char_traits@D@std@@@2@PADH@Z 10011230 f i common:Utils.obj
 0001:00010290       ?sync@?$basic_filebuf@DU?$char_traits@D@std@@@std@@MAEHXZ 10011290 f i common:Utils.obj
 0001:000102f0       ??0?$auto_ptr@D@std@@QAE@PAD@Z 100112f0 f i common:Utils.obj
 0001:00010320       ??1?$auto_ptr@D@std@@QAE@XZ 10011320 f i common:Utils.obj
 0001:00010370       ?get@?$auto_ptr@D@std@@QBEPADXZ 10011370 f i common:Utils.obj
 0001:00010390       ??0?$auto_ptr@E@std@@QAE@PAE@Z 10011390 f i common:Utils.obj
 0001:000103c0       ??1?$auto_ptr@E@std@@QAE@XZ 100113c0 f i common:Utils.obj
 0001:00010410       ?get@?$auto_ptr@E@std@@QBEPAEXZ 10011410 f i common:Utils.obj
 0001:00010430       ??_G?$basic_fstream@DU?$char_traits@D@std@@@std@@UAEPAXI@Z 10011430 f i common:Utils.obj
 0001:00010430       ??_E?$basic_fstream@DU?$char_traits@D@std@@@std@@UAEPAXI@Z 10011430 f i common:Utils.obj
 0001:00010480       ??_G?$basic_filebuf@DU?$char_traits@D@std@@@std@@UAEPAXI@Z 10011480 f i common:Utils.obj
 0001:00010480       ??_E?$basic_filebuf@DU?$char_traits@D@std@@@std@@UAEPAXI@Z 10011480 f i common:Utils.obj
 0001:000104c0       ??_G?$basic_string@DU?$char_traits@D@std@@V?$allocator@D@2@@std@@QAEPAXI@Z 100114c0 f i common:Utils.obj
 0001:00010500       ??0?$basic_string@DU?$char_traits@D@std@@V?$allocator@D@2@@std@@QAE@ABV01@IIABV?$allocator@D@1@@Z 10011500 f i common:Utils.obj
 0001:00010550       ?begin@?$basic_string@DU?$char_traits@D@std@@V?$allocator@D@2@@std@@QAEPADXZ 10011550 f i common:Utils.obj
 0001:00010580       ?end@?$basic_string@DU?$char_traits@D@std@@V?$allocator@D@2@@std@@QAEPADXZ 10011580 f i common:Utils.obj
 0001:000105c0       ??0?$fpos@H@std@@QAE@H_J@Z 100115c0 f i common:Utils.obj
 0001:00010600       ?state@?$fpos@H@std@@QBEHXZ 10011600 f i common:Utils.obj
 0001:00010620       ?get_fpos_t@?$fpos@H@std@@QBE_JXZ 10011620 f i common:Utils.obj
 0001:00010640       ??B?$fpos@H@std@@QBEJXZ    10011640 f i common:Utils.obj
 0001:00010660       ?eback@?$basic_streambuf@DU?$char_traits@D@std@@@std@@IBEPADXZ 10011660 f i common:Utils.obj
 0001:00010680       ?_Gndec@?$basic_streambuf@DU?$char_traits@D@std@@@std@@IAEPADXZ 10011680 f i common:Utils.obj
 0001:000106c0       ??0?$basic_filebuf@DU?$char_traits@D@std@@@std@@QAE@PAU_iobuf@@@Z 100116c0 f i common:Utils.obj
 0001:00010740       ?is_open@?$basic_filebuf@DU?$char_traits@D@std@@@std@@QBE_NXZ 10011740 f i common:Utils.obj
 0001:00010760       ?close@?$basic_filebuf@DU?$char_traits@D@std@@@std@@QAEPAV12@XZ 10011760 f i common:Utils.obj
 0001:000107b0       ?in@?$codecvt@DDH@std@@QBEHAAHPBD1AAPBDPAD3AAPAD@Z 100117b0 f i common:Utils.obj
 0001:00010800       ?out@?$codecvt@DDH@std@@QBEHAAHPBD1AAPBDPAD3AAPAD@Z 10011800 f i common:Utils.obj
 0001:00010850       ?_Freeze@?$basic_string@DU?$char_traits@D@std@@V?$allocator@D@2@@std@@AAEXXZ 10011850 f i common:Utils.obj
 0001:000108e0       ?_Psum@?$basic_string@DU?$char_traits@D@std@@V?$allocator@D@2@@std@@CAPADPADI@Z 100118e0 f i common:Utils.obj
 0001:00010910       ?_Init@?$basic_filebuf@DU?$char_traits@D@std@@@std@@IAEXPAU_iobuf@@W4_Initfl@12@@Z 10011910 f i common:Utils.obj
 0001:00010a10       ?_Init@?$basic_streambuf@DU?$char_traits@D@std@@@std@@IAEXPAPAD0PAH001@Z 10011a10 f i common:Utils.obj
 0001:00010a60       ?ToString@Win32@OnlineGameLib@@YA?AV?$basic_string@DU?$char_traits@D@std@@V?$allocator@D@2@@std@@K@Z 10011a60 f i common:Utils.obj
 0001:00010b60       ?_Ungetc@std@@YA_NABDPAU_iobuf@@I@Z 10011b60 f i common:Utils.obj
 0001:00010bf0       ??6?$basic_ostream@DU?$char_traits@D@std@@@std@@QAEAAV01@K@Z 10011bf0 f i common:Utils.obj
 0001:00010da0       ??0CThread@Win32@OnlineGameLib@@QAE@XZ 10011da0 f   common:Thread.obj
 0001:00010dc8       ??1CThread@Win32@OnlineGameLib@@UAE@XZ 10011dc8 f   common:Thread.obj
 0001:00010e62       ?GetHandle@CThread@Win32@OnlineGameLib@@QBEPAXXZ 10011e62 f   common:Thread.obj
 0001:00010e7a       ?Start@CThread@Win32@OnlineGameLib@@QAEXXZ 10011e7a f   common:Thread.obj
 0001:00010fb2       ?Wait@CThread@Win32@OnlineGameLib@@QBEXXZ 10011fb2 f   common:Thread.obj
 0001:00011059       ?Wait@CThread@Win32@OnlineGameLib@@QBE_NK@Z 10012059 f   common:Thread.obj
 0001:00011130       ?ThreadFunction@CThread@Win32@OnlineGameLib@@CGIPAX@Z 10012130 f   common:Thread.obj
 0001:000111da       ?Terminate@CThread@Win32@OnlineGameLib@@QAEXK@Z 100121da f   common:Thread.obj
 0001:000112d0       ??_GCThread@Win32@OnlineGameLib@@UAEPAXI@Z 100122d0 f i common:Thread.obj
 0001:000112d0       ??_ECThread@Win32@OnlineGameLib@@UAEPAXI@Z 100122d0 f i common:Thread.obj
 0001:00011310       ?KSG_DecodeEncode@@YAHIPAEPAI@Z 10012310 f   common:KSG_EncodeDecode.obj
 0001:000113d3       ?KSG_DecodeEncode_ASM@@YAHIPAEPAI@Z 100123d3 f   common:KSG_EncodeDecode.obj
 0001:00011430       ??0CEventSelect@Win32@OnlineGameLib@@QAE@XZ 10012430 f   common:EventSelect.obj
 0001:00011475       ??1CEventSelect@Win32@OnlineGameLib@@QAE@XZ 10012475 f   common:EventSelect.obj
 0001:000114b9       ?AssociateEvent@CEventSelect@Win32@OnlineGameLib@@QAEXIJ@Z 100124b9 f   common:EventSelect.obj
 0001:000115dd       ?DissociateEvent@CEventSelect@Win32@OnlineGameLib@@QAEXXZ 100125dd f   common:EventSelect.obj
 0001:00011650       ??0CUsesWinsock@Win32@OnlineGameLib@@QAE@XZ 10012650 f   common:UsesWinsock.obj
 0001:00011702       ??1CUsesWinsock@Win32@OnlineGameLib@@QAE@XZ 10012702 f   common:UsesWinsock.obj
 0001:00011760       ??0CManualResetEvent@Win32@OnlineGameLib@@QAE@_N@Z 10012760 f   common:ManualResetEvent.obj
 0001:0001179a       ??0CManualResetEvent@Win32@OnlineGameLib@@QAE@PBD_N@Z 1001279a f   common:ManualResetEvent.obj
 0001:000117e0       ??_GCManualResetEvent@Win32@OnlineGameLib@@UAEPAXI@Z 100127e0 f i common:ManualResetEvent.obj
 0001:000117e0       ??_ECManualResetEvent@Win32@OnlineGameLib@@UAEPAXI@Z 100127e0 f i common:ManualResetEvent.obj
 0001:00011820       ??0CEvent@Win32@OnlineGameLib@@QAE@PAU_SECURITY_ATTRIBUTES@@_N1@Z 10012820 f   common:Event.obj
 0001:00011925       ??0CEvent@Win32@OnlineGameLib@@QAE@PAU_SECURITY_ATTRIBUTES@@_N1PBD@Z 10012925 f   common:Event.obj
 0001:0001196d       ??1CEvent@Win32@OnlineGameLib@@UAE@XZ 1001296d f   common:Event.obj
 0001:000119aa       ?Wait@CEvent@Win32@OnlineGameLib@@QBEXXZ 100129aa f   common:Event.obj
 0001:00011a51       ?Wait@CEvent@Win32@OnlineGameLib@@QBE_NK@Z 10012a51 f   common:Event.obj
 0001:00011b1b       ?Reset@CEvent@Win32@OnlineGameLib@@QAEXXZ 10012b1b f   common:Event.obj
 0001:00011bc2       ?Set@CEvent@Win32@OnlineGameLib@@QAEXXZ 10012bc2 f   common:Event.obj
 0001:00011c69       ?Pulse@CEvent@Win32@OnlineGameLib@@QAEXXZ 10012c69 f   common:Event.obj
 0001:00011d40       ??_ECEvent@Win32@OnlineGameLib@@UAEPAXI@Z 10012d40 f i common:Event.obj
 0001:00011d40       ??_GCEvent@Win32@OnlineGameLib@@UAEPAXI@Z 10012d40 f i common:Event.obj
 0001:00011d80       ?_trace@@YAXPADZZ          10012d80 f   common:Macro.obj
 0001:00011e60       ??0CSocket@Win32@OnlineGameLib@@QAE@XZ 10012e60 f   common:Socket.obj
 0001:00011e7e       ??0CSocket@Win32@OnlineGameLib@@QAE@I@Z 10012e7e f   common:Socket.obj
 0001:00011f13       ??1CSocket@Win32@OnlineGameLib@@QAE@XZ 10012f13 f   common:Socket.obj
 0001:00011f8b       ?Attach@CSocket@Win32@OnlineGameLib@@QAEXI@Z 10012f8b f   common:Socket.obj
 0001:00011fb9       ?Detatch@CSocket@Win32@OnlineGameLib@@QAEIXZ 10012fb9 f   common:Socket.obj
 0001:00011fe8       ?Close@CSocket@Win32@OnlineGameLib@@QAEXXZ 10012fe8 f   common:Socket.obj
 0001:0001208e       ?AbortiveClose@CSocket@Win32@OnlineGameLib@@QAEXXZ 1001308e f   common:Socket.obj
 0001:00012159       ?Shutdown@CSocket@Win32@OnlineGameLib@@QAEXH@Z 10013159 f   common:Socket.obj
 0001:00012205       ?Listen@CSocket@Win32@OnlineGameLib@@QAEXH@Z 10013205 f   common:Socket.obj
 0001:000122b2       ?Bind@CSocket@Win32@OnlineGameLib@@QAEXABUsockaddr_in@@@Z 100132b2 f   common:Socket.obj
 0001:00012361       ?Bind@CSocket@Win32@OnlineGameLib@@QAEXABUsockaddr@@I@Z 10013361 f   common:Socket.obj
 0001:00012412       ?Connect@CSocket@Win32@OnlineGameLib@@QAEXABUsockaddr_in@@@Z 10013412 f   common:Socket.obj
 0001:000124c1       ?Connect@CSocket@Win32@OnlineGameLib@@QAEXABUsockaddr@@I@Z 100134c1 f   common:Socket.obj
 0001:00012572       ??0InternetAddress@CSocket@Win32@OnlineGameLib@@QAE@KG@Z 10013572 f   common:Socket.obj
 0001:000125d1       ??0InternetAddress@CSocket@Win32@OnlineGameLib@@QAE@ABV?$basic_string@DU?$char_traits@D@std@@V?$allocator@D@2@@std@@G@Z 100135d1 f   common:Socket.obj
 0001:00012635       ??0Exception@CSocket@Win32@OnlineGameLib@@AAE@ABV?$basic_string@DU?$char_traits@D@std@@V?$allocator@D@2@@std@@K@Z 10013635 f   common:Socket.obj
 0001:000126a0       ??1Exception@CSocket@Win32@OnlineGameLib@@UAE@XZ 100136a0 f i common:Socket.obj
 0001:000126d0       ??0Exception@CSocket@Win32@OnlineGameLib@@QAE@ABV0123@@Z 100136d0 f i common:Socket.obj
 0001:00012710       ??_EException@CSocket@Win32@OnlineGameLib@@UAEPAXI@Z 10013710 f i common:Socket.obj
 0001:00012710       ??_GException@CSocket@Win32@OnlineGameLib@@UAEPAXI@Z 10013710 f i common:Socket.obj
 0001:00012750       ??0CWin32Exception@Win32@OnlineGameLib@@QAE@ABV?$basic_string@DU?$char_traits@D@std@@V?$allocator@D@2@@std@@K@Z 10013750 f   common:Win32Exception.obj
 0001:00012830       ??0CException@Win32@OnlineGameLib@@QAE@ABV?$basic_string@DU?$char_traits@D@std@@V?$allocator@D@2@@std@@0@Z 10013830 f   common:Exception.obj
 0001:000128a5       ?GetWhere@CException@Win32@OnlineGameLib@@UBE?AV?$basic_string@DU?$char_traits@D@std@@V?$allocator@D@2@@std@@XZ 100138a5 f   common:Exception.obj
 0001:000128ee       ?GetMessageA@CException@Win32@OnlineGameLib@@UBE?AV?$basic_string@DU?$char_traits@D@std@@V?$allocator@D@2@@std@@XZ 100138ee f   common:Exception.obj
 0001:00012937       ?MessageBoxA@CException@Win32@OnlineGameLib@@QBEXPAUHWND__@@@Z 10013937 f   common:Exception.obj
 0001:00012a50       ??0CNodeList@OnlineGameLib@@QAE@XZ 10013a50 f   common:NodeList.obj
 0001:00012a78       ?PushNode@CNodeList@OnlineGameLib@@QAEXPAVNode@12@@Z 10013a78 f   common:NodeList.obj
 0001:00012ad4       ?PopNode@CNodeList@OnlineGameLib@@QAEPAVNode@12@XZ 10013ad4 f   common:NodeList.obj
 0001:00012b16       ?RemoveNode@CNodeList@OnlineGameLib@@AAEXPAVNode@12@@Z 10013b16 f   common:NodeList.obj
 0001:00012b6f       ??0Node@CNodeList@OnlineGameLib@@IAE@XZ 10013b6f f   common:NodeList.obj
 0001:00012ba1       ??1Node@CNodeList@OnlineGameLib@@IAE@XZ 10013ba1 f   common:NodeList.obj
 0001:00012c2e       ?AddToList@Node@CNodeList@OnlineGameLib@@QAEXPAV23@@Z 10013c2e f   common:NodeList.obj
 0001:00012c4b       ?RemoveFromList@Node@CNodeList@OnlineGameLib@@QAEXXZ 10013c4b f   common:NodeList.obj
 0001:00012c7f       ?Unlink@Node@CNodeList@OnlineGameLib@@AAEXXZ 10013c7f f   common:NodeList.obj
 0001:00012ce0       ?Next@Node@CNodeList@OnlineGameLib@@QAEXPAV123@@Z 10013ce0 f i common:NodeList.obj
 0001:00012d10       ?Next@Node@CNodeList@OnlineGameLib@@QBEPAV123@XZ 10013d10 f i common:NodeList.obj
 0001:00012d30       ??2@YAPAXI@Z               10013d30 f   LIBCMTD:new.obj
 0001:00012d50       __chkesp                   10013d50 f   LIBCMTD:chkesp.obj
 0001:00012d90       _time                      10013d90 f   LIBCMTD:time.obj
 0001:00012f20       ?_JumpToContinuation@@YGXPAXPAUEHRegistrationNode@@@Z 10013f20 f   LIBCMTD:trnsctrl.obj
 0001:00012f60       ?_CallMemberFunction0@@YGXPAX0@Z 10013f60 f   LIBCMTD:trnsctrl.obj
 0001:00012f70       ?_CallMemberFunction1@@YGXPAX00@Z 10013f70 f   LIBCMTD:trnsctrl.obj
 0001:00012f80       ?_CallMemberFunction2@@YGXPAX00H@Z 10013f80 f   LIBCMTD:trnsctrl.obj
 0001:00012f90       ?_UnwindNestedFrames@@YGXPAUEHRegistrationNode@@PAUEHExceptionRecord@@@Z 10013f90 f   LIBCMTD:trnsctrl.obj
 0001:00012ff0       ___CxxFrameHandler         10013ff0 f   LIBCMTD:trnsctrl.obj
 0001:00013030       ___CxxLongjmpUnwind@4      10014030 f   LIBCMTD:trnsctrl.obj
 0001:00013060       ?_CallCatchBlock2@@YAPAXPAUEHRegistrationNode@@PBU_s_FuncInfo@@PAXHK@Z 10014060 f   LIBCMTD:trnsctrl.obj
 0001:00013110       ?_CallSETranslator@@YAHPAUEHExceptionRecord@@PAUEHRegistrationNode@@PAX2PBU_s_FuncInfo@@H1@Z 10014110 f   LIBCMTD:trnsctrl.obj
 0001:00013270       ?_GetRangeOfTrysToCheck@@YAPBU_s_TryBlockMapEntry@@PBU_s_FuncInfo@@HHPAI1@Z 10014270 f   LIBCMTD:trnsctrl.obj
 0001:00013300       __global_unwind2           10014300 f   LIBCMTD:exsup.obj
 0001:00013342       __local_unwind2            10014342 f   LIBCMTD:exsup.obj
 0001:0001339a       __NLG_Return2              1001439a f   LIBCMTD:exsup.obj
 0001:000133aa       __abnormal_termination     100143aa f   LIBCMTD:exsup.obj
 0001:000133cd       __NLG_Notify1              100143cd f   LIBCMTD:exsup.obj
 0001:000133d6       __NLG_Notify               100143d6 f   LIBCMTD:exsup.obj
 0001:000133e9       __NLG_Dispatch             100143e9 f   LIBCMTD:exsup.obj
 0001:000133f0       ??3@YAXPAX@Z               100143f0 f   LIBCMTD:dbgdel.obj
 0001:000134a0       __purecall                 100144a0 f   LIBCMTD:purevirt.obj
 0001:000134b0       ??1type_info@@UAE@XZ       100144b0 f   LIBCMTD:typinfo.obj
 0001:000134f0       ??_Etype_info@@UAEPAXI@Z   100144f0 f i LIBCMTD:typinfo.obj
 0001:000134f0       ??_Gtype_info@@UAEPAXI@Z   100144f0 f i LIBCMTD:typinfo.obj
 0001:00013520       ??8type_info@@QBEHABV0@@Z  10014520 f   LIBCMTD:typinfo.obj
 0001:00013550       ??9type_info@@QBEHABV0@@Z  10014550 f   LIBCMTD:typinfo.obj
 0001:00013580       ?before@type_info@@QBEHABV1@@Z 10014580 f   LIBCMTD:typinfo.obj
 0001:000135b0       ?raw_name@type_info@@QBEPBDXZ 100145b0 f   LIBCMTD:typinfo.obj
 0001:000135d0       ??0type_info@@AAE@ABV0@@Z  100145d0 f   LIBCMTD:typinfo.obj
 0001:000135f0       ??4type_info@@AAEAAV0@ABV0@@Z 100145f0 f   LIBCMTD:typinfo.obj
 0001:00013600       __CrtDbgBreak              10014600 f   LIBCMTD:dbgrpt.obj
 0001:00013610       __CrtSetReportMode         10014610 f   LIBCMTD:dbgrpt.obj
 0001:00013670       __CrtSetReportFile         10014670 f   LIBCMTD:dbgrpt.obj
 0001:000136f0       __CrtSetReportHook         100146f0 f   LIBCMTD:dbgrpt.obj
 0001:00013710       __CrtDbgReport             10014710 f   LIBCMTD:dbgrpt.obj
 0001:00013db0       _strlen                    10014db0 f   LIBCMTD:strlen.obj
 0001:00013e30       _memcpy                    10014e30 f   LIBCMTD:memcpy.obj
 0001:00014170       _memcmp                    10015170 f   LIBCMTD:memcmp.obj
 0001:00014220       _memmove                   10015220 f   LIBCMTD:memmove.obj
 0001:00014560       __onexit                   10015560 f   LIBCMTD:onexit.obj
 0001:00014620       _atexit                    10015620 f   LIBCMTD:onexit.obj
 0001:00014640       ___onexitinit              10015640 f   LIBCMTD:onexit.obj
 0001:00014690       __CRT_INIT@12              10015690 f   LIBCMTD:dllcrt0.obj
 0001:000147d0       __DllMainCRTStartup@12     100157d0 f   LIBCMTD:dllcrt0.obj
 0001:000148d0       __amsg_exit                100158d0 f   LIBCMTD:dllcrt0.obj
 0001:00014910       __CxxThrowException@8      10015910 f   LIBCMTD:throw.obj
 0001:00014960       _memset                    10015960 f   LIBCMTD:memset.obj
 0001:000149c0       ??0exception@@QAE@XZ       100159c0 f   LIBCMTD:stdexcpt.obj
 0001:000149f0       ??_Gexception@@UAEPAXI@Z   100159f0 f i LIBCMTD:stdexcpt.obj
 0001:000149f0       ??_Eexception@@UAEPAXI@Z   100159f0 f i LIBCMTD:stdexcpt.obj
 0001:00014a20       ??0exception@@QAE@ABQBD@Z  10015a20 f   LIBCMTD:stdexcpt.obj
 0001:00014a90       ??0exception@@QAE@ABV0@@Z  10015a90 f   LIBCMTD:stdexcpt.obj
 0001:00014b20       ??4exception@@QAEAAV0@ABV0@@Z 10015b20 f   LIBCMTD:stdexcpt.obj
 0001:00014b50       ??1exception@@UAE@XZ       10015b50 f   LIBCMTD:stdexcpt.obj
 0001:00014b90       ?what@exception@@UBEPBDXZ  10015b90 f   LIBCMTD:stdexcpt.obj
 0001:00014bc0       _sprintf                   10015bc0 f   LIBCMTD:sprintf.obj
 0001:00014cc0       __fpmath                   10015cc0 f   LIBCMTD:fpinit.obj
 0001:00014cf0       __fpclear                  10015cf0 f   LIBCMTD:fpinit.obj
 0001:00014d00       __cfltcvt_init             10015d00 f   LIBCMTD:fpinit.obj
 0001:00014d50       ___setfflag                10015d50 f   LIBCMTD:fpinit.obj
 0001:00014d70       _memchr                    10015d70 f   LIBCMTD:memchr.obj
 0001:00014e20       _localeconv                10015e20 f   LIBCMTD:lconv.obj
 0001:00014e30       _strcspn                   10015e30 f   LIBCMTD:strcspn.obj
 0001:00014e70       __toupper                  10015e70 f   LIBCMTD:toupper.obj
 0001:00014e80       _toupper                   10015e80 f   LIBCMTD:toupper.obj
 0001:00014f20       __toupper_lk               10015f20 f   LIBCMTD:toupper.obj
 0001:00015050       _isalpha                   10016050 f   LIBCMTD:_ctype.obj
 0001:000150a0       _isupper                   100160a0 f   LIBCMTD:_ctype.obj
 0001:000150e0       _islower                   100160e0 f   LIBCMTD:_ctype.obj
 0001:00015120       _isdigit                   10016120 f   LIBCMTD:_ctype.obj
 0001:00015160       _isxdigit                  10016160 f   LIBCMTD:_ctype.obj
 0001:000151b0       _isspace                   100161b0 f   LIBCMTD:_ctype.obj
 0001:000151f0       _ispunct                   100161f0 f   LIBCMTD:_ctype.obj
 0001:00015230       _isalnum                   10016230 f   LIBCMTD:_ctype.obj
 0001:00015280       _isprint                   10016280 f   LIBCMTD:_ctype.obj
 0001:000152d0       _isgraph                   100162d0 f   LIBCMTD:_ctype.obj
 0001:00015320       _iscntrl                   10016320 f   LIBCMTD:_ctype.obj
 0001:00015360       ___isascii                 10016360 f   LIBCMTD:_ctype.obj
 0001:00015370       ___toascii                 10016370 f   LIBCMTD:_ctype.obj
 0001:00015380       ___iscsymf                 10016380 f   LIBCMTD:_ctype.obj
 0001:000153e0       ___iscsym                  100163e0 f   LIBCMTD:_ctype.obj
 0001:00015440       _atol                      10016440 f   LIBCMTD:atox.obj
 0001:00015540       _atoi                      10016540 f   LIBCMTD:atox.obj
 0001:00015560       __atoi64                   10016560 f   LIBCMTD:atox.obj
 0001:00015690       _strtok                    10016690 f   LIBCMTD:strtok.obj
 0001:000157e0       _strcpy                    100167e0 f   LIBCMTD:strcat.obj
 0001:000157f0       _strcat                    100167f0 f   LIBCMTD:strcat.obj
 0001:000158d0       _fwrite                    100168d0 f   LIBCMTD:fwrite.obj
 0001:00015910       __fwrite_lk                10016910 f   LIBCMTD:fwrite.obj
 0001:00015b30       _fputc                     10016b30 f   LIBCMTD:fputc.obj
 0001:00015bf0       _putc                      10016bf0 f   LIBCMTD:fputc.obj
 0001:00015c10       _ungetc                    10016c10 f   LIBCMTD:ungetc.obj
 0001:00015c80       __ungetc_lk                10016c80 f   LIBCMTD:ungetc.obj
 0001:00015dc0       _fgetc                     10016dc0 f   LIBCMTD:fgetc.obj
 0001:00015e70       _getc                      10016e70 f   LIBCMTD:fgetc.obj
 0001:00015e90       _fgetpos                   10016e90 f   LIBCMTD:fgetpos.obj
 0001:00015ed0       _fseek                     10016ed0 f   LIBCMTD:fseek.obj
 0001:00015f40       __fseek_lk                 10016f40 f   LIBCMTD:fseek.obj
 0001:00016070       _fsetpos                   10017070 f   LIBCMTD:fsetpos.obj
 0001:00016090       _setvbuf                   10017090 f   LIBCMTD:setvbuf.obj
 0001:00016200       _fflush                    10017200 f   LIBCMTD:fflush.obj
 0001:00016250       __fflush_lk                10017250 f   LIBCMTD:fflush.obj
 0001:000162a0       __flush                    100172a0 f   LIBCMTD:fflush.obj
 0001:00016360       __flushall                 10017360 f   LIBCMTD:fflush.obj
 0001:000164b0       _fclose                    100174b0 f   LIBCMTD:fclose.obj
 0001:00016540       __fclose_lk                10017540 f   LIBCMTD:fclose.obj
 0001:00016600       __beginthreadex            10017600 f   LIBCMTD:threadex.obj
 0001:00016790       __endthreadex              10017790 f   LIBCMTD:threadex.obj
 0001:000167e0       _vsprintf                  100177e0 f   LIBCMTD:vsprintf.obj
 0001:000168e0       _malloc                    100178e0 f   LIBCMTD:dbgheap.obj
 0001:00016900       __malloc_dbg               10017900 f   LIBCMTD:dbgheap.obj
 0001:00016930       __nh_malloc                10017930 f   LIBCMTD:dbgheap.obj
 0001:00016950       __nh_malloc_dbg            10017950 f   LIBCMTD:dbgheap.obj
 0001:000169b0       __heap_alloc               100179b0 f   LIBCMTD:dbgheap.obj
 0001:000169d0       __heap_alloc_dbg           100179d0 f   LIBCMTD:dbgheap.obj
 0001:00016cf0       _calloc                    10017cf0 f   LIBCMTD:dbgheap.obj
 0001:00016d10       __calloc_dbg               10017d10 f   LIBCMTD:dbgheap.obj
 0001:00016d70       _realloc                   10017d70 f   LIBCMTD:dbgheap.obj
 0001:00016d90       __realloc_dbg              10017d90 f   LIBCMTD:dbgheap.obj
 0001:000172f0       __expand                   100182f0 f   LIBCMTD:dbgheap.obj
 0001:00017310       __expand_dbg               10018310 f   LIBCMTD:dbgheap.obj
 0001:00017350       _free                      10018350 f   LIBCMTD:dbgheap.obj
 0001:00017370       __free_lk                  10018370 f   LIBCMTD:dbgheap.obj
 0001:00017390       __free_dbg                 10018390 f   LIBCMTD:dbgheap.obj
 0001:000173c0       __free_dbg_lk              100183c0 f   LIBCMTD:dbgheap.obj
 0001:000177b0       __msize                    100187b0 f   LIBCMTD:dbgheap.obj
 0001:000177d0       __msize_dbg                100187d0 f   LIBCMTD:dbgheap.obj
 0001:00017930       __CrtSetBreakAlloc         10018930 f   LIBCMTD:dbgheap.obj
 0001:00017950       __CrtSetDbgBlockType       10018950 f   LIBCMTD:dbgheap.obj
 0001:000179f0       __CrtSetAllocHook          100189f0 f   LIBCMTD:dbgheap.obj
 0001:00017aa0       __CrtCheckMemory           10018aa0 f   LIBCMTD:dbgheap.obj
 0001:00017e10       __CrtSetDbgFlag            10018e10 f   LIBCMTD:dbgheap.obj
 0001:00017e40       __CrtDoForAllClientObjects 10018e40 f   LIBCMTD:dbgheap.obj
 0001:00017eb0       __CrtIsValidPointer        10018eb0 f   LIBCMTD:dbgheap.obj
 0001:00017f00       __CrtIsValidHeapPointer    10018f00 f   LIBCMTD:dbgheap.obj
 0001:00017f90       __CrtIsMemoryBlock         10018f90 f   LIBCMTD:dbgheap.obj
 0001:00018080       __CrtSetDumpClient         10019080 f   LIBCMTD:dbgheap.obj
 0001:000180a0       __CrtMemCheckpoint         100190a0 f   LIBCMTD:dbgheap.obj
 0001:00018210       __CrtMemDifference         10019210 f   LIBCMTD:dbgheap.obj
 0001:00018340       __CrtMemDumpAllObjectsSince 10019340 f   LIBCMTD:dbgheap.obj
 0001:00018720       __CrtDumpMemoryLeaks       10019720 f   LIBCMTD:dbgheap.obj
 0001:000187a0       __CrtMemDumpStatistics     100197a0 f   LIBCMTD:dbgheap.obj
 0001:00018870       ___loctotime_t             10019870 f   LIBCMTD:dtoxtime.obj
 0001:00018960       ___InternalCxxFrameHandler 10019960 f   LIBCMTD:frame.obj
 0001:00018ed0       ___FrameUnwindToState      10019ed0 f   LIBCMTD:frame.obj
 0001:000194e0       ?_DestructExceptionObject@@YAXPAUEHExceptionRecord@@E@Z 1001a4e0 f   LIBCMTD:frame.obj
 0001:000195c0       __CallSettingFrame@12      1001a5c0 f   LIBCMTD:lowhelpr.obj
 0001:000195e7       __NLG_Return               1001a5e7 f   LIBCMTD:lowhelpr.obj
 0001:00019610       __mtinit                   1001a610 f   LIBCMTD:tidtable.obj
 0001:000196a0       __mtterm                   1001a6a0 f   LIBCMTD:tidtable.obj
 0001:000196d0       __initptd                  1001a6d0 f   LIBCMTD:tidtable.obj
 0001:000196f0       __getptd                   1001a6f0 f   LIBCMTD:tidtable.obj
 0001:00019790       __freeptd                  1001a790 f   LIBCMTD:tidtable.obj
 0001:000198a0       ___threadid                1001a8a0 f   LIBCMTD:tidtable.obj
 0001:000198b0       ___threadhandle            1001a8b0 f   LIBCMTD:tidtable.obj
 0001:000198c0       ?terminate@@YAXXZ          1001a8c0 f   LIBCMTD:hooks.obj
 0001:00019950       ?unexpected@@YAXXZ         1001a950 f   LIBCMTD:hooks.obj
 0001:00019970       ?_inconsistency@@YAXXZ     1001a970 f   LIBCMTD:hooks.obj
 0001:00019a00       __mtinitlocks              1001aa00 f   LIBCMTD:mlock.obj
 0001:00019a40       __mtdeletelocks            1001aa40 f   LIBCMTD:mlock.obj
 0001:00019ae0       __lock                     1001aae0 f   LIBCMTD:mlock.obj
 0001:00019b80       __unlock                   1001ab80 f   LIBCMTD:mlock.obj
 0001:00019ba0       __lockerr_exit             1001aba0 f   LIBCMTD:mlock.obj
 0001:00019bc0       __free_base                1001abc0 f   LIBCMTD:free.obj
 0001:00019c30       _strcmp                    1001ac30 f   LIBCMTD:strcmp.obj
 0001:00019cc0       __itoa                     1001acc0 f   LIBCMTD:xtoa.obj
 0001:00019de0       __ltoa                     1001ade0 f   LIBCMTD:xtoa.obj
 0001:00019e20       __ultoa                    1001ae20 f   LIBCMTD:xtoa.obj
 0001:00019e40       __i64toa                   1001ae40 f   LIBCMTD:xtoa.obj
 0001:00019f90       __ui64toa                  1001af90 f   LIBCMTD:xtoa.obj
 0001:00019fb0       __snprintf                 1001afb0 f   LIBCMTD:snprintf.obj
 0001:0001a0b0       __vsnprintf                1001b0b0 f   LIBCMTD:vsnprint.obj
 0001:0001a1b0       __chkstk                   1001b1b0 f   LIBCMTD:chkstk.obj
 0001:0001a1b0       __alloca_probe             1001b1b0 f   LIBCMTD:chkstk.obj
 0001:0001a1e0       __cinit                    1001b1e0 f   LIBCMTD:crt0dat.obj
 0001:0001a220       _exit                      1001b220 f   LIBCMTD:crt0dat.obj
 0001:0001a240       __exit                     1001b240 f   LIBCMTD:crt0dat.obj
 0001:0001a260       __cexit                    1001b260 f   LIBCMTD:crt0dat.obj
 0001:0001a280       __c_exit                   1001b280 f   LIBCMTD:crt0dat.obj
 0001:0001a390       __lockexit                 1001b390 f   LIBCMTD:crt0dat.obj
 0001:0001a3a0       __unlockexit               1001b3a0 f   LIBCMTD:crt0dat.obj
 0001:0001a3e0       _signal                    1001b3e0 f   LIBCMTD:winsig.obj
 0001:0001a6b0       _raise                     1001b6b0 f   LIBCMTD:winsig.obj
 0001:0001a950       ___fpecode                 1001b950 f   LIBCMTD:winsig.obj
 0001:0001a960       ___pxcptinfoptrs           1001b960 f   LIBCMTD:winsig.obj
 0001:0001a970       ___crtMessageBoxA          1001b970 f   LIBCMTD:crtmbox.obj
 0001:0001aa30       _strncpy                   1001ba30 f   LIBCMTD:strncpy.obj
 0001:0001ab30       __ioinit                   1001bb30 f   LIBCMTD:ioinit.obj
 0001:0001ae60       __ioterm                   1001be60 f   LIBCMTD:ioinit.obj
 0001:0001af00       __setenvp                  1001bf00 f   LIBCMTD:stdenvp.obj
 0001:0001b050       __setargv                  1001c050 f   LIBCMTD:stdargv.obj
 0001:0001b560       ___crtGetEnvironmentStringsA 1001c560 f   LIBCMTD:a_env.obj
 0001:0001b780       __heap_init                1001c780 f   LIBCMTD:heapinit.obj
 0001:0001b7d0       __heap_term                1001c7d0 f   LIBCMTD:heapinit.obj
 0001:0001b870       __FF_MSGBANNER             1001c870 f   LIBCMTD:crt0msg.obj
 0001:0001b8c0       __NMSG_WRITE               1001c8c0 f   LIBCMTD:crt0msg.obj
 0001:0001ba80       __GET_RTERRMSG             1001ca80 f   LIBCMTD:crt0msg.obj
 0001:0001bad0       ?__CxxUnhandledExceptionFilter@@YGJPAU_EXCEPTION_POINTERS@@@Z 1001cad0 f   LIBCMTD:unhandld.obj
 0001:0001bb30       ?__CxxSetUnhandledExceptionFilter@@YAXXZ 1001cb30 f   LIBCMTD:unhandld.obj
 0001:0001bb50       ?__CxxRestoreUnhandledExceptionFilter@@YAXXZ 1001cb50 f   LIBCMTD:unhandld.obj
 0001:0001bb70       __flsbuf                   1001cb70 f   LIBCMTD:_flsbuf.obj
 0001:0001bdf0       __output                   1001cdf0 f   LIBCMTD:output.obj
 0001:0001cc90       __setdefaultprecision      1001dc90 f   LIBCMTD:fp8.obj
 0001:0001ccb0       __ms_p5_test_fdiv          1001dcb0 f   LIBCMTD:testfdiv.obj
 0001:0001cd10       __ms_p5_mp_test_fdiv       1001dd10 f   LIBCMTD:testfdiv.obj
 0001:0001cd60       __forcdecpt                1001dd60 f   LIBCMTD:cvt.obj
 0001:0001ce10       __cropzeros                1001de10 f   LIBCMTD:cvt.obj
 0001:0001cef0       __positive                 1001def0 f   LIBCMTD:cvt.obj
 0001:0001cf20       __fassign                  1001df20 f   LIBCMTD:cvt.obj
 0001:0001cf70       __cftoe                    1001df70 f   LIBCMTD:cvt.obj
 0001:0001d160       __cftof                    1001e160 f   LIBCMTD:cvt.obj
 0001:0001d310       __cftog                    1001e310 f   LIBCMTD:cvt.obj
 0001:0001d400       __cfltcvt                  1001e400 f   LIBCMTD:cvt.obj
 0001:0001d490       _setlocale                 1001e490 f   LIBCMTD:setlocal.obj
 0001:0001db20       __expandlocale             1001eb20 f   LIBCMTD:setlocal.obj
 0001:0001dcb0       ___init_dummy              1001ecb0 f   LIBCMTD:setlocal.obj
 0001:0001dcc0       __strcats                  1001ecc0 f   LIBCMTD:setlocal.obj
 0001:0001dd10       ___lc_strtolc              1001ed10 f   LIBCMTD:setlocal.obj
 0001:0001de70       ___lc_lctostr              1001ee70 f   LIBCMTD:setlocal.obj
 0001:0001dee0       ___crtLCMapStringA         1001eee0 f   LIBCMTD:a_map.obj
 0001:0001e240       __isctype                  1001f240 f   LIBCMTD:isctype.obj
 0001:0001e300       __allmul                   1001f300 f   LIBCMTD:llmul.obj
 0001:0001e340       ___initstdio               1001f340 f   LIBCMTD:_file.obj
 0001:0001e470       ___endstdio                1001f470 f   LIBCMTD:_file.obj
 0001:0001e490       __lock_file                1001f490 f   LIBCMTD:_file.obj
 0001:0001e4d0       __lock_file2               1001f4d0 f   LIBCMTD:_file.obj
 0001:0001e500       __unlock_file              1001f500 f   LIBCMTD:_file.obj
 0001:0001e540       __unlock_file2             1001f540 f   LIBCMTD:_file.obj
 0001:0001e570       __write                    1001f570 f   LIBCMTD:write.obj
 0001:0001e600       __write_lk                 1001f600 f   LIBCMTD:write.obj
 0001:0001e880       __getbuf                   1001f880 f   LIBCMTD:_getbuf.obj
 0001:0001e950       __filbuf                   1001f950 f   LIBCMTD:_filbuf.obj
 0001:0001eb40       __ftelli64                 1001fb40 f   LIBCMTD:ftelli64.obj
 0001:0001ebb0       __ftelli64_lk              1001fbb0 f   LIBCMTD:ftelli64.obj
 0001:0001eea0       __lseek                    1001fea0 f   LIBCMTD:lseek.obj
 0001:0001ef30       __lseek_lk                 1001ff30 f   LIBCMTD:lseek.obj
 0001:0001eff0       _ftell                     1001fff0 f   LIBCMTD:ftell.obj
 0001:0001f060       __ftell_lk                 10020060 f   LIBCMTD:ftell.obj
 0001:0001f300       __dosmaperr                10020300 f   LIBCMTD:dosmap.obj
 0001:0001f3a0       __errno                    100203a0 f   LIBCMTD:dosmap.obj
 0001:0001f3b0       ___doserrno                100203b0 f   LIBCMTD:dosmap.obj
 0001:0001f3c0       __fseeki64                 100203c0 f   LIBCMTD:fseeki64.obj
 0001:0001f430       __fseeki64_lk              10020430 f   LIBCMTD:fseeki64.obj
 0001:0001f580       __freebuf                  10020580 f   LIBCMTD:_freebuf.obj
 0001:0001f620       __commit                   10020620 f   LIBCMTD:commit.obj
 0001:0001f700       __close                    10020700 f   LIBCMTD:close.obj
 0001:0001f780       __close_lk                 10020780 f   LIBCMTD:close.obj
 0001:0001f830       __XcptFilter               10020830 f   LIBCMTD:winxfltr.obj
 0001:0001fa54       __except_handler3          10020a54 f   LIBCMTD:exsup3.obj
 0001:0001fb11       __seh_longjmp_unwind@4     10020b11 f   LIBCMTD:exsup3.obj
 0001:0001fb30       ?_set_new_handler@@YAP6AHI@ZP6AHI@Z@Z 10020b30 f   LIBCMTD:handler.obj
 0001:0001fb60       ?_query_new_handler@@YAP6AHI@ZXZ 10020b60 f   LIBCMTD:handler.obj
 0001:0001fb70       __callnewh                 10020b70 f   LIBCMTD:handler.obj
 0001:0001fba0       __malloc_base              10020ba0 f   LIBCMTD:malloc.obj
 0001:0001fbc0       __nh_malloc_base           10020bc0 f   LIBCMTD:malloc.obj
 0001:0001fc20       __heap_alloc_base          10020c20 f   LIBCMTD:malloc.obj
 0001:0001fc90       __CrtDefaultAllocHook      10020c90 f   LIBCMTD:dbghook.obj
 0001:0001fca0       __expand_base              10020ca0 f   LIBCMTD:expand.obj
 0001:0001fd50       __realloc_base             10020d50 f   LIBCMTD:realloc.obj
 0001:0001ff40       __heapchk                  10020f40 f   LIBCMTD:heapchk.obj
 0001:0001ffc0       __heapset                  10020fc0 f   LIBCMTD:heapchk.obj
 0001:0001ffd0       __get_sbh_threshold        10020fd0 f   LIBCMTD:sbheap.obj
 0001:0001ffe0       __set_sbh_threshold        10020fe0 f   LIBCMTD:sbheap.obj
 0001:00020000       ___sbh_heap_init           10021000 f   LIBCMTD:sbheap.obj
 0001:00020060       ___sbh_find_block          10021060 f   LIBCMTD:sbheap.obj
 0001:000200c0       ___sbh_verify_block        100210c0 f   LIBCMTD:sbheap.obj
 0001:00020120       ___sbh_free_block          10021120 f   LIBCMTD:sbheap.obj
 0001:000206f0       ___sbh_alloc_block         100216f0 f   LIBCMTD:sbheap.obj
 0001:00020c30       ___sbh_alloc_new_region    10021c30 f   LIBCMTD:sbheap.obj
 0001:00020d40       ___sbh_alloc_new_group     10021d40 f   LIBCMTD:sbheap.obj
 0001:00020f30       ___sbh_resize_block        10021f30 f   LIBCMTD:sbheap.obj
 0001:00021520       ___sbh_heapmin             10022520 f   LIBCMTD:sbheap.obj
 0001:00021650       ___sbh_heap_check          10022650 f   LIBCMTD:sbheap.obj
 0001:00021c70       ___tzset                   10022c70 f   LIBCMTD:tzset.obj
 0001:00021cb0       __tzset                    10022cb0 f   LIBCMTD:tzset.obj
 0001:00022080       __isindst                  10023080 f   LIBCMTD:tzset.obj
 0001:000225b0       ?_ValidateRead@@YAHPBXI@Z  100235b0 f   LIBCMTD:validate.obj
 0001:000225e0       ?_ValidateWrite@@YAHPAXI@Z 100235e0 f   LIBCMTD:validate.obj
 0001:00022610       ?_ValidateExecute@@YAHP6GHXZ@Z 10023610 f   LIBCMTD:validate.obj
 0001:00022640       _abort                     10023640 f   LIBCMTD:abort.obj
 0001:00022660       __aulldiv                  10023660 f   LIBCMTD:ulldiv.obj
 0001:000226d0       __aullrem                  100236d0 f   LIBCMTD:ullrem.obj
 0001:00022750       __setmbcp                  10023750 f   LIBCMTD:mbctype.obj
 0001:00022f10       __getmbcp                  10023f10 f   LIBCMTD:mbctype.obj
 0001:00022f30       ___initmbctable            10023f30 f   LIBCMTD:mbctype.obj
 0001:00022f60       __isatty                   10023f60 f   LIBCMTD:isatty.obj
 0001:00022fa0       _wctomb                    10023fa0 f   LIBCMTD:wctomb.obj
 0001:00023020       __wctomb_lk                10024020 f   LIBCMTD:wctomb.obj
 0001:000230c0       __statusfp                 100240c0 f   LIBCMTD:ieee87.obj
 0001:000230e0       __clearfp                  100240e0 f   LIBCMTD:ieee87.obj
 0001:00023100       __control87                10024100 f   LIBCMTD:ieee87.obj
 0001:00023150       __controlfp                10024150 f   LIBCMTD:ieee87.obj
 0001:00023170       __fpreset                  10024170 f   LIBCMTD:ieee87.obj
 0001:00023560       __tolower                  10024560 f   LIBCMTD:tolower.obj
 0001:00023570       _tolower                   10024570 f   LIBCMTD:tolower.obj
 0001:00023610       __tolower_lk               10024610 f   LIBCMTD:tolower.obj
 0001:00023740       __ZeroTail                 10024740 f   LIBCMTD:intrncvt.obj
 0001:000237d0       __IncMan                   100247d0 f   LIBCMTD:intrncvt.obj
 0001:00023880       __RoundMan                 10024880 f   LIBCMTD:intrncvt.obj
 0001:00023960       __CopyMan                  10024960 f   LIBCMTD:intrncvt.obj
 0001:000239b0       __FillZeroMan              100249b0 f   LIBCMTD:intrncvt.obj
 0001:000239e0       __IsZeroMan                100249e0 f   LIBCMTD:intrncvt.obj
 0001:00023a20       __ShrMan                   10024a20 f   LIBCMTD:intrncvt.obj
 0001:00023b10       __ld12cvt                  10024b10 f   LIBCMTD:intrncvt.obj
 0001:00023d60       __ld12tod                  10024d60 f   LIBCMTD:intrncvt.obj
 0001:00023d80       __ld12tof                  10024d80 f   LIBCMTD:intrncvt.obj
 0001:00023da0       __ld12told                 10024da0 f   LIBCMTD:intrncvt.obj
 0001:00023e60       __atodbl                   10024e60 f   LIBCMTD:intrncvt.obj
 0001:00023ea0       __atoldbl                  10024ea0 f   LIBCMTD:intrncvt.obj
 0001:00023ee0       __atoflt                   10024ee0 f   LIBCMTD:intrncvt.obj
 0001:00023f20       __fptostr                  10024f20 f   LIBCMTD:_fptostr.obj
 0001:00024020       __fltout2                  10025020 f   LIBCMTD:cfout.obj
 0001:000240a0       ___dtold                   100250a0 f   LIBCMTD:cfout.obj
 0001:00024210       __fptrap                   10025210 f   LIBCMTD:crt0fp.obj
 0001:00024220       ___init_time               10025220 f   LIBCMTD:inittime.obj
 0001:00024ba0       ___init_numeric            10025ba0 f   LIBCMTD:initnum.obj
 0001:00024ed0       ___init_monetary           10025ed0 f   LIBCMTD:initmon.obj
 0001:00025330       ___init_ctype              10026330 f   LIBCMTD:initctyp.obj
 0001:000256d0       ___init_collate            100266d0 f   LIBCMTD:initcoll.obj
 0001:000256e0       _strncmp                   100266e0 f   LIBCMTD:strncmp.obj
 0001:00025720       _strpbrk                   10026720 f   LIBCMTD:strpbrk.obj
 0001:00025760       ___get_qualified_locale    10026760 f   LIBCMTD:getqloc.obj
 0001:00026500       ___crtGetStringTypeA       10027500 f   LIBCMTD:a_str.obj
 0001:000266c0       __fcloseall                100276c0 f   LIBCMTD:closeall.obj
 0001:000267a0       __alloc_osfhnd             100277a0 f   LIBCMTD:osfinfo.obj
 0001:00026990       __set_osfhnd               10027990 f   LIBCMTD:osfinfo.obj
 0001:00026a50       __free_osfhnd              10027a50 f   LIBCMTD:osfinfo.obj
 0001:00026b30       __get_osfhandle            10027b30 f   LIBCMTD:osfinfo.obj
 0001:00026ba0       __open_osfhandle           10027ba0 f   LIBCMTD:osfinfo.obj
 0001:00026cb0       __lock_fhandle             10027cb0 f   LIBCMTD:osfinfo.obj
 0001:00026d40       __unlock_fhandle           10027d40 f   LIBCMTD:osfinfo.obj
 0001:00026d70       __read                     10027d70 f   LIBCMTD:read.obj
 0001:00026e00       __read_lk                  10027e00 f   LIBCMTD:read.obj
 0001:00027250       __lseeki64                 10028250 f   LIBCMTD:lseeki64.obj
 0001:000272f0       __lseeki64_lk              100282f0 f   LIBCMTD:lseeki64.obj
 0001:000273b0       _getenv                    100283b0 f   LIBCMTD:getenv.obj
 0001:000273e0       __getenv_lk                100283e0 f   LIBCMTD:getenv.obj
 0001:000274b0       ___addl                    100284b0 f   LIBCMTD:mantold.obj
 0001:000274f0       ___add_12                  100284f0 f   LIBCMTD:mantold.obj
 0001:000275a0       ___shl_12                  100285a0 f   LIBCMTD:mantold.obj
 0001:00027600       ___shr_12                  10028600 f   LIBCMTD:mantold.obj
 0001:00027670       ___mtold12                 10028670 f   LIBCMTD:mantold.obj
 0001:000277b0       ___strgtold12              100287b0 f   LIBCMTD:strgtold.obj
 0001:000282e0       ___STRINGTOLD              100292e0 f   LIBCMTD:strgtold.obj
 0001:00028330       _$I10_OUTPUT               10029330 f   LIBCMTD:x10fout.obj
 0001:00028850       __Getdays                  10029850 f   LIBCMTD:strftime.obj
 0001:00028980       __Getmonths                10029980 f   LIBCMTD:strftime.obj
 0001:00028ab0       __Gettnames                10029ab0 f   LIBCMTD:strftime.obj
 0001:00028e20       _strftime                  10029e20 f   LIBCMTD:strftime.obj
 0001:00028e40       __Strftime                 10029e40 f   LIBCMTD:strftime.obj
 0001:00029cc0       ___getlocaleinfo           1002acc0 f   LIBCMTD:inithelp.obj
 0001:00029f50       ___crtGetStringTypeW       1002af50 f   LIBCMTD:w_str.obj
 0001:0002a1c0       __strcmpi                  1002b1c0 f   LIBCMTD:stricmp.obj
 0001:0002a1c0       __stricmp                  1002b1c0 f   LIBCMTD:stricmp.obj
 0001:0002a290       __strnicmp                 1002b290 f   LIBCMTD:strnicmp.obj
 0001:0002a3a0       __mbsnbicoll               1002b3a0 f   LIBCMTD:mbsnbico.obj
 0001:0002a3f0       ___wtomb_environ           1002b3f0 f   LIBCMTD:wtombenv.obj
 0001:0002a4a0       ___ld12mul                 1002b4a0 f   LIBCMTD:tenpow.obj
 0001:0002a8e0       ___multtenpow12            1002b8e0 f   LIBCMTD:tenpow.obj
 0001:0002a9b0       ___crtGetLocaleInfoW       1002b9b0 f   LIBCMTD:w_loc.obj
 0001:0002ab50       ___crtGetLocaleInfoA       1002bb50 f   LIBCMTD:a_loc.obj
 0001:0002ad00       ___crtCompareStringA       1002bd00 f   LIBCMTD:a_cmp.obj
 0001:0002b150       ___crtsetenv               1002c150 f   LIBCMTD:setenv.obj
 0001:0002b5a0       __mbschr                   1002c5a0 f   LIBCMTD:mbschr.obj
 0001:0002b6a0       _strchr                    1002c6a0 f   LIBCMTD:strchr.obj
 0001:0002b6a6       ___from_strstr_to_strchr   1002c6a6 f   LIBCMTD:strchr.obj
 0001:0002b760       _closesocket@4             1002c760 f   ws2_32:WS2_32.dll
 0001:0002b766       _WSAGetLastError@0         1002c766 f   ws2_32:WS2_32.dll
 0001:0002b76c       _setsockopt@20             1002c76c f   ws2_32:WS2_32.dll
 0001:0002b772       _WSASocketA@24             1002c772 f   ws2_32:WS2_32.dll
 0001:0002b778       _WSAEnumNetworkEvents@12   1002c778 f   ws2_32:WS2_32.dll
 0001:0002b77e       _WSAWaitForMultipleEvents@20 1002c77e f   ws2_32:WS2_32.dll
 0001:0002b784       _WSARecv@28                1002c784 f   ws2_32:WS2_32.dll
 0001:0002b78a       _select@20                 1002c78a f   ws2_32:WS2_32.dll
 0001:0002b790       _WSASend@28                1002c790 f   ws2_32:WS2_32.dll
 0001:0002b796       _recv@16                   1002c796 f   ws2_32:WS2_32.dll
 0001:0002b79c       _gethostbyname@4           1002c79c f   ws2_32:WS2_32.dll
 0001:0002b7a2       _gethostname@8             1002c7a2 f   ws2_32:WS2_32.dll
 0001:0002b7a8       _WSACloseEvent@4           1002c7a8 f   ws2_32:WS2_32.dll
 0001:0002b7ae       _WSAEventSelect@12         1002c7ae f   ws2_32:WS2_32.dll
 0001:0002b7b4       _WSACreateEvent@0          1002c7b4 f   ws2_32:WS2_32.dll
 0001:0002b7ba       _WSAStartup@8              1002c7ba f   ws2_32:WS2_32.dll
 0001:0002b7c0       _WSACleanup@0              1002c7c0 f   ws2_32:WS2_32.dll
 0001:0002b7c6       _shutdown@8                1002c7c6 f   ws2_32:WS2_32.dll
 0001:0002b7cc       _listen@8                  1002c7cc f   ws2_32:WS2_32.dll
 0001:0002b7d2       _bind@12                   1002c7d2 f   ws2_32:WS2_32.dll
 0001:0002b7d8       _connect@12                1002c7d8 f   ws2_32:WS2_32.dll
 0001:0002b7de       _htonl@4                   1002c7de f   ws2_32:WS2_32.dll
 0001:0002b7e4       _htons@4                   1002c7e4 f   ws2_32:WS2_32.dll
 0001:0002b7ea       _inet_addr@4               1002c7ea f   ws2_32:WS2_32.dll
 0001:0002b7f0       ?_Xlen@std@@YAXXZ          1002c7f0 f   libcpmtd:string.obj
 0001:0002b850       ??0logic_error@std@@QAE@ABV01@@Z 1002c850 f i libcpmtd:string.obj
 0001:0002b8c0       ?what@logic_error@std@@UBEPBDXZ 1002c8c0 f i libcpmtd:string.obj
 0001:0002b8e0       ?_Doraise@logic_error@std@@MBEXXZ 1002c8e0 f i libcpmtd:string.obj
 0001:0002b910       ??1logic_error@std@@UAE@XZ 1002c910 f i libcpmtd:string.obj
 0001:0002b970       ??_Glogic_error@std@@UAEPAXI@Z 1002c970 f i libcpmtd:string.obj
 0001:0002b970       ??_Elogic_error@std@@UAEPAXI@Z 1002c970 f i libcpmtd:string.obj
 0001:0002b9a0       ??0length_error@std@@QAE@ABV?$basic_string@DU?$char_traits@D@std@@V?$allocator@D@2@@1@@Z 1002c9a0 f i libcpmtd:string.obj
 0001:0002b9d0       ??0logic_error@std@@QAE@ABV?$basic_string@DU?$char_traits@D@std@@V?$allocator@D@2@@1@@Z 1002c9d0 f i libcpmtd:string.obj
 0001:0002ba40       ??1length_error@std@@UAE@XZ 1002ca40 f i libcpmtd:string.obj
 0001:0002ba60       ?_Doraise@length_error@std@@MBEXXZ 1002ca60 f i libcpmtd:string.obj
 0001:0002ba90       ??_Elength_error@std@@UAEPAXI@Z 1002ca90 f i libcpmtd:string.obj
 0001:0002ba90       ??_Glength_error@std@@UAEPAXI@Z 1002ca90 f i libcpmtd:string.obj
 0001:0002bac0       ??0length_error@std@@QAE@ABV01@@Z 1002cac0 f i libcpmtd:string.obj
 0001:0002baf0       ?_Xran@std@@YAXXZ          1002caf0 f   libcpmtd:string.obj
 0001:0002bb50       ??0out_of_range@std@@QAE@ABV?$basic_string@DU?$char_traits@D@std@@V?$allocator@D@2@@1@@Z 1002cb50 f i libcpmtd:string.obj
 0001:0002bb80       ??1out_of_range@std@@UAE@XZ 1002cb80 f i libcpmtd:string.obj
 0001:0002bba0       ?_Doraise@out_of_range@std@@MBEXXZ 1002cba0 f i libcpmtd:string.obj
 0001:0002bbd0       ??_Gout_of_range@std@@UAEPAXI@Z 1002cbd0 f i libcpmtd:string.obj
 0001:0002bbd0       ??_Eout_of_range@std@@UAEPAXI@Z 1002cbd0 f i libcpmtd:string.obj
 0001:0002bc00       ??0out_of_range@std@@QAE@ABV01@@Z 1002cc00 f i libcpmtd:string.obj
 0001:0002bc70       ?id@?$collate@D@std@@$D    1002cc70 f i libcpmtd:string.obj
 0001:0002bcc0       ?id@?$collate@D@std@@$E    1002ccc0 f i libcpmtd:string.obj
 0001:0002bcd0       ??0_Lockit@std@@QAE@XZ     1002ccd0 f   libcpmtd:xlock.obj
 0001:0002bdb0       ??1_Lockit@std@@QAE@XZ     1002cdb0 f   libcpmtd:xlock.obj
 0001:0002bdd0       ??1istrstream@std@@UAE@XZ  1002cdd0 f   libcpmtd:strstrea.obj
 0001:0002be40       ??_Gistrstream@std@@UAEPAXI@Z 1002ce40 f i libcpmtd:strstrea.obj
 0001:0002be40       ??_Eistrstream@std@@UAEPAXI@Z 1002ce40 f i libcpmtd:strstrea.obj
 0001:0002be80       ??_Distrstream@std@@QAEXXZ 1002ce80 f i libcpmtd:strstrea.obj
 0001:0002beb0       ??0ostrstream@std@@QAE@PADHH@Z 1002ceb0 f   libcpmtd:strstrea.obj
 0001:0002bf90       ??0strstreambuf@std@@QAE@PADH0@Z 1002cf90 f i libcpmtd:strstrea.obj
 0001:0002c000       ??_Eostrstream@std@@UAEPAXI@Z 1002d000 f i libcpmtd:strstrea.obj
 0001:0002c000       ??_Gostrstream@std@@UAEPAXI@Z 1002d000 f i libcpmtd:strstrea.obj
 0001:0002c040       ??_Dostrstream@std@@QAEXXZ 1002d040 f i libcpmtd:strstrea.obj
 0001:0002c070       ??1ostrstream@std@@UAE@XZ  1002d070 f   libcpmtd:strstrea.obj
 0001:0002c0e0       ??0strstream@std@@QAE@PADHH@Z 1002d0e0 f   libcpmtd:strstrea.obj
 0001:0002c1c0       ??1strstream@std@@UAE@XZ   1002d1c0 f   libcpmtd:strstrea.obj
 0001:0002c230       ??1strstreambuf@std@@UAE@XZ 1002d230 f   libcpmtd:strstrea.obj
 0001:0002c290       ?freeze@strstreambuf@std@@QAEX_N@Z 1002d290 f   libcpmtd:strstrea.obj
 0001:0002c350       ?overflow@strstreambuf@std@@MAEHH@Z 1002d350 f   libcpmtd:strstrea.obj
 0001:0002c5c0       ?pbackfail@strstreambuf@std@@MAEHH@Z 1002d5c0 f   libcpmtd:strstrea.obj
 0001:0002c660       ?underflow@strstreambuf@std@@MAEHXZ 1002d660 f   libcpmtd:strstrea.obj
 0001:0002c730       ?seekoff@strstreambuf@std@@MAE?AV?$fpos@H@2@JW4seekdir@ios_base@2@H@Z 1002d730 f   libcpmtd:strstrea.obj
 0001:0002c950       ?seekpos@strstreambuf@std@@MAE?AV?$fpos@H@2@V32@H@Z 1002d950 f   libcpmtd:strstrea.obj
 0001:0002cac0       ?_Init@strstreambuf@std@@IAEXHPAD0H@Z 1002dac0 f   libcpmtd:strstrea.obj
 0001:0002cc00       ?_Tidy@strstreambuf@std@@IAEXXZ 1002dc00 f   libcpmtd:strstrea.obj
 0001:0002cc70       ?pbase@?$basic_streambuf@DU?$char_traits@D@std@@@std@@IBEPADXZ 1002dc70 f i libcpmtd:strstrea.obj
 0001:0002cc90       ?setp@?$basic_streambuf@DU?$char_traits@D@std@@@std@@IAEXPAD00@Z 1002dc90 f i libcpmtd:strstrea.obj
 0001:0002cd30       ?clear@ios_base@std@@QAEXH_N@Z 1002dd30 f   libcpmtd:ios.obj
 0001:0002ce10       ??0runtime_error@std@@QAE@ABV01@@Z 1002de10 f i libcpmtd:ios.obj
 0001:0002ce80       ?what@runtime_error@std@@UBEPBDXZ 1002de80 f i libcpmtd:ios.obj
 0001:0002cea0       ?_Doraise@runtime_error@std@@MBEXXZ 1002dea0 f i libcpmtd:ios.obj
 0001:0002ced0       ??1runtime_error@std@@UAE@XZ 1002ded0 f i libcpmtd:ios.obj
 0001:0002cf30       ??_Eruntime_error@std@@UAEPAXI@Z 1002df30 f i libcpmtd:ios.obj
 0001:0002cf30       ??_Gruntime_error@std@@UAEPAXI@Z 1002df30 f i libcpmtd:ios.obj
 0001:0002cf60       ??0failure@ios_base@std@@QAE@ABV?$basic_string@DU?$char_traits@D@std@@V?$allocator@D@2@@2@@Z 1002df60 f i libcpmtd:ios.obj
 0001:0002cf90       ??0runtime_error@std@@QAE@ABV?$basic_string@DU?$char_traits@D@std@@V?$allocator@D@2@@1@@Z 1002df90 f i libcpmtd:ios.obj
 0001:0002d000       ??1failure@ios_base@std@@UAE@XZ 1002e000 f i libcpmtd:ios.obj
 0001:0002d020       ?_Doraise@failure@ios_base@std@@MBEXXZ 1002e020 f i libcpmtd:ios.obj
 0001:0002d050       ??_Efailure@ios_base@std@@UAEPAXI@Z 1002e050 f i libcpmtd:ios.obj
 0001:0002d050       ??_Gfailure@ios_base@std@@UAEPAXI@Z 1002e050 f i libcpmtd:ios.obj
 0001:0002d080       ??0failure@ios_base@std@@QAE@ABV012@@Z 1002e080 f i libcpmtd:ios.obj
 0001:0002d0b0       ?copyfmt@ios_base@std@@QAEAAV12@ABV12@@Z 1002e0b0 f   libcpmtd:ios.obj
 0001:0002d190       ??4locale@std@@QAEAAV01@ABV01@@Z 1002e190 f i libcpmtd:ios.obj
 0001:0002d200       ?exceptions@ios_base@std@@QAEXH@Z 1002e200 f i libcpmtd:ios.obj
 0001:0002d230       ?iword@ios_base@std@@QAEAAJH@Z 1002e230 f i libcpmtd:ios.obj
 0001:0002d250       ?pword@ios_base@std@@QAEAAPAXH@Z 1002e250 f i libcpmtd:ios.obj
 0001:0002d270       ?imbue@ios_base@std@@QAE?AVlocale@2@ABV32@@Z 1002e270 f   libcpmtd:ios.obj
 0001:0002d300       ?register_callback@ios_base@std@@QAEXP6AXW4event@12@AAV12@H@ZH@Z 1002e300 f   libcpmtd:ios.obj
 0001:0002d390       ??0_Fnarray@ios_base@std@@QAE@HP6AXW4event@12@AAV12@H@ZPAU012@@Z 1002e390 f i libcpmtd:ios.obj
 0001:0002d3c0       ??1ios_base@std@@UAE@XZ    1002e3c0 f   libcpmtd:ios.obj
 0001:0002d450       ?_Callfns@ios_base@std@@AAEXW4event@12@@Z 1002e450 f   libcpmtd:ios.obj
 0001:0002d4a0       ?_Findarr@ios_base@std@@AAEAAU_Iosarray@12@H@Z 1002e4a0 f   libcpmtd:ios.obj
 0001:0002d5d0       ??0_Iosarray@ios_base@std@@QAE@HPAU012@@Z 1002e5d0 f i libcpmtd:ios.obj
 0001:0002d610       ?_Addstd@ios_base@std@@IAEXXZ 1002e610 f   libcpmtd:ios.obj
 0001:0002d6a0       ?_Init@ios_base@std@@IAEXXZ 1002e6a0 f   libcpmtd:ios.obj
 0001:0002d730       ?_Tidy@ios_base@std@@AAEXXZ 1002e730 f   libcpmtd:ios.obj
 0001:0002d830       ?classic@locale@std@@SAABV12@XZ 1002e830 f   libcpmtd:locale0.obj
 0001:0002d860       ?empty@locale@std@@SA?AV12@XZ 1002e860 f   libcpmtd:locale0.obj
 0001:0002d8f0       ??0locale@std@@AAE@PAV_Locimp@01@@Z 1002e8f0 f i libcpmtd:locale0.obj
 0001:0002d910       ?_Getfacet@locale@std@@QBEPBVfacet@12@I_N@Z 1002e910 f   libcpmtd:locale0.obj
 0001:0002d9c0       ?_Iscloc@locale@std@@QBE_NXZ 1002e9c0 f   libcpmtd:locale0.obj
 0001:0002da20       ??8locale@std@@QBE_NABV01@@Z 1002ea20 f   libcpmtd:locale0.obj
 0001:0002db40       ?name@locale@std@@QBE?AV?$basic_string@DU?$char_traits@D@std@@V?$allocator@D@2@@2@XZ 1002eb40 f i libcpmtd:locale0.obj
 0001:0002db80       ?_Init@locale@std@@CAPAV_Locimp@12@XZ 1002eb80 f   libcpmtd:locale0.obj
 0001:0002dcb0       ??3@YAXPAX0@Z              1002ecb0 f i libcpmtd:locale0.obj
 0001:0002dcc0       ?_Tidy@locale@std@@CAXXZ   1002ecc0 f   libcpmtd:locale0.obj
 0001:0002dd50       ??0_Locimp@locale@std@@AAE@_N@Z 1002ed50 f   libcpmtd:locale0.obj
 0001:0002dde0       ??_G_Locimp@locale@std@@UAEPAXI@Z 1002ede0 f i libcpmtd:locale0.obj
 0001:0002dde0       ??_E_Locimp@locale@std@@UAEPAXI@Z 1002ede0 f i libcpmtd:locale0.obj
 0001:0002de10       ??1_Locimp@locale@std@@UAE@XZ 1002ee10 f   libcpmtd:locale0.obj
 0001:0002df00       ?compare@?$basic_string@DU?$char_traits@D@std@@V?$allocator@D@2@@std@@QBEHABV12@@Z 1002ef00 f i libcpmtd:locale0.obj
 0001:0002df30       ?compare@?$basic_string@DU?$char_traits@D@std@@V?$allocator@D@2@@std@@QBEHPBD@Z 1002ef30 f i libcpmtd:locale0.obj
 0001:0002df60       ?compare@?$basic_string@DU?$char_traits@D@std@@V?$allocator@D@2@@std@@QBEHIIPBDI@Z 1002ef60 f i libcpmtd:locale0.obj
 0001:0002e010       ?compare@?$char_traits@D@std@@SAHPBD0I@Z 1002f010 f i libcpmtd:locale0.obj
 0001:0002e090       ?uncaught_exception@std@@YA_NXZ 1002f090 f   libcpmtd:uncaught.obj
 0001:0002e0a0       ??0locale@std@@QAE@ABV01@0H@Z 1002f0a0 f   libcpmtd:locale.obj
 0001:0002e190       ??0locale@std@@QAE@PBDH@Z  1002f190 f   libcpmtd:locale.obj
 0001:0002e300       ?_Getname@_Locinfo@std@@QBE?AV?$basic_string@DU?$char_traits@D@std@@V?$allocator@D@2@@2@XZ 1002f300 f i libcpmtd:locale.obj
 0001:0002e340       ??0locale@std@@QAE@ABV01@PBDH@Z 1002f340 f   libcpmtd:locale.obj
 0001:0002e4d0       ?_Addfac@locale@std@@QAEAAV12@PAVfacet@12@II@Z 1002f4d0 f   libcpmtd:locale.obj
 0001:0002e590       ?global@locale@std@@SA?AV12@ABV12@@Z 1002f590 f   libcpmtd:locale.obj
 0001:0002e710       ?_Makeloc@_Locimp@locale@std@@CAPAV123@ABV_Locinfo@3@HPAV123@PBV23@@Z 1002f710 f   libcpmtd:locale.obj
 0001:0002ead0       ??0?$ctype@D@std@@QAE@ABV_Locinfo@1@I@Z 1002fad0 f i libcpmtd:locale.obj
 0001:0002eb30       ??0ctype_base@std@@QAE@I@Z 1002fb30 f i libcpmtd:locale.obj
 0001:0002eb60       ??_Gctype_base@std@@UAEPAXI@Z 1002fb60 f i libcpmtd:locale.obj
 0001:0002eb60       ??_Ectype_base@std@@UAEPAXI@Z 1002fb60 f i libcpmtd:locale.obj
 0001:0002eb90       ??1ctype_base@std@@UAE@XZ  1002fb90 f i libcpmtd:locale.obj
 0001:0002ebb0       ?_Getcat@?$ctype@D@std@@SAIXZ 1002fbb0 f i libcpmtd:locale.obj
 0001:0002ebc0       ?_Init@?$ctype@D@std@@IAEXABV_Locinfo@2@@Z 1002fbc0 f i libcpmtd:locale.obj
 0001:0002ec60       ?_Getctype@_Locinfo@std@@QBE?AU_Ctypevec@@XZ 1002fc60 f i libcpmtd:locale.obj
 0001:0002ecb0       ?_Term@?$ctype@D@std@@KAXXZ 1002fcb0 f i libcpmtd:locale.obj
 0001:0002ecd0       ?do_tolower@?$ctype@D@std@@MBEDD@Z 1002fcd0 f i libcpmtd:locale.obj
 0001:0002ed00       ?do_tolower@?$ctype@D@std@@MBEPBDPADPBD@Z 1002fd00 f i libcpmtd:locale.obj
 0001:0002ed40       ?do_toupper@?$ctype@D@std@@MBEDD@Z 1002fd40 f i libcpmtd:locale.obj
 0001:0002ed70       ?do_toupper@?$ctype@D@std@@MBEPBDPADPBD@Z 1002fd70 f i libcpmtd:locale.obj
 0001:0002edb0       ??_G?$ctype@D@std@@UAEPAXI@Z 1002fdb0 f i libcpmtd:locale.obj
 0001:0002edb0       ??_E?$ctype@D@std@@UAEPAXI@Z 1002fdb0 f i libcpmtd:locale.obj
 0001:0002ede0       ??1?$ctype@D@std@@UAE@XZ   1002fde0 f i libcpmtd:locale.obj
 0001:0002ee20       ??0_Locimp@locale@std@@AAE@ABV012@@Z 1002fe20 f   libcpmtd:locale.obj
 0001:0002efb0       ?_Addfac@_Locimp@locale@std@@AAEXPAVfacet@23@I@Z 1002ffb0 f   libcpmtd:locale.obj
 0001:0002f0e0       ??0_Locinfo@std@@QAE@PBD@Z 100300e0 f   libcpmtd:locale.obj
 0001:0002f1c0       ??0_Locinfo@std@@QAE@HPBD@Z 100301c0 f   libcpmtd:locale.obj
 0001:0002f260       ??1_Locinfo@std@@QAE@XZ    10030260 f   libcpmtd:locale.obj
 0001:0002f300       ?_Addcats@_Locinfo@std@@QAEAAV12@HPBD@Z 10030300 f   libcpmtd:locale.obj
 0001:0002f3b0       ??0?$codecvt@DDH@std@@QAE@ABV_Locinfo@1@I@Z 100303b0 f i libcpmtd:locale.obj
 0001:0002f410       ??0codecvt_base@std@@QAE@I@Z 10030410 f i libcpmtd:locale.obj
 0001:0002f440       ?do_always_noconv@codecvt_base@std@@MBE_NXZ 10030440 f i libcpmtd:locale.obj
 0001:0002f450       ?do_max_length@codecvt_base@std@@MBEHXZ 10030450 f i libcpmtd:locale.obj
 0001:0002f460       ?do_encoding@codecvt_base@std@@MBEHXZ 10030460 f i libcpmtd:locale.obj
 0001:0002f470       ??_Gcodecvt_base@std@@UAEPAXI@Z 10030470 f i libcpmtd:locale.obj
 0001:0002f470       ??_Ecodecvt_base@std@@UAEPAXI@Z 10030470 f i libcpmtd:locale.obj
 0001:0002f4a0       ??1codecvt_base@std@@UAE@XZ 100304a0 f i libcpmtd:locale.obj
 0001:0002f4c0       ?_Getcat@?$codecvt@DDH@std@@SAIXZ 100304c0 f i libcpmtd:locale.obj
 0001:0002f4d0       ?do_in@?$codecvt@DDH@std@@MBEHAAHPBD1AAPBDPAD3AAPAD@Z 100304d0 f i libcpmtd:locale.obj
 0001:0002f500       ?do_out@?$codecvt@DDH@std@@MBEHAAHPBD1AAPBDPAD3AAPAD@Z 10030500 f i libcpmtd:locale.obj
 0001:0002f530       ?do_length@?$codecvt@DDH@std@@MBEHAAHPBD1I@Z 10030530 f i libcpmtd:locale.obj
 0001:0002f560       ?_Getcat@?$num_get@DV?$istreambuf_iterator@DU?$char_traits@D@std@@@std@@@std@@SAIXZ 10030560 f i libcpmtd:locale.obj
 0001:0002f570       ??0?$num_get@DV?$istreambuf_iterator@DU?$char_traits@D@std@@@std@@@std@@QAE@ABV_Locinfo@1@I@Z 10030570 f i libcpmtd:locale.obj
 0001:0002f5d0       ?do_get@?$num_get@DV?$istreambuf_iterator@DU?$char_traits@D@std@@@std@@@std@@MBE?AV?$istreambuf_iterator@DU?$char_traits@D@std@@@2@V32@0AAVios_base@2@AAHAA_N@Z 100305d0 f i libcpmtd:locale.obj
 0001:0002f820       ?do_get@?$num_get@DV?$istreambuf_iterator@DU?$char_traits@D@std@@@std@@@std@@MBE?AV?$istreambuf_iterator@DU?$char_traits@D@std@@@2@V32@0AAVios_base@2@AAHAAG@Z 10030820 f i libcpmtd:locale.obj
 0001:0002f960       ?do_get@?$num_get@DV?$istreambuf_iterator@DU?$char_traits@D@std@@@std@@@std@@MBE?AV?$istreambuf_iterator@DU?$char_traits@D@std@@@2@V32@0AAVios_base@2@AAHAAI@Z 10030960 f i libcpmtd:locale.obj
 0001:0002faa0       ?do_get@?$num_get@DV?$istreambuf_iterator@DU?$char_traits@D@std@@@std@@@std@@MBE?AV?$istreambuf_iterator@DU?$char_traits@D@std@@@2@V32@0AAVios_base@2@AAHAAJ@Z 10030aa0 f i libcpmtd:locale.obj
 0001:0002fba0       ?do_get@?$num_get@DV?$istreambuf_iterator@DU?$char_traits@D@std@@@std@@@std@@MBE?AV?$istreambuf_iterator@DU?$char_traits@D@std@@@2@V32@0AAVios_base@2@AAHAAK@Z 10030ba0 f i libcpmtd:locale.obj
 0001:0002fca0       ?do_get@?$num_get@DV?$istreambuf_iterator@DU?$char_traits@D@std@@@std@@@std@@MBE?AV?$istreambuf_iterator@DU?$char_traits@D@std@@@2@V32@0AAVios_base@2@AAHAAM@Z 10030ca0 f i libcpmtd:locale.obj
 0001:0002fda0       ?do_get@?$num_get@DV?$istreambuf_iterator@DU?$char_traits@D@std@@@std@@@std@@MBE?AV?$istreambuf_iterator@DU?$char_traits@D@std@@@2@V32@0AAVios_base@2@AAHAAN@Z 10030da0 f i libcpmtd:locale.obj
 0001:0002fea0       ?do_get@?$num_get@DV?$istreambuf_iterator@DU?$char_traits@D@std@@@std@@@std@@MBE?AV?$istreambuf_iterator@DU?$char_traits@D@std@@@2@V32@0AAVios_base@2@AAHAAO@Z 10030ea0 f i libcpmtd:locale.obj
 0001:0002ffa0       ?do_get@?$num_get@DV?$istreambuf_iterator@DU?$char_traits@D@std@@@std@@@std@@MBE?AV?$istreambuf_iterator@DU?$char_traits@D@std@@@2@V32@0AAVios_base@2@AAHAAPAX@Z 10030fa0 f i libcpmtd:locale.obj
 0001:00030120       ?_Getcat@?$num_put@DV?$ostreambuf_iterator@DU?$char_traits@D@std@@@std@@@std@@SAIXZ 10031120 f i libcpmtd:locale.obj
 0001:00030130       ??0?$num_put@DV?$ostreambuf_iterator@DU?$char_traits@D@std@@@std@@@std@@QAE@ABV_Locinfo@1@I@Z 10031130 f i libcpmtd:locale.obj
 0001:00030190       ??0?$numpunct@D@std@@QAE@ABV_Locinfo@1@I@Z 10031190 f i libcpmtd:locale.obj
 0001:000301f0       ?_Getcat@?$numpunct@D@std@@SAIXZ 100311f0 f i libcpmtd:locale.obj
 0001:00030200       ??_G?$codecvt@DDH@std@@UAEPAXI@Z 10031200 f i libcpmtd:locale.obj
 0001:00030200       ??_E?$codecvt@DDH@std@@UAEPAXI@Z 10031200 f i libcpmtd:locale.obj
 0001:00030230       ??1?$codecvt@DDH@std@@UAE@XZ 10031230 f i libcpmtd:locale.obj
 0001:00030250       ??_E?$num_get@DV?$istreambuf_iterator@DU?$char_traits@D@std@@@std@@@std@@UAEPAXI@Z 10031250 f i libcpmtd:locale.obj
 0001:00030250       ??_G?$num_get@DV?$istreambuf_iterator@DU?$char_traits@D@std@@@std@@@std@@UAEPAXI@Z 10031250 f i libcpmtd:locale.obj
 0001:00030280       ??1?$num_get@DV?$istreambuf_iterator@DU?$char_traits@D@std@@@std@@@std@@UAE@XZ 10031280 f i libcpmtd:locale.obj
 0001:000302a0       ??0?$basic_string@DU?$char_traits@D@std@@V?$allocator@D@2@@std@@QAE@IDABV?$allocator@D@1@@Z 100312a0 f i libcpmtd:locale.obj
 0001:000302e0       ?_Init@?$codecvt@DDH@std@@IAEXABV_Locinfo@2@@Z 100312e0 f i libcpmtd:locale.obj
 0001:00030310       ?_Getcvt@_Locinfo@std@@QBE?AU_Cvtvec@@XZ 10031310 f i libcpmtd:locale.obj
 0001:00030340       ?_Init@?$num_get@DV?$istreambuf_iterator@DU?$char_traits@D@std@@@std@@@std@@IAEXABV_Locinfo@2@@Z 10031340 f i libcpmtd:locale.obj
 0001:00030350       ?_Getifld@?$num_get@DV?$istreambuf_iterator@DU?$char_traits@D@std@@@std@@@std@@CAHPADAAV?$istreambuf_iterator@DU?$char_traits@D@std@@@2@1HABVlocale@2@@Z 10031350 f i libcpmtd:locale.obj
 0001:000307f0       ?_Getffld@?$num_get@DV?$istreambuf_iterator@DU?$char_traits@D@std@@@std@@@std@@CAHPADAAV?$istreambuf_iterator@DU?$char_traits@D@std@@@2@1ABVlocale@2@@Z 100317f0 f i libcpmtd:locale.obj
 0001:00030cd0       ??D?$istreambuf_iterator@DU?$char_traits@D@std@@@std@@QBEABDXZ 10031cd0 f i libcpmtd:locale.obj
 0001:00030d00       ??E?$istreambuf_iterator@DU?$char_traits@D@std@@@std@@QAEAAV01@XZ 10031d00 f i libcpmtd:locale.obj
 0001:00030d20       ?assign@?$basic_string@DU?$char_traits@D@std@@V?$allocator@D@2@@std@@QAEAAV12@ID@Z 10031d20 f i libcpmtd:locale.obj
 0001:00030d80       ??A?$basic_string@DU?$char_traits@D@std@@V?$allocator@D@2@@std@@QAEAADI@Z 10031d80 f i libcpmtd:locale.obj
 0001:00030dc0       ?_Inc@?$istreambuf_iterator@DU?$char_traits@D@std@@@std@@AAEXXZ 10031dc0 f i libcpmtd:locale.obj
 0001:00030e20       ?sbumpc@?$basic_streambuf@DU?$char_traits@D@std@@@std@@QAEHXZ 10031e20 f i libcpmtd:locale.obj
 0001:00030e80       ?_Peek@?$istreambuf_iterator@DU?$char_traits@D@std@@@std@@AAEDXZ 10031e80 f i libcpmtd:locale.obj
 0001:00030ef0       ?sgetc@?$basic_streambuf@DU?$char_traits@D@std@@@std@@QAEHXZ 10031ef0 f i libcpmtd:locale.obj
 0001:00030f50       ?use_facet@std@@YAABV?$ctype@D@1@ABVlocale@1@PBV21@_N@Z 10031f50 f i libcpmtd:locale.obj
 0001:00031070       ??0?$ctype@D@std@@QAE@PBF_NI@Z 10032070 f i libcpmtd:locale.obj
 0001:00031160       ?use_facet@std@@YAABV?$num_get@DV?$istreambuf_iterator@DU?$char_traits@D@std@@@std@@@1@ABVlocale@1@PBV21@_N@Z 10032160 f i libcpmtd:locale.obj
 0001:00031280       ?use_facet@std@@YAABV?$codecvt@DDH@1@ABVlocale@1@PBV21@_N@Z 10032280 f i libcpmtd:locale.obj
 0001:000313a0       ?_Getloctxt@std@@YAHAAV?$istreambuf_iterator@DU?$char_traits@D@std@@@1@0IPBD@Z 100323a0 f i libcpmtd:locale.obj
 0001:000315d0       ??8std@@YA_NABV?$istreambuf_iterator@DU?$char_traits@D@std@@@0@0@Z 100325d0 f i libcpmtd:locale.obj
 0001:000315f0       ??9std@@YA_NABV?$istreambuf_iterator@DU?$char_traits@D@std@@@0@0@Z 100325f0 f i libcpmtd:locale.obj
 0001:00031610       ?_Narrow@std@@YAHD@Z       10032610 f i libcpmtd:locale.obj
 0001:00031620       ?isdigit@std@@YA_NDABVlocale@1@@Z 10032620 f i libcpmtd:locale.obj
 0001:00031650       ?is@?$ctype@D@std@@QBE_NFD@Z 10032650 f i libcpmtd:locale.obj
 0001:00031680       ??0?$codecvt@DDH@std@@QAE@I@Z 10032680 f i libcpmtd:locale.obj
 0001:00031710       ??0?$num_get@DV?$istreambuf_iterator@DU?$char_traits@D@std@@@std@@@std@@QAE@I@Z 10032710 f i libcpmtd:locale.obj
 0001:000317a0       ?equal@?$istreambuf_iterator@DU?$char_traits@D@std@@@std@@QBE_NABV12@@Z 100327a0 f i libcpmtd:locale.obj
 0001:00031810       ?_Save@?$_Tidyfac@V?$ctype@D@std@@@std@@SAPAV?$ctype@D@2@PAV32@@Z 10032810 f i libcpmtd:locale.obj
 0001:00031880       ?_Save@?$_Tidyfac@V?$num_get@DV?$istreambuf_iterator@DU?$char_traits@D@std@@@std@@@std@@@std@@SAPAV?$num_get@DV?$istreambuf_iterator@DU?$char_traits@D@std@@@std@@@2@PAV32@@Z 10032880 f i libcpmtd:locale.obj
 0001:000318f0       ?_Save@?$_Tidyfac@V?$codecvt@DDH@std@@@std@@SAPAV?$codecvt@DDH@2@PAV32@@Z 100328f0 f i libcpmtd:locale.obj
 0001:00031960       ?_Tidy@?$_Tidyfac@V?$ctype@D@std@@@std@@SAXXZ 10032960 f i libcpmtd:locale.obj
 0001:000319f0       ?_Tidy@?$_Tidyfac@V?$num_get@DV?$istreambuf_iterator@DU?$char_traits@D@std@@@std@@@std@@@std@@SAXXZ 100329f0 f i libcpmtd:locale.obj
 0001:00031a80       ?_Tidy@?$_Tidyfac@V?$codecvt@DDH@std@@@std@@SAXXZ 10032a80 f i libcpmtd:locale.obj
 0001:00031e10       ??0Init@ios_base@std@@QAE@XZ 10032e10 f   libcpmtd:iostream.obj
 0001:000320f0       ?setf@ios_base@std@@QAEHH@Z 100330f0 f i libcpmtd:iostream.obj
 0001:00032130       ??1Init@ios_base@std@@QAE@XZ 10033130 f   libcpmtd:iostream.obj
 0001:000321a0       ??0?$basic_ostream@DU?$char_traits@D@std@@@std@@QAE@W4_Uninitialized@1@@Z 100331a0 f i libcpmtd:iostream.obj
 0001:00032230       ?tie@?$basic_ios@DU?$char_traits@D@std@@@std@@QAEPAV?$basic_ostream@DU?$char_traits@D@std@@@2@PAV32@@Z 10033230 f i libcpmtd:iostream.obj
 0001:00032260       ??0?$basic_istream@DU?$char_traits@D@std@@@std@@QAE@W4_Uninitialized@1@@Z 10033260 f i libcpmtd:iostream.obj
 0001:000322f0       ??0?$basic_filebuf@DU?$char_traits@D@std@@@std@@QAE@W4_Uninitialized@1@@Z 100332f0 f i libcpmtd:iostream.obj
 0001:00032350       ??0?$basic_streambuf@DU?$char_traits@D@std@@@std@@IAE@W4_Uninitialized@1@@Z 10033350 f i libcpmtd:iostream.obj
 0001:00032600       ??_D?$basic_istream@GU?$char_traits@G@std@@@std@@QAEXXZ 10033600 f i libcpmtd:wiostrea.obj
 0001:00032690       ??_D?$basic_ostream@GU?$char_traits@G@std@@@std@@QAEXXZ 10033690 f i libcpmtd:wiostrea.obj
 0001:00032780       ??0_Winit@std@@QAE@XZ      10033780 f   libcpmtd:wiostrea.obj
 0001:00032a60       ??1_Winit@std@@QAE@XZ      10033a60 f   libcpmtd:wiostrea.obj
 0001:00032ad0       ??0?$basic_ostream@GU?$char_traits@G@std@@@std@@QAE@PAV?$basic_streambuf@GU?$char_traits@G@std@@@1@_N1@Z 10033ad0 f i libcpmtd:wiostrea.obj
 0001:00032b80       ??0?$basic_ostream@GU?$char_traits@G@std@@@std@@QAE@W4_Uninitialized@1@@Z 10033b80 f i libcpmtd:wiostrea.obj
 0001:00032c10       ??1?$basic_ostream@GU?$char_traits@G@std@@@std@@UAE@XZ 10033c10 f i libcpmtd:wiostrea.obj
 0001:00032c30       ?flush@?$basic_ostream@GU?$char_traits@G@std@@@std@@QAEAAV12@XZ 10033c30 f i libcpmtd:wiostrea.obj
 0001:00032ca0       ??1?$basic_ios@GU?$char_traits@G@std@@@std@@UAE@XZ 10033ca0 f i libcpmtd:wiostrea.obj
 0001:00032cc0       ?setstate@?$basic_ios@GU?$char_traits@G@std@@@std@@QAEXH_N@Z 10033cc0 f i libcpmtd:wiostrea.obj
 0001:00032cf0       ?tie@?$basic_ios@GU?$char_traits@G@std@@@std@@QAEPAV?$basic_ostream@GU?$char_traits@G@std@@@2@PAV32@@Z 10033cf0 f i libcpmtd:wiostrea.obj
 0001:00032d20       ?rdbuf@?$basic_ios@GU?$char_traits@G@std@@@std@@QBEPAV?$basic_streambuf@GU?$char_traits@G@std@@@2@XZ 10033d20 f i libcpmtd:wiostrea.obj
 0001:00032d40       ??0?$basic_istream@GU?$char_traits@G@std@@@std@@QAE@PAV?$basic_streambuf@GU?$char_traits@G@std@@@1@_N@Z 10033d40 f i libcpmtd:wiostrea.obj
 0001:00032de0       ??0?$basic_istream@GU?$char_traits@G@std@@@std@@QAE@W4_Uninitialized@1@@Z 10033de0 f i libcpmtd:wiostrea.obj
 0001:00032e70       ??1?$basic_istream@GU?$char_traits@G@std@@@std@@UAE@XZ 10033e70 f i libcpmtd:wiostrea.obj
 0001:00032e90       ??0?$basic_filebuf@GU?$char_traits@G@std@@@std@@QAE@PAU_iobuf@@@Z 10033e90 f i libcpmtd:wiostrea.obj
 0001:00032f00       ??1?$basic_streambuf@GU?$char_traits@G@std@@@std@@UAE@XZ 10033f00 f i libcpmtd:wiostrea.obj
 0001:00032f20       ?overflow@?$basic_streambuf@GU?$char_traits@G@std@@@std@@MAEGG@Z 10033f20 f i libcpmtd:wiostrea.obj
 0001:00032f40       ?eof@?$char_traits@G@std@@SAGXZ 10033f40 f i libcpmtd:wiostrea.obj
 0001:00032f50       ?pbackfail@?$basic_streambuf@GU?$char_traits@G@std@@@std@@MAEGG@Z 10033f50 f i libcpmtd:wiostrea.obj
 0001:00032f70       ?showmanyc@?$basic_streambuf@GU?$char_traits@G@std@@@std@@MAEHXZ 10033f70 f i libcpmtd:wiostrea.obj
 0001:00032f80       ?underflow@?$basic_streambuf@GU?$char_traits@G@std@@@std@@MAEGXZ 10033f80 f i libcpmtd:wiostrea.obj
 0001:00032f90       ?uflow@?$basic_streambuf@GU?$char_traits@G@std@@@std@@MAEGXZ 10033f90 f i libcpmtd:wiostrea.obj
 0001:00033000       ?to_int_type@?$char_traits@G@std@@SAGABG@Z 10034000 f i libcpmtd:wiostrea.obj
 0001:00033010       ?eq_int_type@?$char_traits@G@std@@SA_NABG0@Z 10034010 f i libcpmtd:wiostrea.obj
 0001:00033030       ?xsgetn@?$basic_streambuf@GU?$char_traits@G@std@@@std@@MAEHPAGH@Z 10034030 f i libcpmtd:wiostrea.obj
 0001:00033140       ?copy@?$char_traits@G@std@@SAPAGPAGPBGI@Z 10034140 f i libcpmtd:wiostrea.obj
 0001:00033160       _wmemcpy                   10034160 f i libcpmtd:wiostrea.obj
 0001:000331b0       ?to_char_type@?$char_traits@G@std@@SAGABG@Z 100341b0 f i libcpmtd:wiostrea.obj
 0001:000331c0       ?xsputn@?$basic_streambuf@GU?$char_traits@G@std@@@std@@MAEHPBGH@Z 100341c0 f i libcpmtd:wiostrea.obj
 0001:000332d0       ?seekoff@?$basic_streambuf@GU?$char_traits@G@std@@@std@@MAE?AV?$fpos@H@2@JW4seekdir@ios_base@2@H@Z 100342d0 f i libcpmtd:wiostrea.obj
 0001:00033300       ?seekpos@?$basic_streambuf@GU?$char_traits@G@std@@@std@@MAE?AV?$fpos@H@2@V32@H@Z 10034300 f i libcpmtd:wiostrea.obj
 0001:00033330       ?setbuf@?$basic_streambuf@GU?$char_traits@G@std@@@std@@MAEPAV12@PAGH@Z 10034330 f i libcpmtd:wiostrea.obj
 0001:00033340       ?sync@?$basic_streambuf@GU?$char_traits@G@std@@@std@@MAEHXZ 10034340 f i libcpmtd:wiostrea.obj
 0001:00033350       ?imbue@?$basic_streambuf@GU?$char_traits@G@std@@@std@@MAEXABVlocale@2@@Z 10034350 f i libcpmtd:wiostrea.obj
 0001:00033360       ??0?$basic_filebuf@GU?$char_traits@G@std@@@std@@QAE@W4_Uninitialized@1@@Z 10034360 f i libcpmtd:wiostrea.obj
 0001:000333c0       ??1?$basic_filebuf@GU?$char_traits@G@std@@@std@@UAE@XZ 100343c0 f i libcpmtd:wiostrea.obj
 0001:00033460       ?overflow@?$basic_filebuf@GU?$char_traits@G@std@@@std@@MAEGG@Z 10034460 f i libcpmtd:wiostrea.obj
 0001:00033680       ?not_eof@?$char_traits@G@std@@SAGABG@Z 10034680 f i libcpmtd:wiostrea.obj
 0001:000336d0       ?out@?$codecvt@GDH@std@@QBEHAAHPBG1AAPBGPAD3AAPAD@Z 100346d0 f i libcpmtd:wiostrea.obj
 0001:00033710       ?_Fputc@std@@YA_NGPAU_iobuf@@@Z 10034710 f i libcpmtd:wiostrea.obj
 0001:00033740       ?pbackfail@?$basic_filebuf@GU?$char_traits@G@std@@@std@@MAEGG@Z 10034740 f i libcpmtd:wiostrea.obj
 0001:000338d0       ?_Ungetc@std@@YA_NGPAU_iobuf@@@Z 100348d0 f i libcpmtd:wiostrea.obj
 0001:00033900       ?underflow@?$basic_filebuf@GU?$char_traits@G@std@@@std@@MAEGXZ 10034900 f i libcpmtd:wiostrea.obj
 0001:00033960       ?uflow@?$basic_filebuf@GU?$char_traits@G@std@@@std@@MAEGXZ 10034960 f i libcpmtd:wiostrea.obj
 0001:00033b00       ?in@?$codecvt@GDH@std@@QBEHAAHPBD1AAPBDPAG3AAPAG@Z 10034b00 f i libcpmtd:wiostrea.obj
 0001:00033b40       ?_Fgetc@std@@YA_NAAGPAU_iobuf@@@Z 10034b40 f i libcpmtd:wiostrea.obj
 0001:00033b80       ?seekoff@?$basic_filebuf@GU?$char_traits@G@std@@@std@@MAE?AV?$fpos@H@2@JW4seekdir@ios_base@2@H@Z 10034b80 f i libcpmtd:wiostrea.obj
 0001:00033c10       ?seekpos@?$basic_filebuf@GU?$char_traits@G@std@@@std@@MAE?AV?$fpos@H@2@V32@H@Z 10034c10 f i libcpmtd:wiostrea.obj
 0001:00033d10       ?setbuf@?$basic_filebuf@GU?$char_traits@G@std@@@std@@MAEPAV?$basic_streambuf@GU?$char_traits@G@std@@@2@PAGH@Z 10034d10 f i libcpmtd:wiostrea.obj
 0001:00033d60       ?sync@?$basic_filebuf@GU?$char_traits@G@std@@@std@@MAEHXZ 10034d60 f i libcpmtd:wiostrea.obj
 0001:00033da0       ??_G?$basic_ostream@GU?$char_traits@G@std@@@std@@UAEPAXI@Z 10034da0 f i libcpmtd:wiostrea.obj
 0001:00033da0       ??_E?$basic_ostream@GU?$char_traits@G@std@@@std@@UAEPAXI@Z 10034da0 f i libcpmtd:wiostrea.obj
 0001:00033de0       ??_G?$basic_ios@GU?$char_traits@G@std@@@std@@UAEPAXI@Z 10034de0 f i libcpmtd:wiostrea.obj
 0001:00033de0       ??_E?$basic_ios@GU?$char_traits@G@std@@@std@@UAEPAXI@Z 10034de0 f i libcpmtd:wiostrea.obj
 0001:00033e10       ??_G?$basic_istream@GU?$char_traits@G@std@@@std@@UAEPAXI@Z 10034e10 f i libcpmtd:wiostrea.obj
 0001:00033e10       ??_E?$basic_istream@GU?$char_traits@G@std@@@std@@UAEPAXI@Z 10034e10 f i libcpmtd:wiostrea.obj
 0001:00033e50       ??_E?$basic_streambuf@GU?$char_traits@G@std@@@std@@UAEPAXI@Z 10034e50 f i libcpmtd:wiostrea.obj
 0001:00033e50       ??_G?$basic_streambuf@GU?$char_traits@G@std@@@std@@UAEPAXI@Z 10034e50 f i libcpmtd:wiostrea.obj
 0001:00033e80       ??_G?$basic_filebuf@GU?$char_traits@G@std@@@std@@UAEPAXI@Z 10034e80 f i libcpmtd:wiostrea.obj
 0001:00033e80       ??_E?$basic_filebuf@GU?$char_traits@G@std@@@std@@UAEPAXI@Z 10034e80 f i libcpmtd:wiostrea.obj
 0001:00033eb0       ?clear@?$basic_ios@GU?$char_traits@G@std@@@std@@QAEXH_N@Z 10034eb0 f i libcpmtd:wiostrea.obj
 0001:00033ef0       ?init@?$basic_ios@GU?$char_traits@G@std@@@std@@IAEXPAV?$basic_streambuf@GU?$char_traits@G@std@@@2@_N@Z 10034ef0 f i libcpmtd:wiostrea.obj
 0001:00033f60       ?_Widen@std@@YAGDPAG@Z     10034f60 f i libcpmtd:wiostrea.obj
 0001:00033f80       ??0?$basic_ios@GU?$char_traits@G@std@@@std@@IAE@XZ 10034f80 f i libcpmtd:wiostrea.obj
 0001:00033fa0       ??0?$basic_streambuf@GU?$char_traits@G@std@@@std@@IAE@XZ 10034fa0 f i libcpmtd:wiostrea.obj
 0001:00034000       ??0?$basic_streambuf@GU?$char_traits@G@std@@@std@@IAE@W4_Uninitialized@1@@Z 10035000 f i libcpmtd:wiostrea.obj
 0001:00034030       ?pubsync@?$basic_streambuf@GU?$char_traits@G@std@@@std@@QAEHXZ 10035030 f i libcpmtd:wiostrea.obj
 0001:00034050       ?eback@?$basic_streambuf@GU?$char_traits@G@std@@@std@@IBEPAGXZ 10035050 f i libcpmtd:wiostrea.obj
 0001:00034070       ?gptr@?$basic_streambuf@GU?$char_traits@G@std@@@std@@IBEPAGXZ 10035070 f i libcpmtd:wiostrea.obj
 0001:00034090       ?pptr@?$basic_streambuf@GU?$char_traits@G@std@@@std@@IBEPAGXZ 10035090 f i libcpmtd:wiostrea.obj
 0001:000340b0       ?egptr@?$basic_streambuf@GU?$char_traits@G@std@@@std@@IBEPAGXZ 100350b0 f i libcpmtd:wiostrea.obj
 0001:000340d0       ?gbump@?$basic_streambuf@GU?$char_traits@G@std@@@std@@IAEXH@Z 100350d0 f i libcpmtd:wiostrea.obj
 0001:00034110       ?epptr@?$basic_streambuf@GU?$char_traits@G@std@@@std@@IBEPAGXZ 10035110 f i libcpmtd:wiostrea.obj
 0001:00034130       ?_Gndec@?$basic_streambuf@GU?$char_traits@G@std@@@std@@IAEPAGXZ 10035130 f i libcpmtd:wiostrea.obj
 0001:00034170       ?_Gninc@?$basic_streambuf@GU?$char_traits@G@std@@@std@@IAEPAGXZ 10035170 f i libcpmtd:wiostrea.obj
 0001:000341b0       ?pbump@?$basic_streambuf@GU?$char_traits@G@std@@@std@@IAEXH@Z 100351b0 f i libcpmtd:wiostrea.obj
 0001:000341f0       ?_Pninc@?$basic_streambuf@GU?$char_traits@G@std@@@std@@IAEPAGXZ 100351f0 f i libcpmtd:wiostrea.obj
 0001:00034230       ?close@?$basic_filebuf@GU?$char_traits@G@std@@@std@@QAEPAV12@XZ 10035230 f i libcpmtd:wiostrea.obj
 0001:00034270       ?_Init@?$basic_filebuf@GU?$char_traits@G@std@@@std@@IAEXPAU_iobuf@@W4_Initfl@12@@Z 10035270 f i libcpmtd:wiostrea.obj
 0001:00034350       ?_Init@?$basic_streambuf@GU?$char_traits@G@std@@@std@@IAEXXZ 10035350 f i libcpmtd:wiostrea.obj
 0001:000343c0       ?_Init@?$basic_streambuf@GU?$char_traits@G@std@@@std@@IAEXPAPAG0PAH001@Z 100353c0 f i libcpmtd:wiostrea.obj
 0001:00034410       ?setg@?$basic_streambuf@GU?$char_traits@G@std@@@std@@IAEXPAG00@Z 10035410 f i libcpmtd:wiostrea.obj
 0001:00034450       ?setp@?$basic_streambuf@GU?$char_traits@G@std@@@std@@IAEXPAG0@Z 10035450 f i libcpmtd:wiostrea.obj
 0001:000344f0       ?_Nomemory@std@@YAXXZ      100354f0 f   libcpmtd:nomemory.obj
 0001:00034550       ??0bad_alloc@std@@QAE@PBD@Z 10035550 f i libcpmtd:nomemory.obj
 0001:00034580       ??1bad_alloc@std@@UAE@XZ   10035580 f i libcpmtd:nomemory.obj
 0001:000345a0       ?_Doraise@bad_alloc@std@@MBEXXZ 100355a0 f i libcpmtd:nomemory.obj
 0001:000345d0       ??_Gbad_alloc@std@@UAEPAXI@Z 100355d0 f i libcpmtd:nomemory.obj
 0001:000345d0       ??_Ebad_alloc@std@@UAEPAXI@Z 100355d0 f i libcpmtd:nomemory.obj
 0001:00034600       ??0bad_alloc@std@@QAE@ABV01@@Z 10035600 f i libcpmtd:nomemory.obj
 0001:00034640       ?_Makewloc@_Locimp@locale@std@@CAXABV_Locinfo@3@HPAV123@PBV23@@Z 10035640 f   libcpmtd:wlocale.obj
 0001:00034ec0       ??0?$codecvt@GDH@std@@QAE@ABV_Locinfo@1@I@Z 10035ec0 f i libcpmtd:wlocale.obj
 0001:00034f20       ?_Getcat@?$codecvt@GDH@std@@SAIXZ 10035f20 f i libcpmtd:wlocale.obj
 0001:00034f30       ?_Init@?$codecvt@GDH@std@@IAEXABV_Locinfo@2@@Z 10035f30 f i libcpmtd:wlocale.obj
 0001:00034f60       ?do_in@?$codecvt@GDH@std@@MBEHAAHPBD1AAPBDPAG3AAPAG@Z 10035f60 f i libcpmtd:wlocale.obj
 0001:00035050       ?do_out@?$codecvt@GDH@std@@MBEHAAHPBG1AAPBGPAD3AAPAD@Z 10036050 f i libcpmtd:wlocale.obj
 0001:000351a0       ?do_length@?$codecvt@GDH@std@@MBEHAAHPBG1I@Z 100361a0 f i libcpmtd:wlocale.obj
 0001:00035220       ?do_always_noconv@?$codecvt@GDH@std@@MBE_NXZ 10036220 f i libcpmtd:wlocale.obj
 0001:00035230       ?do_max_length@?$codecvt@GDH@std@@MBEHXZ 10036230 f i libcpmtd:wlocale.obj
 0001:00035240       ?do_encoding@?$codecvt@GDH@std@@MBEHXZ 10036240 f i libcpmtd:wlocale.obj
 0001:00035250       ??_E?$codecvt@GDH@std@@UAEPAXI@Z 10036250 f i libcpmtd:wlocale.obj
 0001:00035250       ??_G?$codecvt@GDH@std@@UAEPAXI@Z 10036250 f i libcpmtd:wlocale.obj
 0001:00035280       ??1?$codecvt@GDH@std@@UAE@XZ 10036280 f i libcpmtd:wlocale.obj
 0001:000352a0       ??0?$ctype@G@std@@QAE@ABV_Locinfo@1@I@Z 100362a0 f i libcpmtd:wlocale.obj
 0001:00035300       ?_Getcat@?$ctype@G@std@@SAIXZ 10036300 f i libcpmtd:wlocale.obj
 0001:00035310       ?do_is@?$ctype@G@std@@MBE_NFG@Z 10036310 f i libcpmtd:wlocale.obj
 0001:00035350       ?do_is@?$ctype@G@std@@MBEPBGPBG0PAF@Z 10036350 f i libcpmtd:wlocale.obj
 0001:000353b0       ?do_scan_is@?$ctype@G@std@@MBEPBGFPBG0@Z 100363b0 f i libcpmtd:wlocale.obj
 0001:00035400       ?is@?$ctype@G@std@@QBE_NFG@Z 10036400 f i libcpmtd:wlocale.obj
 0001:00035430       ?do_scan_not@?$ctype@G@std@@MBEPBGFPBG0@Z 10036430 f i libcpmtd:wlocale.obj
 0001:00035480       ?do_tolower@?$ctype@G@std@@MBEGG@Z 10036480 f i libcpmtd:wlocale.obj
 0001:000354c0       ?do_tolower@?$ctype@G@std@@MBEPBGPAGPBG@Z 100364c0 f i libcpmtd:wlocale.obj
 0001:00035510       ?do_toupper@?$ctype@G@std@@MBEGG@Z 10036510 f i libcpmtd:wlocale.obj
 0001:00035550       ?do_toupper@?$ctype@G@std@@MBEPBGPAGPBG@Z 10036550 f i libcpmtd:wlocale.obj
 0001:000355a0       ?do_widen@?$ctype@G@std@@MBEGD@Z 100365a0 f i libcpmtd:wlocale.obj
 0001:000355c0       ?do_widen@?$ctype@G@std@@MBEPBDPBD0PAG@Z 100365c0 f i libcpmtd:wlocale.obj
 0001:00035610       ?do_narrow@?$ctype@G@std@@MBEDGD@Z 10036610 f i libcpmtd:wlocale.obj
 0001:00035630       ?_Narrow@std@@YAHG@Z       10036630 f i libcpmtd:wlocale.obj
 0001:00035650       ?do_narrow@?$ctype@G@std@@MBEPBGPBG0DPAD@Z 10036650 f i libcpmtd:wlocale.obj
 0001:000356a0       ??0?$time_put@GV?$ostreambuf_iterator@GU?$char_traits@G@std@@@std@@@std@@QAE@ABV_Locinfo@1@I@Z 100366a0 f i libcpmtd:wlocale.obj
 0001:00035710       ??0_Timevec@std@@QAE@PAX@Z 10036710 f i libcpmtd:wlocale.obj
 0001:00035730       ??1_Timevec@std@@QAE@XZ    10036730 f i libcpmtd:wlocale.obj
 0001:00035750       ??0time_base@std@@QAE@I@Z  10036750 f i libcpmtd:wlocale.obj
 0001:00035780       ??_Etime_base@std@@UAEPAXI@Z 10036780 f i libcpmtd:wlocale.obj
 0001:00035780       ??_Gtime_base@std@@UAEPAXI@Z 10036780 f i libcpmtd:wlocale.obj
 0001:000357b0       ??1time_base@std@@UAE@XZ   100367b0 f i libcpmtd:wlocale.obj
 0001:000357d0       ?_Getcat@?$time_put@GV?$ostreambuf_iterator@GU?$char_traits@G@std@@@std@@@std@@SAIXZ 100367d0 f i libcpmtd:wlocale.obj
 0001:000357e0       ?do_put@?$time_put@GV?$ostreambuf_iterator@GU?$char_traits@G@std@@@std@@@std@@MBE?AV?$ostreambuf_iterator@GU?$char_traits@G@std@@@2@V32@AAVios_base@2@PBUtm@@DD@Z 100367e0 f i libcpmtd:wlocale.obj
 0001:00035920       ?_Getptr@_Timevec@std@@QBEPAXXZ 10036920 f i libcpmtd:wlocale.obj
 0001:00035930       ?_Getcat@?$num_get@GV?$istreambuf_iterator@GU?$char_traits@G@std@@@std@@@std@@SAIXZ 10036930 f i libcpmtd:wlocale.obj
 0001:00035940       ??0?$num_get@GV?$istreambuf_iterator@GU?$char_traits@G@std@@@std@@@std@@QAE@ABV_Locinfo@1@I@Z 10036940 f i libcpmtd:wlocale.obj
 0001:000359a0       ?do_get@?$num_get@GV?$istreambuf_iterator@GU?$char_traits@G@std@@@std@@@std@@MBE?AV?$istreambuf_iterator@GU?$char_traits@G@std@@@2@V32@0AAVios_base@2@AAHAA_N@Z 100369a0 f i libcpmtd:wlocale.obj
 0001:00035bf0       ?do_get@?$num_get@GV?$istreambuf_iterator@GU?$char_traits@G@std@@@std@@@std@@MBE?AV?$istreambuf_iterator@GU?$char_traits@G@std@@@2@V32@0AAVios_base@2@AAHAAG@Z 10036bf0 f i libcpmtd:wlocale.obj
 0001:00035d30       ?do_get@?$num_get@GV?$istreambuf_iterator@GU?$char_traits@G@std@@@std@@@std@@MBE?AV?$istreambuf_iterator@GU?$char_traits@G@std@@@2@V32@0AAVios_base@2@AAHAAI@Z 10036d30 f i libcpmtd:wlocale.obj
 0001:00035e70       ?do_get@?$num_get@GV?$istreambuf_iterator@GU?$char_traits@G@std@@@std@@@std@@MBE?AV?$istreambuf_iterator@GU?$char_traits@G@std@@@2@V32@0AAVios_base@2@AAHAAJ@Z 10036e70 f i libcpmtd:wlocale.obj
 0001:00035f70       ?do_get@?$num_get@GV?$istreambuf_iterator@GU?$char_traits@G@std@@@std@@@std@@MBE?AV?$istreambuf_iterator@GU?$char_traits@G@std@@@2@V32@0AAVios_base@2@AAHAAK@Z 10036f70 f i libcpmtd:wlocale.obj
 0001:00036070       ?do_get@?$num_get@GV?$istreambuf_iterator@GU?$char_traits@G@std@@@std@@@std@@MBE?AV?$istreambuf_iterator@GU?$char_traits@G@std@@@2@V32@0AAVios_base@2@AAHAAM@Z 10037070 f i libcpmtd:wlocale.obj
 0001:00036170       ?do_get@?$num_get@GV?$istreambuf_iterator@GU?$char_traits@G@std@@@std@@@std@@MBE?AV?$istreambuf_iterator@GU?$char_traits@G@std@@@2@V32@0AAVios_base@2@AAHAAN@Z 10037170 f i libcpmtd:wlocale.obj
 0001:00036270       ?do_get@?$num_get@GV?$istreambuf_iterator@GU?$char_traits@G@std@@@std@@@std@@MBE?AV?$istreambuf_iterator@GU?$char_traits@G@std@@@2@V32@0AAVios_base@2@AAHAAO@Z 10037270 f i libcpmtd:wlocale.obj
 0001:00036370       ?do_get@?$num_get@GV?$istreambuf_iterator@GU?$char_traits@G@std@@@std@@@std@@MBE?AV?$istreambuf_iterator@GU?$char_traits@G@std@@@2@V32@0AAVios_base@2@AAHAAPAX@Z 10037370 f i libcpmtd:wlocale.obj
 0001:00036500       ?_Getcat@?$num_put@GV?$ostreambuf_iterator@GU?$char_traits@G@std@@@std@@@std@@SAIXZ 10037500 f i libcpmtd:wlocale.obj
 0001:00036510       ??0?$num_put@GV?$ostreambuf_iterator@GU?$char_traits@G@std@@@std@@@std@@QAE@ABV_Locinfo@1@I@Z 10037510 f i libcpmtd:wlocale.obj
 0001:00036570       ?do_put@?$num_put@GV?$ostreambuf_iterator@GU?$char_traits@G@std@@@std@@@std@@MBE?AV?$ostreambuf_iterator@GU?$char_traits@G@std@@@2@V32@AAVios_base@2@G_N@Z 10037570 f i libcpmtd:wlocale.obj
 0001:000367b0       ?do_put@?$num_put@GV?$ostreambuf_iterator@GU?$char_traits@G@std@@@std@@@std@@MBE?AV?$ostreambuf_iterator@GU?$char_traits@G@std@@@2@V32@AAVios_base@2@GJ@Z 100377b0 f i libcpmtd:wlocale.obj
 0001:00036820       ?do_put@?$num_put@GV?$ostreambuf_iterator@GU?$char_traits@G@std@@@std@@@std@@MBE?AV?$ostreambuf_iterator@GU?$char_traits@G@std@@@2@V32@AAVios_base@2@GK@Z 10037820 f i libcpmtd:wlocale.obj
 0001:00036890       ?do_put@?$num_put@GV?$ostreambuf_iterator@GU?$char_traits@G@std@@@std@@@std@@MBE?AV?$ostreambuf_iterator@GU?$char_traits@G@std@@@2@V32@AAVios_base@2@GN@Z 10037890 f i libcpmtd:wlocale.obj
 0001:00036960       ?do_put@?$num_put@GV?$ostreambuf_iterator@GU?$char_traits@G@std@@@std@@@std@@MBE?AV?$ostreambuf_iterator@GU?$char_traits@G@std@@@2@V32@AAVios_base@2@GO@Z 10037960 f i libcpmtd:wlocale.obj
 0001:00036a30       ?do_put@?$num_put@GV?$ostreambuf_iterator@GU?$char_traits@G@std@@@std@@@std@@MBE?AV?$ostreambuf_iterator@GU?$char_traits@G@std@@@2@V32@AAVios_base@2@GPBX@Z 10037a30 f i libcpmtd:wlocale.obj
 0001:00036b40       ??0?$numpunct@G@std@@QAE@ABV_Locinfo@1@I@Z 10037b40 f i libcpmtd:wlocale.obj
 0001:00036ba0       ?_Getcat@?$numpunct@G@std@@SAIXZ 10037ba0 f i libcpmtd:wlocale.obj
 0001:00036bb0       ?do_decimal_point@?$numpunct@G@std@@MBEGXZ 10037bb0 f i libcpmtd:wlocale.obj
 0001:00036bd0       ?do_thousands_sep@?$numpunct@G@std@@MBEGXZ 10037bd0 f i libcpmtd:wlocale.obj
 0001:00036bf0       ?do_grouping@?$numpunct@G@std@@MBE?AV?$basic_string@DU?$char_traits@D@std@@V?$allocator@D@2@@2@XZ 10037bf0 f i libcpmtd:wlocale.obj
 0001:00036c30       ?do_falsename@?$numpunct@G@std@@MBE?AV?$basic_string@GU?$char_traits@G@std@@V?$allocator@G@2@@2@XZ 10037c30 f i libcpmtd:wlocale.obj
 0001:00036c70       ?do_truename@?$numpunct@G@std@@MBE?AV?$basic_string@GU?$char_traits@G@std@@V?$allocator@G@2@@2@XZ 10037c70 f i libcpmtd:wlocale.obj
 0001:00036cb0       ??0?$collate@G@std@@QAE@ABV_Locinfo@1@I@Z 10037cb0 f i libcpmtd:wlocale.obj
 0001:00036d10       ?_Getcat@?$collate@G@std@@SAIXZ 10037d10 f i libcpmtd:wlocale.obj
 0001:00036d20       ?do_compare@?$collate@G@std@@MBEHPBG000@Z 10037d20 f i libcpmtd:wlocale.obj
 0001:00036d50       ?do_transform@?$collate@G@std@@MBE?AV?$basic_string@GU?$char_traits@G@std@@V?$allocator@G@2@@2@PBG0@Z 10037d50 f i libcpmtd:wlocale.obj
 0001:00036e50       ?do_hash@?$collate@G@std@@MBEJPBG0@Z 10037e50 f i libcpmtd:wlocale.obj
 0001:00036ea0       ??0?$messages@G@std@@QAE@ABV_Locinfo@1@I@Z 10037ea0 f i libcpmtd:wlocale.obj
 0001:00036f00       ??0messages_base@std@@QAE@I@Z 10037f00 f i libcpmtd:wlocale.obj
 0001:00036f30       ??_Gmessages_base@std@@UAEPAXI@Z 10037f30 f i libcpmtd:wlocale.obj
 0001:00036f30       ??_Emessages_base@std@@UAEPAXI@Z 10037f30 f i libcpmtd:wlocale.obj
 0001:00036f60       ??1messages_base@std@@UAE@XZ 10037f60 f i libcpmtd:wlocale.obj
 0001:00036f80       ?_Getcat@?$messages@G@std@@SAIXZ 10037f80 f i libcpmtd:wlocale.obj
 0001:00036f90       ?do_open@?$messages@G@std@@MBEHABV?$basic_string@DU?$char_traits@D@std@@V?$allocator@D@2@@2@ABVlocale@2@@Z 10037f90 f i libcpmtd:wlocale.obj
 0001:00036fa0       ?do_get@?$messages@G@std@@MBE?AV?$basic_string@GU?$char_traits@G@std@@V?$allocator@G@2@@2@HHHABV32@@Z 10037fa0 f i libcpmtd:wlocale.obj
 0001:00037020       ?do_close@?$messages@G@std@@MBEXH@Z 10038020 f i libcpmtd:wlocale.obj
 0001:00037030       ??0?$money_get@GV?$istreambuf_iterator@GU?$char_traits@G@std@@@std@@@std@@QAE@ABV_Locinfo@1@I@Z 10038030 f i libcpmtd:wlocale.obj
 0001:00037090       ?_Getcat@?$money_get@GV?$istreambuf_iterator@GU?$char_traits@G@std@@@std@@@std@@SAIXZ 10038090 f i libcpmtd:wlocale.obj
 0001:000370a0       ?do_get@?$money_get@GV?$istreambuf_iterator@GU?$char_traits@G@std@@@std@@@std@@MBE?AV?$istreambuf_iterator@GU?$char_traits@G@std@@@2@V32@0_NAAVios_base@2@AAHAAO@Z 100380a0 f i libcpmtd:wlocale.obj
 0001:00037220       ?do_get@?$money_get@GV?$istreambuf_iterator@GU?$char_traits@G@std@@@std@@@std@@MBE?AV?$istreambuf_iterator@GU?$char_traits@G@std@@@2@V32@0_NAAVios_base@2@AAHAAV?$basic_string@GU?$char_traits@G@std@@V?$allocator@G@2@@2@@Z 10038220 f i libcpmtd:wlocale.obj
 0001:000372e0       ??0?$money_put@GV?$ostreambuf_iterator@GU?$char_traits@G@std@@@std@@@std@@QAE@ABV_Locinfo@1@I@Z 100382e0 f i libcpmtd:wlocale.obj
 0001:00037340       ?_Getcat@?$money_put@GV?$ostreambuf_iterator@GU?$char_traits@G@std@@@std@@@std@@SAIXZ 10038340 f i libcpmtd:wlocale.obj
 0001:00037350       ?do_put@?$money_put@GV?$ostreambuf_iterator@GU?$char_traits@G@std@@@std@@@std@@MBE?AV?$ostreambuf_iterator@GU?$char_traits@G@std@@@2@V32@_NAAVios_base@2@GO@Z 10038350 f i libcpmtd:wlocale.obj
 0001:000374c0       ?do_put@?$money_put@GV?$ostreambuf_iterator@GU?$char_traits@G@std@@@std@@@std@@MBE?AV?$ostreambuf_iterator@GU?$char_traits@G@std@@@2@V32@_NAAVios_base@2@GABV?$basic_string@GU?$char_traits@G@std@@V?$allocator@G@2@@2@@Z 100384c0 f i libcpmtd:wlocale.obj
 0001:00037640       ??0?$moneypunct@G$0A@@std@@QAE@ABV_Locinfo@1@I@Z 10038640 f i libcpmtd:wlocale.obj
 0001:00037670       ?_Getcat@?$moneypunct@G$0A@@std@@SAIXZ 10038670 f i libcpmtd:wlocale.obj
 0001:00037680       ?do_decimal_point@?$_Mpunct@G@std@@MBEGXZ 10038680 f i libcpmtd:wlocale.obj
 0001:000376a0       ?do_thousands_sep@?$_Mpunct@G@std@@MBEGXZ 100386a0 f i libcpmtd:wlocale.obj
 0001:000376c0       ?do_grouping@?$_Mpunct@G@std@@MBE?AV?$basic_string@DU?$char_traits@D@std@@V?$allocator@D@2@@2@XZ 100386c0 f i libcpmtd:wlocale.obj
 0001:00037700       ?do_curr_symbol@?$_Mpunct@G@std@@MBE?AV?$basic_string@GU?$char_traits@G@std@@V?$allocator@G@2@@2@XZ 10038700 f i libcpmtd:wlocale.obj
 0001:00037740       ?do_positive_sign@?$_Mpunct@G@std@@MBE?AV?$basic_string@GU?$char_traits@G@std@@V?$allocator@G@2@@2@XZ 10038740 f i libcpmtd:wlocale.obj
 0001:00037780       ?do_negative_sign@?$_Mpunct@G@std@@MBE?AV?$basic_string@GU?$char_traits@G@std@@V?$allocator@G@2@@2@XZ 10038780 f i libcpmtd:wlocale.obj
 0001:000377c0       ?do_frac_digits@?$_Mpunct@G@std@@MBEHXZ 100387c0 f i libcpmtd:wlocale.obj
 0001:000377e0       ?do_pos_format@?$_Mpunct@G@std@@MBE?AUpattern@money_base@2@XZ 100387e0 f i libcpmtd:wlocale.obj
 0001:00037800       ?do_neg_format@?$_Mpunct@G@std@@MBE?AUpattern@money_base@2@XZ 10038800 f i libcpmtd:wlocale.obj
 0001:00037820       ??0?$moneypunct@G$00@std@@QAE@ABV_Locinfo@1@I@Z 10038820 f i libcpmtd:wlocale.obj
 0001:00037850       ?_Getcat@?$moneypunct@G$00@std@@SAIXZ 10038850 f i libcpmtd:wlocale.obj
 0001:00037860       ??0?$time_get@GV?$istreambuf_iterator@GU?$char_traits@G@std@@@std@@@std@@QAE@ABV_Locinfo@1@I@Z 10038860 f i libcpmtd:wlocale.obj
 0001:000378c0       ?_Getcat@?$time_get@GV?$istreambuf_iterator@GU?$char_traits@G@std@@@std@@@std@@SAIXZ 100388c0 f i libcpmtd:wlocale.obj
 0001:000378d0       ?do_date_order@?$time_get@GV?$istreambuf_iterator@GU?$char_traits@G@std@@@std@@@std@@MBEHXZ 100388d0 f i libcpmtd:wlocale.obj
 0001:000378e0       ?do_get_time@?$time_get@GV?$istreambuf_iterator@GU?$char_traits@G@std@@@std@@@std@@MBE?AV?$istreambuf_iterator@GU?$char_traits@G@std@@@2@V32@0AAVios_base@2@AAHPAUtm@@@Z 100388e0 f i libcpmtd:wlocale.obj
 0001:000379f0       ?do_get_date@?$time_get@GV?$istreambuf_iterator@GU?$char_traits@G@std@@@std@@@std@@MBE?AV?$istreambuf_iterator@GU?$char_traits@G@std@@@2@V32@0AAVios_base@2@AAHPAUtm@@@Z 100389f0 f i libcpmtd:wlocale.obj
 0001:00037ba0       ?do_get_weekday@?$time_get@GV?$istreambuf_iterator@GU?$char_traits@G@std@@@std@@@std@@MBE?AV?$istreambuf_iterator@GU?$char_traits@G@std@@@2@V32@0AAVios_base@2@AAHPAUtm@@@Z 10038ba0 f i libcpmtd:wlocale.obj
 0001:00037c00       ?do_get_monthname@?$time_get@GV?$istreambuf_iterator@GU?$char_traits@G@std@@@std@@@std@@MBE?AV?$istreambuf_iterator@GU?$char_traits@G@std@@@2@V32@0AAVios_base@2@AAHPAUtm@@@Z 10038c00 f i libcpmtd:wlocale.obj
 0001:00037c60       ?do_get_year@?$time_get@GV?$istreambuf_iterator@GU?$char_traits@G@std@@@std@@@std@@MBE?AV?$istreambuf_iterator@GU?$char_traits@G@std@@@2@V32@0AAVios_base@2@AAHPAUtm@@@Z 10038c60 f i libcpmtd:wlocale.obj
 0001:00037d00       ??_E?$ctype@G@std@@UAEPAXI@Z 10038d00 f i libcpmtd:wlocale.obj
 0001:00037d00       ??_G?$ctype@G@std@@UAEPAXI@Z 10038d00 f i libcpmtd:wlocale.obj
 0001:00037d30       ??1?$ctype@G@std@@UAE@XZ   10038d30 f i libcpmtd:wlocale.obj
 0001:00037d70       ??_G?$time_put@GV?$ostreambuf_iterator@GU?$char_traits@G@std@@@std@@@std@@UAEPAXI@Z 10038d70 f i libcpmtd:wlocale.obj
 0001:00037d70       ??_E?$time_put@GV?$ostreambuf_iterator@GU?$char_traits@G@std@@@std@@@std@@UAEPAXI@Z 10038d70 f i libcpmtd:wlocale.obj
 0001:00037da0       ??1?$time_put@GV?$ostreambuf_iterator@GU?$char_traits@G@std@@@std@@@std@@UAE@XZ 10038da0 f i libcpmtd:wlocale.obj
 0001:00037e00       ??_E?$num_get@GV?$istreambuf_iterator@GU?$char_traits@G@std@@@std@@@std@@UAEPAXI@Z 10038e00 f i libcpmtd:wlocale.obj
 0001:00037e00       ??_G?$num_get@GV?$istreambuf_iterator@GU?$char_traits@G@std@@@std@@@std@@UAEPAXI@Z 10038e00 f i libcpmtd:wlocale.obj
 0001:00037e30       ??1?$num_get@GV?$istreambuf_iterator@GU?$char_traits@G@std@@@std@@@std@@UAE@XZ 10038e30 f i libcpmtd:wlocale.obj
 0001:00037e50       ??_G?$num_put@GV?$ostreambuf_iterator@GU?$char_traits@G@std@@@std@@@std@@UAEPAXI@Z 10038e50 f i libcpmtd:wlocale.obj
 0001:00037e50       ??_E?$num_put@GV?$ostreambuf_iterator@GU?$char_traits@G@std@@@std@@@std@@UAEPAXI@Z 10038e50 f i libcpmtd:wlocale.obj
 0001:00037e80       ??1?$num_put@GV?$ostreambuf_iterator@GU?$char_traits@G@std@@@std@@@std@@UAE@XZ 10038e80 f i libcpmtd:wlocale.obj
 0001:00037ea0       ??_G?$numpunct@G@std@@UAEPAXI@Z 10038ea0 f i libcpmtd:wlocale.obj
 0001:00037ea0       ??_E?$numpunct@G@std@@UAEPAXI@Z 10038ea0 f i libcpmtd:wlocale.obj
 0001:00037ed0       ??1?$numpunct@G@std@@UAE@XZ 10038ed0 f i libcpmtd:wlocale.obj
 0001:00037f30       ??_E?$collate@G@std@@UAEPAXI@Z 10038f30 f i libcpmtd:wlocale.obj
 0001:00037f30       ??_G?$collate@G@std@@UAEPAXI@Z 10038f30 f i libcpmtd:wlocale.obj
 0001:00037f60       ??1?$collate@G@std@@UAE@XZ 10038f60 f i libcpmtd:wlocale.obj
 0001:00037f80       ??_G?$messages@G@std@@UAEPAXI@Z 10038f80 f i libcpmtd:wlocale.obj
 0001:00037f80       ??_E?$messages@G@std@@UAEPAXI@Z 10038f80 f i libcpmtd:wlocale.obj
 0001:00037fb0       ??1?$messages@G@std@@UAE@XZ 10038fb0 f i libcpmtd:wlocale.obj
 0001:00038000       ??_E?$money_get@GV?$istreambuf_iterator@GU?$char_traits@G@std@@@std@@@std@@UAEPAXI@Z 10039000 f i libcpmtd:wlocale.obj
 0001:00038000       ??_G?$money_get@GV?$istreambuf_iterator@GU?$char_traits@G@std@@@std@@@std@@UAEPAXI@Z 10039000 f i libcpmtd:wlocale.obj
 0001:00038030       ??1?$money_get@GV?$istreambuf_iterator@GU?$char_traits@G@std@@@std@@@std@@UAE@XZ 10039030 f i libcpmtd:wlocale.obj
 0001:00038050       ??_G?$money_put@GV?$ostreambuf_iterator@GU?$char_traits@G@std@@@std@@@std@@UAEPAXI@Z 10039050 f i libcpmtd:wlocale.obj
 0001:00038050       ??_E?$money_put@GV?$ostreambuf_iterator@GU?$char_traits@G@std@@@std@@@std@@UAEPAXI@Z 10039050 f i libcpmtd:wlocale.obj
 0001:00038080       ??1?$money_put@GV?$ostreambuf_iterator@GU?$char_traits@G@std@@@std@@@std@@UAE@XZ 10039080 f i libcpmtd:wlocale.obj
 0001:000380a0       ??_E?$moneypunct@G$0A@@std@@UAEPAXI@Z 100390a0 f i libcpmtd:wlocale.obj
 0001:000380a0       ??_G?$moneypunct@G$0A@@std@@UAEPAXI@Z 100390a0 f i libcpmtd:wlocale.obj
 0001:000380d0       ??_E?$moneypunct@G$00@std@@UAEPAXI@Z 100390d0 f i libcpmtd:wlocale.obj
 0001:000380d0       ??_G?$moneypunct@G$00@std@@UAEPAXI@Z 100390d0 f i libcpmtd:wlocale.obj
 0001:00038100       ??_G?$time_get@GV?$istreambuf_iterator@GU?$char_traits@G@std@@@std@@@std@@UAEPAXI@Z 10039100 f i libcpmtd:wlocale.obj
 0001:00038100       ??_E?$time_get@GV?$istreambuf_iterator@GU?$char_traits@G@std@@@std@@@std@@UAEPAXI@Z 10039100 f i libcpmtd:wlocale.obj
 0001:00038130       ??1?$time_get@GV?$istreambuf_iterator@GU?$char_traits@G@std@@@std@@@std@@UAE@XZ 10039130 f i libcpmtd:wlocale.obj
 0001:00038180       ??1?$moneypunct@G$0A@@std@@UAE@XZ 10039180 f i libcpmtd:wlocale.obj
 0001:000381a0       ??1?$_Mpunct@G@std@@UAE@XZ 100391a0 f i libcpmtd:wlocale.obj
 0001:00038220       ??1money_base@std@@UAE@XZ  10039220 f i libcpmtd:wlocale.obj
 0001:00038240       ??_G?$_Mpunct@G@std@@UAEPAXI@Z 10039240 f i libcpmtd:wlocale.obj
 0001:00038240       ??_E?$_Mpunct@G@std@@UAEPAXI@Z 10039240 f i libcpmtd:wlocale.obj
 0001:00038270       ??1?$moneypunct@G$00@std@@UAE@XZ 10039270 f i libcpmtd:wlocale.obj
 0001:00038290       ?reserve@?$basic_string@DU?$char_traits@D@std@@V?$allocator@D@2@@std@@QAEXI@Z 10039290 f i libcpmtd:wlocale.obj
 0001:000382c0       ?widen@?$ctype@G@std@@QBEGD@Z 100392c0 f i libcpmtd:wlocale.obj
 0001:000382e0       ?narrow@?$ctype@G@std@@QBEDGD@Z 100392e0 f i libcpmtd:wlocale.obj
 0001:00038310       ?_Init@?$ctype@G@std@@IAEXABV_Locinfo@2@@Z 10039310 f i libcpmtd:wlocale.obj
 0001:00038350       ?_Init@?$time_put@GV?$ostreambuf_iterator@GU?$char_traits@G@std@@@std@@@std@@IAEXABV_Locinfo@2@@Z 10039350 f i libcpmtd:wlocale.obj
 0001:000383c0       ??4_Timevec@std@@QAEAAV01@ABV01@@Z 100393c0 f i libcpmtd:wlocale.obj
 0001:000383f0       ?_Gettnames@_Locinfo@std@@QBE?AV_Timevec@2@XZ 100393f0 f i libcpmtd:wlocale.obj
 0001:00038420       ??4?$ostreambuf_iterator@GU?$char_traits@G@std@@@std@@QAEAAV01@G@Z 10039420 f i libcpmtd:wlocale.obj
 0001:00038480       ?sputc@?$basic_streambuf@GU?$char_traits@G@std@@@std@@QAEGG@Z 10039480 f i libcpmtd:wlocale.obj
 0001:00038500       ??D?$ostreambuf_iterator@GU?$char_traits@G@std@@@std@@QAEAAV01@XZ 10039500 f i libcpmtd:wlocale.obj
 0001:00038510       ??E?$ostreambuf_iterator@GU?$char_traits@G@std@@@std@@QAEAAV01@XZ 10039510 f i libcpmtd:wlocale.obj
 0001:00038520       ?_Init@?$num_get@GV?$istreambuf_iterator@GU?$char_traits@G@std@@@std@@@std@@IAEXABV_Locinfo@2@@Z 10039520 f i libcpmtd:wlocale.obj
 0001:00038530       ?_Getifld@?$num_get@GV?$istreambuf_iterator@GU?$char_traits@G@std@@@std@@@std@@CAHPADAAV?$istreambuf_iterator@GU?$char_traits@G@std@@@2@1HABVlocale@2@@Z 10039530 f i libcpmtd:wlocale.obj
 0001:00038a00       ?_Getffld@?$num_get@GV?$istreambuf_iterator@GU?$char_traits@G@std@@@std@@@std@@CAHPADAAV?$istreambuf_iterator@GU?$char_traits@G@std@@@2@1ABVlocale@2@@Z 10039a00 f i libcpmtd:wlocale.obj
 0001:00038f10       ??D?$istreambuf_iterator@GU?$char_traits@G@std@@@std@@QBEABGXZ 10039f10 f i libcpmtd:wlocale.obj
 0001:00038f40       ??E?$istreambuf_iterator@GU?$char_traits@G@std@@@std@@QAEAAV01@XZ 10039f40 f i libcpmtd:wlocale.obj
 0001:00038f60       ?_Init@?$num_put@GV?$ostreambuf_iterator@GU?$char_traits@G@std@@@std@@@std@@IAEXABV_Locinfo@2@@Z 10039f60 f i libcpmtd:wlocale.obj
 0001:00038f70       ?_Ffmt@?$num_put@GV?$ostreambuf_iterator@GU?$char_traits@G@std@@@std@@@std@@KAPADPADDH@Z 10039f70 f i libcpmtd:wlocale.obj
 0001:00039040       ?_Fput@?$num_put@GV?$ostreambuf_iterator@GU?$char_traits@G@std@@@std@@@std@@KA?AV?$ostreambuf_iterator@GU?$char_traits@G@std@@@2@V32@AAVios_base@2@GPBDII@Z 1003a040 f i libcpmtd:wlocale.obj
 0001:00039400       ?_Ifmt@?$num_put@GV?$ostreambuf_iterator@GU?$char_traits@G@std@@@std@@@std@@KAPADPADDH@Z 1003a400 f i libcpmtd:wlocale.obj
 0001:000394c0       ?_Iput@?$num_put@GV?$ostreambuf_iterator@GU?$char_traits@G@std@@@std@@@std@@KA?AV?$ostreambuf_iterator@GU?$char_traits@G@std@@@2@V32@AAVios_base@2@GPADI@Z 1003a4c0 f i libcpmtd:wlocale.obj
 0001:000398a0       ?_Put@?$num_put@GV?$ostreambuf_iterator@GU?$char_traits@G@std@@@std@@@std@@KA?AV?$ostreambuf_iterator@GU?$char_traits@G@std@@@2@V32@PBGI@Z 1003a8a0 f i libcpmtd:wlocale.obj
 0001:000398f0       ?_Putc@?$num_put@GV?$ostreambuf_iterator@GU?$char_traits@G@std@@@std@@@std@@KA?AV?$ostreambuf_iterator@GU?$char_traits@G@std@@@2@V32@PBDI@Z 1003a8f0 f i libcpmtd:wlocale.obj
 0001:00039950       ?_Rep@?$num_put@GV?$ostreambuf_iterator@GU?$char_traits@G@std@@@std@@@std@@KA?AV?$ostreambuf_iterator@GU?$char_traits@G@std@@@2@V32@GI@Z 1003a950 f i libcpmtd:wlocale.obj
 0001:000399a0       ?falsename@?$numpunct@G@std@@QBE?AV?$basic_string@GU?$char_traits@G@std@@V?$allocator@G@2@@2@XZ 1003a9a0 f i libcpmtd:wlocale.obj
 0001:000399d0       ?truename@?$numpunct@G@std@@QBE?AV?$basic_string@GU?$char_traits@G@std@@V?$allocator@G@2@@2@XZ 1003a9d0 f i libcpmtd:wlocale.obj
 0001:00039a00       ?_Init@?$numpunct@G@std@@IAEXABV_Locinfo@2@@Z 1003aa00 f i libcpmtd:wlocale.obj
 0001:00039aa0       ?_Init@?$collate@G@std@@IAEXABV_Locinfo@2@@Z 1003aaa0 f i libcpmtd:wlocale.obj
 0001:00039ad0       ?_Getcoll@_Locinfo@std@@QBE?AU_Collvec@@XZ 1003aad0 f i libcpmtd:wlocale.obj
 0001:00039b00       ?_Init@?$messages@G@std@@IAEXABV_Locinfo@2@@Z 1003ab00 f i libcpmtd:wlocale.obj
 0001:00039b40       ?_Getno@_Locinfo@std@@QBEPBDXZ 1003ab40 f i libcpmtd:wlocale.obj
 0001:00039b50       ?_Getyes@_Locinfo@std@@QBEPBDXZ 1003ab50 f i libcpmtd:wlocale.obj
 0001:00039b60       ?_Init@?$money_get@GV?$istreambuf_iterator@GU?$char_traits@G@std@@@std@@@std@@IAEXABV_Locinfo@2@@Z 1003ab60 f i libcpmtd:wlocale.obj
 0001:00039b70       ?_Getmfld@?$money_get@GV?$istreambuf_iterator@GU?$char_traits@G@std@@@std@@@std@@ABE?AV?$basic_string@GU?$char_traits@G@std@@V?$allocator@G@2@@2@AAV?$istreambuf_iterator@GU?$char_traits@G@std@@@2@0_NAAVios_base@2@@Z 1003ab70 f i libcpmtd:wlocale.obj
 0001:0003a640       ?_Init@?$money_put@GV?$ostreambuf_iterator@GU?$char_traits@G@std@@@std@@@std@@IAEXABV_Locinfo@2@@Z 1003b640 f i libcpmtd:wlocale.obj
 0001:0003a650       ?_Putmfld@?$money_put@GV?$ostreambuf_iterator@GU?$char_traits@G@std@@@std@@@std@@ABE?AV?$ostreambuf_iterator@GU?$char_traits@G@std@@@2@V32@_NAAVios_base@2@G1V?$basic_string@GU?$char_traits@G@std@@V?$allocator@G@2@@2@@Z 1003b650 f i libcpmtd:wlocale.obj
 0001:0003aed0       ??0?$basic_string@GU?$char_traits@G@std@@V?$allocator@G@2@@std@@QAE@ABV?$allocator@G@1@@Z 1003bed0 f i libcpmtd:wlocale.obj
 0001:0003af00       ??0?$basic_string@GU?$char_traits@G@std@@V?$allocator@G@2@@std@@QAE@ABV01@@Z 1003bf00 f i libcpmtd:wlocale.obj
 0001:0003af40       ??0?$basic_string@GU?$char_traits@G@std@@V?$allocator@G@2@@std@@QAE@PBGIABV?$allocator@G@1@@Z 1003bf40 f i libcpmtd:wlocale.obj
 0001:0003af80       ??0?$basic_string@GU?$char_traits@G@std@@V?$allocator@G@2@@std@@QAE@PBGABV?$allocator@G@1@@Z 1003bf80 f i libcpmtd:wlocale.obj
 0001:0003afb0       ??0?$basic_string@GU?$char_traits@G@std@@V?$allocator@G@2@@std@@QAE@IGABV?$allocator@G@1@@Z 1003bfb0 f i libcpmtd:wlocale.obj
 0001:0003aff0       ??1?$basic_string@GU?$char_traits@G@std@@V?$allocator@G@2@@std@@QAE@XZ 1003bff0 f i libcpmtd:wlocale.obj
 0001:0003b010       ??4?$basic_string@GU?$char_traits@G@std@@V?$allocator@G@2@@std@@QAEAAV01@ABV01@@Z 1003c010 f i libcpmtd:wlocale.obj
 0001:0003b030       ??Y?$basic_string@GU?$char_traits@G@std@@V?$allocator@G@2@@std@@QAEAAV01@ABV01@@Z 1003c030 f i libcpmtd:wlocale.obj
 0001:0003b050       ??Y?$basic_string@GU?$char_traits@G@std@@V?$allocator@G@2@@std@@QAEAAV01@G@Z 1003c050 f i libcpmtd:wlocale.obj
 0001:0003b070       ?append@?$basic_string@GU?$char_traits@G@std@@V?$allocator@G@2@@std@@QAEAAV12@IG@Z 1003c070 f i libcpmtd:wlocale.obj
 0001:0003b0f0       ?assign@?$char_traits@G@std@@SAPAGPAGIABG@Z 1003c0f0 f i libcpmtd:wlocale.obj
 0001:0003b110       _wmemset                   1003c110 f i libcpmtd:wlocale.obj
 0001:0003b150       ?begin@?$basic_string@GU?$char_traits@G@std@@V?$allocator@G@2@@std@@QAEPAGXZ 1003c150 f i libcpmtd:wlocale.obj
 0001:0003b170       ?end@?$basic_string@GU?$char_traits@G@std@@V?$allocator@G@2@@std@@QAEPAGXZ 1003c170 f i libcpmtd:wlocale.obj
 0001:0003b1a0       ??A?$basic_string@GU?$char_traits@G@std@@V?$allocator@G@2@@std@@QAEAAGI@Z 1003c1a0 f i libcpmtd:wlocale.obj
 0001:0003b1e0       ?c_str@?$basic_string@GU?$char_traits@G@std@@V?$allocator@G@2@@std@@QBEPBGXZ 1003c1e0 f i libcpmtd:wlocale.obj
 0001:0003b210       ?size@?$basic_string@GU?$char_traits@G@std@@V?$allocator@G@2@@std@@QBEIXZ 1003c210 f i libcpmtd:wlocale.obj
 0001:0003b230       ?resize@?$basic_string@GU?$char_traits@G@std@@V?$allocator@G@2@@std@@QAEXI@Z 1003c230 f i libcpmtd:wlocale.obj
 0001:0003b280       ??0?$_Mpunct@G@std@@QAE@ABV_Locinfo@1@I_N@Z 1003c280 f i libcpmtd:wlocale.obj
 0001:0003b2f0       ??0money_base@std@@QAE@I@Z 1003c2f0 f i libcpmtd:wlocale.obj
 0001:0003b320       ??_Gmoney_base@std@@UAEPAXI@Z 1003c320 f i libcpmtd:wlocale.obj
 0001:0003b320       ??_Emoney_base@std@@UAEPAXI@Z 1003c320 f i libcpmtd:wlocale.obj
 0001:0003b350       ?get_monthname@?$time_get@GV?$istreambuf_iterator@GU?$char_traits@G@std@@@std@@@std@@QBE?AV?$istreambuf_iterator@GU?$char_traits@G@std@@@2@V32@0AAVios_base@2@AAHPAUtm@@@Z 1003c350 f i libcpmtd:wlocale.obj
 0001:0003b3a0       ?get_year@?$time_get@GV?$istreambuf_iterator@GU?$char_traits@G@std@@@std@@@std@@QBE?AV?$istreambuf_iterator@GU?$char_traits@G@std@@@2@V32@0AAVios_base@2@AAHPAUtm@@@Z 1003c3a0 f i libcpmtd:wlocale.obj
 0001:0003b3f0       ?_Init@?$time_get@GV?$istreambuf_iterator@GU?$char_traits@G@std@@@std@@@std@@IAEXABV_Locinfo@2@@Z 1003c3f0 f i libcpmtd:wlocale.obj
 0001:0003b430       ?_Getdays@_Locinfo@std@@QBEPBDXZ 1003c430 f i libcpmtd:wlocale.obj
 0001:0003b490       ?_Getmonths@_Locinfo@std@@QBEPBDXZ 1003c490 f i libcpmtd:wlocale.obj
 0001:0003b4f0       ?_Getint@?$time_get@GV?$istreambuf_iterator@GU?$char_traits@G@std@@@std@@@std@@CAHAAV?$istreambuf_iterator@GU?$char_traits@G@std@@@2@0HHAAH@Z 1003c4f0 f i libcpmtd:wlocale.obj
 0001:0003b710       ??E?$ostreambuf_iterator@GU?$char_traits@G@std@@@std@@QAEAAV01@H@Z 1003c710 f i libcpmtd:wlocale.obj
 0001:0003b720       ??E?$istreambuf_iterator@GU?$char_traits@G@std@@@std@@QAE?AV01@H@Z 1003c720 f i libcpmtd:wlocale.obj
 0001:0003b770       ?_Inc@?$istreambuf_iterator@GU?$char_traits@G@std@@@std@@AAEXXZ 1003c770 f i libcpmtd:wlocale.obj
 0001:0003b7d0       ?sbumpc@?$basic_streambuf@GU?$char_traits@G@std@@@std@@QAEGXZ 1003c7d0 f i libcpmtd:wlocale.obj
 0001:0003b830       ?_Peek@?$istreambuf_iterator@GU?$char_traits@G@std@@@std@@AAEGXZ 1003c830 f i libcpmtd:wlocale.obj
 0001:0003b8b0       ?sgetc@?$basic_streambuf@GU?$char_traits@G@std@@@std@@QAEGXZ 1003c8b0 f i libcpmtd:wlocale.obj
 0001:0003b910       ?decimal_point@?$numpunct@G@std@@QBEGXZ 1003c910 f i libcpmtd:wlocale.obj
 0001:0003b930       ?thousands_sep@?$numpunct@G@std@@QBEGXZ 1003c930 f i libcpmtd:wlocale.obj
 0001:0003b950       ?grouping@?$numpunct@G@std@@QBE?AV?$basic_string@DU?$char_traits@D@std@@V?$allocator@D@2@@2@XZ 1003c950 f i libcpmtd:wlocale.obj
 0001:0003b980       ?_Put@?$money_put@GV?$ostreambuf_iterator@GU?$char_traits@G@std@@@std@@@std@@CA?AV?$ostreambuf_iterator@GU?$char_traits@G@std@@@2@V32@PBGI@Z 1003c980 f i libcpmtd:wlocale.obj
 0001:0003b9d0       ?_Rep@?$money_put@GV?$ostreambuf_iterator@GU?$char_traits@G@std@@@std@@@std@@CA?AV?$ostreambuf_iterator@GU?$char_traits@G@std@@@2@V32@GI@Z 1003c9d0 f i libcpmtd:wlocale.obj
 0001:0003ba20       ?append@?$basic_string@GU?$char_traits@G@std@@V?$allocator@G@2@@std@@QAEAAV12@ABV12@@Z 1003ca20 f i libcpmtd:wlocale.obj
 0001:0003ba50       ?assign@?$basic_string@GU?$char_traits@G@std@@V?$allocator@G@2@@std@@QAEAAV12@ABV12@@Z 1003ca50 f i libcpmtd:wlocale.obj
 0001:0003ba80       ?assign@?$basic_string@GU?$char_traits@G@std@@V?$allocator@G@2@@std@@QAEAAV12@ABV12@II@Z 1003ca80 f i libcpmtd:wlocale.obj
 0001:0003bbe0       ?assign@?$basic_string@GU?$char_traits@G@std@@V?$allocator@G@2@@std@@QAEAAV12@PBGI@Z 1003cbe0 f i libcpmtd:wlocale.obj
 0001:0003bc30       ?assign@?$basic_string@GU?$char_traits@G@std@@V?$allocator@G@2@@std@@QAEAAV12@PBG@Z 1003cc30 f i libcpmtd:wlocale.obj
 0001:0003bc60       ?length@?$char_traits@G@std@@SAIPBG@Z 1003cc60 f i libcpmtd:wlocale.obj
 0001:0003bc80       ?assign@?$basic_string@GU?$char_traits@G@std@@V?$allocator@G@2@@std@@QAEAAV12@IG@Z 1003cc80 f i libcpmtd:wlocale.obj
 0001:0003bce0       ?insert@?$basic_string@GU?$char_traits@G@std@@V?$allocator@G@2@@std@@QAEAAV12@IIG@Z 1003cce0 f i libcpmtd:wlocale.obj
 0001:0003bda0       ?move@?$char_traits@G@std@@SAPAGPAGPBGI@Z 1003cda0 f i libcpmtd:wlocale.obj
 0001:0003bdc0       _wmemmove                  1003cdc0 f i libcpmtd:wlocale.obj
 0001:0003be70       ?erase@?$basic_string@GU?$char_traits@G@std@@V?$allocator@G@2@@std@@QAEAAV12@II@Z 1003ce70 f i libcpmtd:wlocale.obj
 0001:0003bf20       ?_Eos@?$basic_string@GU?$char_traits@G@std@@V?$allocator@G@2@@std@@AAEXI@Z 1003cf20 f i libcpmtd:wlocale.obj
 0001:0003bf60       ?assign@?$char_traits@G@std@@SAXAAGABG@Z 1003cf60 f i libcpmtd:wlocale.obj
 0001:0003bf80       ?_Freeze@?$basic_string@GU?$char_traits@G@std@@V?$allocator@G@2@@std@@AAEXXZ 1003cf80 f i libcpmtd:wlocale.obj
 0001:0003c000       ?_Grow@?$basic_string@GU?$char_traits@G@std@@V?$allocator@G@2@@std@@AAE_NI_N@Z 1003d000 f i libcpmtd:wlocale.obj
 0001:0003c140       ?_Nullstr@?$basic_string@GU?$char_traits@G@std@@V?$allocator@G@2@@std@@CAPBGXZ 1003d140 f i libcpmtd:wlocale.obj
 0001:0003c150       ?_Psum@?$basic_string@GU?$char_traits@G@std@@V?$allocator@G@2@@std@@CAPAGPAGI@Z 1003d150 f i libcpmtd:wlocale.obj
 0001:0003c180       ?_Tidy@?$basic_string@GU?$char_traits@G@std@@V?$allocator@G@2@@std@@AAEX_N@Z 1003d180 f i libcpmtd:wlocale.obj
 0001:0003c240       ?decimal_point@?$_Mpunct@G@std@@QBEGXZ 1003d240 f i libcpmtd:wlocale.obj
 0001:0003c260       ?thousands_sep@?$_Mpunct@G@std@@QBEGXZ 1003d260 f i libcpmtd:wlocale.obj
 0001:0003c280       ?grouping@?$_Mpunct@G@std@@QBE?AV?$basic_string@DU?$char_traits@D@std@@V?$allocator@D@2@@2@XZ 1003d280 f i libcpmtd:wlocale.obj
 0001:0003c2b0       ?curr_symbol@?$_Mpunct@G@std@@QBE?AV?$basic_string@GU?$char_traits@G@std@@V?$allocator@G@2@@2@XZ 1003d2b0 f i libcpmtd:wlocale.obj
 0001:0003c2e0       ?positive_sign@?$_Mpunct@G@std@@QBE?AV?$basic_string@GU?$char_traits@G@std@@V?$allocator@G@2@@2@XZ 1003d2e0 f i libcpmtd:wlocale.obj
 0001:0003c310       ?negative_sign@?$_Mpunct@G@std@@QBE?AV?$basic_string@GU?$char_traits@G@std@@V?$allocator@G@2@@2@XZ 1003d310 f i libcpmtd:wlocale.obj
 0001:0003c340       ?frac_digits@?$_Mpunct@G@std@@QBEHXZ 1003d340 f i libcpmtd:wlocale.obj
 0001:0003c360       ?pos_format@?$_Mpunct@G@std@@QBE?AUpattern@money_base@2@XZ 1003d360 f i libcpmtd:wlocale.obj
 0001:0003c390       ?neg_format@?$_Mpunct@G@std@@QBE?AUpattern@money_base@2@XZ 1003d390 f i libcpmtd:wlocale.obj
 0001:0003c3c0       ?_Init@?$_Mpunct@G@std@@IAEXABV_Locinfo@2@@Z 1003d3c0 f i libcpmtd:wlocale.obj
 0001:0003c570       ?append@?$basic_string@GU?$char_traits@G@std@@V?$allocator@G@2@@std@@QAEAAV12@ABV12@II@Z 1003d570 f i libcpmtd:wlocale.obj
 0001:0003c630       ?max_size@?$basic_string@GU?$char_traits@G@std@@V?$allocator@G@2@@std@@QBEIXZ 1003d630 f i libcpmtd:wlocale.obj
 0001:0003c670       ?capacity@?$basic_string@GU?$char_traits@G@std@@V?$allocator@G@2@@std@@QBEIXZ 1003d670 f i libcpmtd:wlocale.obj
 0001:0003c690       ?_Copy@?$basic_string@GU?$char_traits@G@std@@V?$allocator@G@2@@std@@AAEXI@Z 1003d690 f i libcpmtd:wlocale.obj
 0001:0003c7d0       ?_Refcnt@?$basic_string@GU?$char_traits@G@std@@V?$allocator@G@2@@std@@AAEAAEPBG@Z 1003d7d0 f i libcpmtd:wlocale.obj
 0001:0003c7f0       ?_Split@?$basic_string@GU?$char_traits@G@std@@V?$allocator@G@2@@std@@AAEXXZ 1003d7f0 f i libcpmtd:wlocale.obj
 0001:0003c860       ?deallocate@?$allocator@G@std@@QAEXPAXI@Z 1003d860 f i libcpmtd:wlocale.obj
 0001:0003c880       ?_Makpat@?$_Mpunct@G@std@@AAEXAAUpattern@money_base@2@DDD@Z 1003d880 f i libcpmtd:wlocale.obj
 0001:0003c920       ?allocate@?$allocator@G@std@@QAEPAGIPBX@Z 1003d920 f i libcpmtd:wlocale.obj
 0001:0003c940       ?max_size@?$allocator@G@std@@QBEIXZ 1003d940 f i libcpmtd:wlocale.obj
 0001:0003c970       ?use_facet@std@@YAABV?$ctype@G@1@ABVlocale@1@PBV21@_N@Z 1003d970 f i libcpmtd:wlocale.obj
 0001:0003ca90       ?use_facet@std@@YAABV?$num_get@GV?$istreambuf_iterator@GU?$char_traits@G@std@@@std@@@1@ABVlocale@1@PBV21@_N@Z 1003da90 f i libcpmtd:wlocale.obj
 0001:0003cbb0       ?use_facet@std@@YAABV?$num_put@GV?$ostreambuf_iterator@GU?$char_traits@G@std@@@std@@@1@ABVlocale@1@PBV21@_N@Z 1003dbb0 f i libcpmtd:wlocale.obj
 0001:0003ccd0       ?use_facet@std@@YAABV?$numpunct@G@1@ABVlocale@1@PBV21@_N@Z 1003dcd0 f i libcpmtd:wlocale.obj
 0001:0003cdf0       ?use_facet@std@@YAABV?$collate@G@1@ABVlocale@1@PBV21@_N@Z 1003ddf0 f i libcpmtd:wlocale.obj
 0001:0003cf10       ?use_facet@std@@YAABV?$messages@G@1@ABVlocale@1@PBV21@_N@Z 1003df10 f i libcpmtd:wlocale.obj
 0001:0003d030       ?use_facet@std@@YAABV?$money_get@GV?$istreambuf_iterator@GU?$char_traits@G@std@@@std@@@1@ABVlocale@1@PBV21@_N@Z 1003e030 f i libcpmtd:wlocale.obj
 0001:0003d150       ?use_facet@std@@YAABV?$money_put@GV?$ostreambuf_iterator@GU?$char_traits@G@std@@@std@@@1@ABVlocale@1@PBV21@_N@Z 1003e150 f i libcpmtd:wlocale.obj
 0001:0003d270       ?use_facet@std@@YAABV?$moneypunct@G$0A@@1@ABVlocale@1@PBV21@_N@Z 1003e270 f i libcpmtd:wlocale.obj
 0001:0003d390       ?use_facet@std@@YAABV?$moneypunct@G$00@1@ABVlocale@1@PBV21@_N@Z 1003e390 f i libcpmtd:wlocale.obj
 0001:0003d4b0       ?use_facet@std@@YAABV?$time_get@GV?$istreambuf_iterator@GU?$char_traits@G@std@@@std@@@1@ABVlocale@1@PBV21@_N@Z 1003e4b0 f i libcpmtd:wlocale.obj
 0001:0003d5d0       ?use_facet@std@@YAABV?$time_put@GV?$ostreambuf_iterator@GU?$char_traits@G@std@@@std@@@1@ABVlocale@1@PBV21@_N@Z 1003e5d0 f i libcpmtd:wlocale.obj
 0001:0003d6f0       ?use_facet@std@@YAABV?$codecvt@GDH@1@ABVlocale@1@PBV21@_N@Z 1003e6f0 f i libcpmtd:wlocale.obj
 0001:0003d810       ??0?$codecvt@GDH@std@@QAE@I@Z 1003e810 f i libcpmtd:wlocale.obj
 0001:0003d8a0       ?_Getloctxt@std@@YAHAAV?$istreambuf_iterator@GU?$char_traits@G@std@@@1@0IPBG@Z 1003e8a0 f i libcpmtd:wlocale.obj
 0001:0003daf0       ??8std@@YA_NABV?$istreambuf_iterator@GU?$char_traits@G@std@@@0@0@Z 1003eaf0 f i libcpmtd:wlocale.obj
 0001:0003db10       ?_Strcoll@std@@YAHPBG000PBU_Collvec@@@Z 1003eb10 f i libcpmtd:wlocale.obj
 0001:0003dba0       ?_Strxfrm@std@@YAIPAG0PBG1PBU_Collvec@@@Z 1003eba0 f i libcpmtd:wlocale.obj
 0001:0003dbe0       ??9std@@YA_NABV?$istreambuf_iterator@GU?$char_traits@G@std@@@0@0@Z 1003ebe0 f i libcpmtd:wlocale.obj
 0001:0003dc00       ?_Maklocstr@std@@YAPAGPBDPAG@Z 1003ec00 f i libcpmtd:wlocale.obj
 0001:0003dc80       ??8std@@YA_NABV?$allocator@G@0@0@Z 1003ec80 f i libcpmtd:wlocale.obj
 0001:0003dc90       ?_Allocate@std@@YAPAGHPAG@Z 1003ec90 f i libcpmtd:wlocale.obj
 0001:0003dcb0       ??0?$ctype@G@std@@QAE@I@Z  1003ecb0 f i libcpmtd:wlocale.obj
 0001:0003dd40       ??0?$time_put@GV?$ostreambuf_iterator@GU?$char_traits@G@std@@@std@@@std@@QAE@I@Z 1003ed40 f i libcpmtd:wlocale.obj
 0001:0003dde0       ??0?$num_get@GV?$istreambuf_iterator@GU?$char_traits@G@std@@@std@@@std@@QAE@I@Z 1003ede0 f i libcpmtd:wlocale.obj
 0001:0003de70       ?equal@?$istreambuf_iterator@GU?$char_traits@G@std@@@std@@QBE_NABV12@@Z 1003ee70 f i libcpmtd:wlocale.obj
 0001:0003dee0       ??0?$num_put@GV?$ostreambuf_iterator@GU?$char_traits@G@std@@@std@@@std@@QAE@I@Z 1003eee0 f i libcpmtd:wlocale.obj
 0001:0003df70       ??0?$numpunct@G@std@@QAE@I@Z 1003ef70 f i libcpmtd:wlocale.obj
 0001:0003e000       ??0?$collate@G@std@@QAE@I@Z 1003f000 f i libcpmtd:wlocale.obj
 0001:0003e090       ??0?$messages@G@std@@QAE@I@Z 1003f090 f i libcpmtd:wlocale.obj
 0001:0003e120       ??0?$money_get@GV?$istreambuf_iterator@GU?$char_traits@G@std@@@std@@@std@@QAE@I@Z 1003f120 f i libcpmtd:wlocale.obj
 0001:0003e1b0       ??0?$money_put@GV?$ostreambuf_iterator@GU?$char_traits@G@std@@@std@@@std@@QAE@I@Z 1003f1b0 f i libcpmtd:wlocale.obj
 0001:0003e240       ??0?$moneypunct@G$0A@@std@@QAE@I@Z 1003f240 f i libcpmtd:wlocale.obj
 0001:0003e270       ??0?$moneypunct@G$00@std@@QAE@I@Z 1003f270 f i libcpmtd:wlocale.obj
 0001:0003e2a0       ??0?$time_get@GV?$istreambuf_iterator@GU?$char_traits@G@std@@@std@@@std@@QAE@I@Z 1003f2a0 f i libcpmtd:wlocale.obj
 0001:0003e330       ?_Save@?$_Tidyfac@V?$ctype@G@std@@@std@@SAPAV?$ctype@G@2@PAV32@@Z 1003f330 f i libcpmtd:wlocale.obj
 0001:0003e3a0       ?_Save@?$_Tidyfac@V?$num_get@GV?$istreambuf_iterator@GU?$char_traits@G@std@@@std@@@std@@@std@@SAPAV?$num_get@GV?$istreambuf_iterator@GU?$char_traits@G@std@@@std@@@2@PAV32@@Z 1003f3a0 f i libcpmtd:wlocale.obj
 0001:0003e410       ?_Save@?$_Tidyfac@V?$num_put@GV?$ostreambuf_iterator@GU?$char_traits@G@std@@@std@@@std@@@std@@SAPAV?$num_put@GV?$ostreambuf_iterator@GU?$char_traits@G@std@@@std@@@2@PAV32@@Z 1003f410 f i libcpmtd:wlocale.obj
 0001:0003e480       ?_Save@?$_Tidyfac@V?$numpunct@G@std@@@std@@SAPAV?$numpunct@G@2@PAV32@@Z 1003f480 f i libcpmtd:wlocale.obj
 0001:0003e4f0       ?_Save@?$_Tidyfac@V?$collate@G@std@@@std@@SAPAV?$collate@G@2@PAV32@@Z 1003f4f0 f i libcpmtd:wlocale.obj
 0001:0003e560       ?_Save@?$_Tidyfac@V?$messages@G@std@@@std@@SAPAV?$messages@G@2@PAV32@@Z 1003f560 f i libcpmtd:wlocale.obj
 0001:0003e5d0       ?_Save@?$_Tidyfac@V?$money_get@GV?$istreambuf_iterator@GU?$char_traits@G@std@@@std@@@std@@@std@@SAPAV?$money_get@GV?$istreambuf_iterator@GU?$char_traits@G@std@@@std@@@2@PAV32@@Z 1003f5d0 f i libcpmtd:wlocale.obj
 0001:0003e640       ?_Save@?$_Tidyfac@V?$money_put@GV?$ostreambuf_iterator@GU?$char_traits@G@std@@@std@@@std@@@std@@SAPAV?$money_put@GV?$ostreambuf_iterator@GU?$char_traits@G@std@@@std@@@2@PAV32@@Z 1003f640 f i libcpmtd:wlocale.obj
 0001:0003e6b0       ?_Save@?$_Tidyfac@V?$moneypunct@G$0A@@std@@@std@@SAPAV?$moneypunct@G$0A@@2@PAV32@@Z 1003f6b0 f i libcpmtd:wlocale.obj
 0001:0003e720       ?_Save@?$_Tidyfac@V?$moneypunct@G$00@std@@@std@@SAPAV?$moneypunct@G$00@2@PAV32@@Z 1003f720 f i libcpmtd:wlocale.obj
 0001:0003e790       ?_Save@?$_Tidyfac@V?$time_get@GV?$istreambuf_iterator@GU?$char_traits@G@std@@@std@@@std@@@std@@SAPAV?$time_get@GV?$istreambuf_iterator@GU?$char_traits@G@std@@@std@@@2@PAV32@@Z 1003f790 f i libcpmtd:wlocale.obj
 0001:0003e800       ?_Save@?$_Tidyfac@V?$time_put@GV?$ostreambuf_iterator@GU?$char_traits@G@std@@@std@@@std@@@std@@SAPAV?$time_put@GV?$ostreambuf_iterator@GU?$char_traits@G@std@@@std@@@2@PAV32@@Z 1003f800 f i libcpmtd:wlocale.obj
 0001:0003e870       ?_Save@?$_Tidyfac@V?$codecvt@GDH@std@@@std@@SAPAV?$codecvt@GDH@2@PAV32@@Z 1003f870 f i libcpmtd:wlocale.obj
 0001:0003e8e0       ??0?$_Mpunct@G@std@@QAE@I_N@Z 1003f8e0 f i libcpmtd:wlocale.obj
 0001:0003e970       ?_Tidy@?$_Tidyfac@V?$ctype@G@std@@@std@@SAXXZ 1003f970 f i libcpmtd:wlocale.obj
 0001:0003ea00       ?_Tidy@?$_Tidyfac@V?$num_get@GV?$istreambuf_iterator@GU?$char_traits@G@std@@@std@@@std@@@std@@SAXXZ 1003fa00 f i libcpmtd:wlocale.obj
 0001:0003ea90       ?_Tidy@?$_Tidyfac@V?$num_put@GV?$ostreambuf_iterator@GU?$char_traits@G@std@@@std@@@std@@@std@@SAXXZ 1003fa90 f i libcpmtd:wlocale.obj
 0001:0003eb20       ?_Tidy@?$_Tidyfac@V?$numpunct@G@std@@@std@@SAXXZ 1003fb20 f i libcpmtd:wlocale.obj
 0001:0003ebb0       ?_Tidy@?$_Tidyfac@V?$collate@G@std@@@std@@SAXXZ 1003fbb0 f i libcpmtd:wlocale.obj
 0001:0003ec40       ?_Tidy@?$_Tidyfac@V?$messages@G@std@@@std@@SAXXZ 1003fc40 f i libcpmtd:wlocale.obj
 0001:0003ecd0       ?_Tidy@?$_Tidyfac@V?$money_get@GV?$istreambuf_iterator@GU?$char_traits@G@std@@@std@@@std@@@std@@SAXXZ 1003fcd0 f i libcpmtd:wlocale.obj
 0001:0003ed60       ?_Tidy@?$_Tidyfac@V?$money_put@GV?$ostreambuf_iterator@GU?$char_traits@G@std@@@std@@@std@@@std@@SAXXZ 1003fd60 f i libcpmtd:wlocale.obj
 0001:0003edf0       ?_Tidy@?$_Tidyfac@V?$moneypunct@G$0A@@std@@@std@@SAXXZ 1003fdf0 f i libcpmtd:wlocale.obj
 0001:0003ee80       ?_Tidy@?$_Tidyfac@V?$moneypunct@G$00@std@@@std@@SAXXZ 1003fe80 f i libcpmtd:wlocale.obj
 0001:0003ef10       ?_Tidy@?$_Tidyfac@V?$time_get@GV?$istreambuf_iterator@GU?$char_traits@G@std@@@std@@@std@@@std@@SAXXZ 1003ff10 f i libcpmtd:wlocale.obj
 0001:0003efa0       ?_Tidy@?$_Tidyfac@V?$time_put@GV?$ostreambuf_iterator@GU?$char_traits@G@std@@@std@@@std@@@std@@SAXXZ 1003ffa0 f i libcpmtd:wlocale.obj
 0001:0003f030       ?_Tidy@?$_Tidyfac@V?$codecvt@GDH@std@@@std@@SAXXZ 10040030 f i libcpmtd:wlocale.obj
 0001:0003f0f0       ?_Makexloc@_Locimp@locale@std@@CAXABV_Locinfo@3@HPAV123@PBV23@@Z 100400f0 f   libcpmtd:xlocale.obj
 0001:0003f5f0       ??0?$collate@D@std@@QAE@ABV_Locinfo@1@I@Z 100405f0 f i libcpmtd:xlocale.obj
 0001:0003f650       ?_Getcat@?$collate@D@std@@SAIXZ 10040650 f i libcpmtd:xlocale.obj
 0001:0003f660       ?do_compare@?$collate@D@std@@MBEHPBD000@Z 10040660 f i libcpmtd:xlocale.obj
 0001:0003f690       ?do_transform@?$collate@D@std@@MBE?AV?$basic_string@DU?$char_traits@D@std@@V?$allocator@D@2@@2@PBD0@Z 10040690 f i libcpmtd:xlocale.obj
 0001:0003f790       ?do_hash@?$collate@D@std@@MBEJPBD0@Z 10040790 f i libcpmtd:xlocale.obj
 0001:0003f7e0       ??0?$messages@D@std@@QAE@ABV_Locinfo@1@I@Z 100407e0 f i libcpmtd:xlocale.obj
 0001:0003f840       ?_Getcat@?$messages@D@std@@SAIXZ 10040840 f i libcpmtd:xlocale.obj
 0001:0003f850       ?do_open@?$messages@D@std@@MBEHABV?$basic_string@DU?$char_traits@D@std@@V?$allocator@D@2@@2@ABVlocale@2@@Z 10040850 f i libcpmtd:xlocale.obj
 0001:0003f860       ?do_get@?$messages@D@std@@MBE?AV?$basic_string@DU?$char_traits@D@std@@V?$allocator@D@2@@2@HHHABV32@@Z 10040860 f i libcpmtd:xlocale.obj
 0001:0003f8e0       ?do_close@?$messages@D@std@@MBEXH@Z 100408e0 f i libcpmtd:xlocale.obj
 0001:0003f8f0       ??0?$money_get@DV?$istreambuf_iterator@DU?$char_traits@D@std@@@std@@@std@@QAE@ABV_Locinfo@1@I@Z 100408f0 f i libcpmtd:xlocale.obj
 0001:0003f950       ?_Getcat@?$money_get@DV?$istreambuf_iterator@DU?$char_traits@D@std@@@std@@@std@@SAIXZ 10040950 f i libcpmtd:xlocale.obj
 0001:0003f960       ?do_get@?$money_get@DV?$istreambuf_iterator@DU?$char_traits@D@std@@@std@@@std@@MBE?AV?$istreambuf_iterator@DU?$char_traits@D@std@@@2@V32@0_NAAVios_base@2@AAHAAO@Z 10040960 f i libcpmtd:xlocale.obj
 0001:0003fae0       ?do_get@?$money_get@DV?$istreambuf_iterator@DU?$char_traits@D@std@@@std@@@std@@MBE?AV?$istreambuf_iterator@DU?$char_traits@D@std@@@2@V32@0_NAAVios_base@2@AAHAAV?$basic_string@DU?$char_traits@D@std@@V?$allocator@D@2@@2@@Z 10040ae0 f i libcpmtd:xlocale.obj
 0001:0003fba0       ??0?$money_put@DV?$ostreambuf_iterator@DU?$char_traits@D@std@@@std@@@std@@QAE@ABV_Locinfo@1@I@Z 10040ba0 f i libcpmtd:xlocale.obj
 0001:0003fc00       ?_Getcat@?$money_put@DV?$ostreambuf_iterator@DU?$char_traits@D@std@@@std@@@std@@SAIXZ 10040c00 f i libcpmtd:xlocale.obj
 0001:0003fc10       ?do_put@?$money_put@DV?$ostreambuf_iterator@DU?$char_traits@D@std@@@std@@@std@@MBE?AV?$ostreambuf_iterator@DU?$char_traits@D@std@@@2@V32@_NAAVios_base@2@DO@Z 10040c10 f i libcpmtd:xlocale.obj
 0001:0003fd80       ?do_put@?$money_put@DV?$ostreambuf_iterator@DU?$char_traits@D@std@@@std@@@std@@MBE?AV?$ostreambuf_iterator@DU?$char_traits@D@std@@@2@V32@_NAAVios_base@2@DABV?$basic_string@DU?$char_traits@D@std@@V?$allocator@D@2@@2@@Z 10040d80 f i libcpmtd:xlocale.obj
 0001:0003fef0       ??0?$moneypunct@D$0A@@std@@QAE@ABV_Locinfo@1@I@Z 10040ef0 f i libcpmtd:xlocale.obj
 0001:0003ff20       ?_Getcat@?$moneypunct@D$0A@@std@@SAIXZ 10040f20 f i libcpmtd:xlocale.obj
 0001:0003ff30       ?do_decimal_point@?$_Mpunct@D@std@@MBEDXZ 10040f30 f i libcpmtd:xlocale.obj
 0001:0003ff50       ?do_thousands_sep@?$_Mpunct@D@std@@MBEDXZ 10040f50 f i libcpmtd:xlocale.obj
 0001:0003ff70       ?do_grouping@?$_Mpunct@D@std@@MBE?AV?$basic_string@DU?$char_traits@D@std@@V?$allocator@D@2@@2@XZ 10040f70 f i libcpmtd:xlocale.obj
 0001:0003ffb0       ?do_curr_symbol@?$_Mpunct@D@std@@MBE?AV?$basic_string@DU?$char_traits@D@std@@V?$allocator@D@2@@2@XZ 10040fb0 f i libcpmtd:xlocale.obj
 0001:0003fff0       ?do_positive_sign@?$_Mpunct@D@std@@MBE?AV?$basic_string@DU?$char_traits@D@std@@V?$allocator@D@2@@2@XZ 10040ff0 f i libcpmtd:xlocale.obj
 0001:00040030       ?do_negative_sign@?$_Mpunct@D@std@@MBE?AV?$basic_string@DU?$char_traits@D@std@@V?$allocator@D@2@@2@XZ 10041030 f i libcpmtd:xlocale.obj
 0001:00040070       ?do_frac_digits@?$_Mpunct@D@std@@MBEHXZ 10041070 f i libcpmtd:xlocale.obj
 0001:00040090       ?do_pos_format@?$_Mpunct@D@std@@MBE?AUpattern@money_base@2@XZ 10041090 f i libcpmtd:xlocale.obj
 0001:000400b0       ?do_neg_format@?$_Mpunct@D@std@@MBE?AUpattern@money_base@2@XZ 100410b0 f i libcpmtd:xlocale.obj
 0001:000400d0       ??0?$moneypunct@D$00@std@@QAE@ABV_Locinfo@1@I@Z 100410d0 f i libcpmtd:xlocale.obj
 0001:00040100       ?_Getcat@?$moneypunct@D$00@std@@SAIXZ 10041100 f i libcpmtd:xlocale.obj
 0001:00040110       ??0?$time_get@DV?$istreambuf_iterator@DU?$char_traits@D@std@@@std@@@std@@QAE@ABV_Locinfo@1@I@Z 10041110 f i libcpmtd:xlocale.obj
 0001:00040170       ?_Getcat@?$time_get@DV?$istreambuf_iterator@DU?$char_traits@D@std@@@std@@@std@@SAIXZ 10041170 f i libcpmtd:xlocale.obj
 0001:00040180       ?do_date_order@?$time_get@DV?$istreambuf_iterator@DU?$char_traits@D@std@@@std@@@std@@MBEHXZ 10041180 f i libcpmtd:xlocale.obj
 0001:00040190       ?do_get_time@?$time_get@DV?$istreambuf_iterator@DU?$char_traits@D@std@@@std@@@std@@MBE?AV?$istreambuf_iterator@DU?$char_traits@D@std@@@2@V32@0AAVios_base@2@AAHPAUtm@@@Z 10041190 f i libcpmtd:xlocale.obj
 0001:00040290       ?do_get_date@?$time_get@DV?$istreambuf_iterator@DU?$char_traits@D@std@@@std@@@std@@MBE?AV?$istreambuf_iterator@DU?$char_traits@D@std@@@2@V32@0AAVios_base@2@AAHPAUtm@@@Z 10041290 f i libcpmtd:xlocale.obj
 0001:00040430       ?do_get_weekday@?$time_get@DV?$istreambuf_iterator@DU?$char_traits@D@std@@@std@@@std@@MBE?AV?$istreambuf_iterator@DU?$char_traits@D@std@@@2@V32@0AAVios_base@2@AAHPAUtm@@@Z 10041430 f i libcpmtd:xlocale.obj
 0001:00040490       ?do_get_monthname@?$time_get@DV?$istreambuf_iterator@DU?$char_traits@D@std@@@std@@@std@@MBE?AV?$istreambuf_iterator@DU?$char_traits@D@std@@@2@V32@0AAVios_base@2@AAHPAUtm@@@Z 10041490 f i libcpmtd:xlocale.obj
 0001:000404f0       ?do_get_year@?$time_get@DV?$istreambuf_iterator@DU?$char_traits@D@std@@@std@@@std@@MBE?AV?$istreambuf_iterator@DU?$char_traits@D@std@@@2@V32@0AAVios_base@2@AAHPAUtm@@@Z 100414f0 f i libcpmtd:xlocale.obj
 0001:00040590       ??0?$time_put@DV?$ostreambuf_iterator@DU?$char_traits@D@std@@@std@@@std@@QAE@ABV_Locinfo@1@I@Z 10041590 f i libcpmtd:xlocale.obj
 0001:00040600       ?_Getcat@?$time_put@DV?$ostreambuf_iterator@DU?$char_traits@D@std@@@std@@@std@@SAIXZ 10041600 f i libcpmtd:xlocale.obj
 0001:00040610       ?do_put@?$time_put@DV?$ostreambuf_iterator@DU?$char_traits@D@std@@@std@@@std@@MBE?AV?$ostreambuf_iterator@DU?$char_traits@D@std@@@2@V32@AAVios_base@2@PBUtm@@DD@Z 10041610 f i libcpmtd:xlocale.obj
 0001:00040750       ??_E?$collate@D@std@@UAEPAXI@Z 10041750 f i libcpmtd:xlocale.obj
 0001:00040750       ??_G?$collate@D@std@@UAEPAXI@Z 10041750 f i libcpmtd:xlocale.obj
 0001:00040780       ??1?$collate@D@std@@UAE@XZ 10041780 f i libcpmtd:xlocale.obj
 0001:000407a0       ??_E?$messages@D@std@@UAEPAXI@Z 100417a0 f i libcpmtd:xlocale.obj
 0001:000407a0       ??_G?$messages@D@std@@UAEPAXI@Z 100417a0 f i libcpmtd:xlocale.obj
 0001:000407d0       ??1?$messages@D@std@@UAE@XZ 100417d0 f i libcpmtd:xlocale.obj
 0001:00040820       ??_G?$money_get@DV?$istreambuf_iterator@DU?$char_traits@D@std@@@std@@@std@@UAEPAXI@Z 10041820 f i libcpmtd:xlocale.obj
 0001:00040820       ??_E?$money_get@DV?$istreambuf_iterator@DU?$char_traits@D@std@@@std@@@std@@UAEPAXI@Z 10041820 f i libcpmtd:xlocale.obj
 0001:00040850       ??1?$money_get@DV?$istreambuf_iterator@DU?$char_traits@D@std@@@std@@@std@@UAE@XZ 10041850 f i libcpmtd:xlocale.obj
 0001:00040870       ??_E?$money_put@DV?$ostreambuf_iterator@DU?$char_traits@D@std@@@std@@@std@@UAEPAXI@Z 10041870 f i libcpmtd:xlocale.obj
 0001:00040870       ??_G?$money_put@DV?$ostreambuf_iterator@DU?$char_traits@D@std@@@std@@@std@@UAEPAXI@Z 10041870 f i libcpmtd:xlocale.obj
 0001:000408a0       ??1?$money_put@DV?$ostreambuf_iterator@DU?$char_traits@D@std@@@std@@@std@@UAE@XZ 100418a0 f i libcpmtd:xlocale.obj
 0001:000408c0       ??_G?$moneypunct@D$0A@@std@@UAEPAXI@Z 100418c0 f i libcpmtd:xlocale.obj
 0001:000408c0       ??_E?$moneypunct@D$0A@@std@@UAEPAXI@Z 100418c0 f i libcpmtd:xlocale.obj
 0001:000408f0       ??_G?$moneypunct@D$00@std@@UAEPAXI@Z 100418f0 f i libcpmtd:xlocale.obj
 0001:000408f0       ??_E?$moneypunct@D$00@std@@UAEPAXI@Z 100418f0 f i libcpmtd:xlocale.obj
 0001:00040920       ??_E?$time_get@DV?$istreambuf_iterator@DU?$char_traits@D@std@@@std@@@std@@UAEPAXI@Z 10041920 f i libcpmtd:xlocale.obj
 0001:00040920       ??_G?$time_get@DV?$istreambuf_iterator@DU?$char_traits@D@std@@@std@@@std@@UAEPAXI@Z 10041920 f i libcpmtd:xlocale.obj
 0001:00040950       ??1?$time_get@DV?$istreambuf_iterator@DU?$char_traits@D@std@@@std@@@std@@UAE@XZ 10041950 f i libcpmtd:xlocale.obj
 0001:000409a0       ??_E?$time_put@DV?$ostreambuf_iterator@DU?$char_traits@D@std@@@std@@@std@@UAEPAXI@Z 100419a0 f i libcpmtd:xlocale.obj
 0001:000409a0       ??_G?$time_put@DV?$ostreambuf_iterator@DU?$char_traits@D@std@@@std@@@std@@UAEPAXI@Z 100419a0 f i libcpmtd:xlocale.obj
 0001:000409d0       ??1?$time_put@DV?$ostreambuf_iterator@DU?$char_traits@D@std@@@std@@@std@@UAE@XZ 100419d0 f i libcpmtd:xlocale.obj
 0001:00040a30       ??1?$moneypunct@D$0A@@std@@UAE@XZ 10041a30 f i libcpmtd:xlocale.obj
 0001:00040a50       ??1?$_Mpunct@D@std@@UAE@XZ 10041a50 f i libcpmtd:xlocale.obj
 0001:00040ad0       ??_E?$_Mpunct@D@std@@UAEPAXI@Z 10041ad0 f i libcpmtd:xlocale.obj
 0001:00040ad0       ??_G?$_Mpunct@D@std@@UAEPAXI@Z 10041ad0 f i libcpmtd:xlocale.obj
 0001:00040b00       ??1?$moneypunct@D$00@std@@UAE@XZ 10041b00 f i libcpmtd:xlocale.obj
 0001:00040b20       ??0?$basic_string@DU?$char_traits@D@std@@V?$allocator@D@2@@std@@QAE@PBDIABV?$allocator@D@1@@Z 10041b20 f i libcpmtd:xlocale.obj
 0001:00040b60       ?resize@?$basic_string@DU?$char_traits@D@std@@V?$allocator@D@2@@std@@QAEXI@Z 10041b60 f i libcpmtd:xlocale.obj
 0001:00040bb0       ?_Init@?$collate@D@std@@IAEXABV_Locinfo@2@@Z 10041bb0 f i libcpmtd:xlocale.obj
 0001:00040be0       ?_Init@?$messages@D@std@@IAEXABV_Locinfo@2@@Z 10041be0 f i libcpmtd:xlocale.obj
 0001:00040c20       ?_Init@?$money_get@DV?$istreambuf_iterator@DU?$char_traits@D@std@@@std@@@std@@IAEXABV_Locinfo@2@@Z 10041c20 f i libcpmtd:xlocale.obj
 0001:00040c30       ?_Getmfld@?$money_get@DV?$istreambuf_iterator@DU?$char_traits@D@std@@@std@@@std@@ABE?AV?$basic_string@DU?$char_traits@D@std@@V?$allocator@D@2@@2@AAV?$istreambuf_iterator@DU?$char_traits@D@std@@@2@0_NAAVios_base@2@@Z 10041c30 f i libcpmtd:xlocale.obj
 0001:000416d0       ?_Init@?$money_put@DV?$ostreambuf_iterator@DU?$char_traits@D@std@@@std@@@std@@IAEXABV_Locinfo@2@@Z 100426d0 f i libcpmtd:xlocale.obj
 0001:000416e0       ?_Putmfld@?$money_put@DV?$ostreambuf_iterator@DU?$char_traits@D@std@@@std@@@std@@ABE?AV?$ostreambuf_iterator@DU?$char_traits@D@std@@@2@V32@_NAAVios_base@2@D1V?$basic_string@DU?$char_traits@D@std@@V?$allocator@D@2@@2@@Z 100426e0 f i libcpmtd:xlocale.obj
 0001:00041f50       ??0?$_Mpunct@D@std@@QAE@ABV_Locinfo@1@I_N@Z 10042f50 f i libcpmtd:xlocale.obj
 0001:00041fc0       ?get_monthname@?$time_get@DV?$istreambuf_iterator@DU?$char_traits@D@std@@@std@@@std@@QBE?AV?$istreambuf_iterator@DU?$char_traits@D@std@@@2@V32@0AAVios_base@2@AAHPAUtm@@@Z 10042fc0 f i libcpmtd:xlocale.obj
 0001:00042010       ?get_year@?$time_get@DV?$istreambuf_iterator@DU?$char_traits@D@std@@@std@@@std@@QBE?AV?$istreambuf_iterator@DU?$char_traits@D@std@@@2@V32@0AAVios_base@2@AAHPAUtm@@@Z 10043010 f i libcpmtd:xlocale.obj
 0001:00042060       ?_Init@?$time_get@DV?$istreambuf_iterator@DU?$char_traits@D@std@@@std@@@std@@IAEXABV_Locinfo@2@@Z 10043060 f i libcpmtd:xlocale.obj
 0001:000420a0       ?_Getint@?$time_get@DV?$istreambuf_iterator@DU?$char_traits@D@std@@@std@@@std@@CAHAAV?$istreambuf_iterator@DU?$char_traits@D@std@@@2@0HHAAH@Z 100430a0 f i libcpmtd:xlocale.obj
 0001:000422b0       ?_Init@?$time_put@DV?$ostreambuf_iterator@DU?$char_traits@D@std@@@std@@@std@@IAEXABV_Locinfo@2@@Z 100432b0 f i libcpmtd:xlocale.obj
 0001:00042320       ?insert@?$basic_string@DU?$char_traits@D@std@@V?$allocator@D@2@@std@@QAEAAV12@IID@Z 10043320 f i libcpmtd:xlocale.obj
 0001:000423d0       ??E?$istreambuf_iterator@DU?$char_traits@D@std@@@std@@QAE?AV01@H@Z 100433d0 f i libcpmtd:xlocale.obj
 0001:00042420       ?_Put@?$money_put@DV?$ostreambuf_iterator@DU?$char_traits@D@std@@@std@@@std@@CA?AV?$ostreambuf_iterator@DU?$char_traits@D@std@@@2@V32@PBDI@Z 10043420 f i libcpmtd:xlocale.obj
 0001:00042470       ?_Rep@?$money_put@DV?$ostreambuf_iterator@DU?$char_traits@D@std@@@std@@@std@@CA?AV?$ostreambuf_iterator@DU?$char_traits@D@std@@@2@V32@DI@Z 10043470 f i libcpmtd:xlocale.obj
 0001:000424c0       ??E?$ostreambuf_iterator@DU?$char_traits@D@std@@@std@@QAEAAV01@H@Z 100434c0 f i libcpmtd:xlocale.obj
 0001:000424d0       ?decimal_point@?$_Mpunct@D@std@@QBEDXZ 100434d0 f i libcpmtd:xlocale.obj
 0001:000424f0       ?thousands_sep@?$_Mpunct@D@std@@QBEDXZ 100434f0 f i libcpmtd:xlocale.obj
 0001:00042510       ?grouping@?$_Mpunct@D@std@@QBE?AV?$basic_string@DU?$char_traits@D@std@@V?$allocator@D@2@@2@XZ 10043510 f i libcpmtd:xlocale.obj
 0001:00042540       ?curr_symbol@?$_Mpunct@D@std@@QBE?AV?$basic_string@DU?$char_traits@D@std@@V?$allocator@D@2@@2@XZ 10043540 f i libcpmtd:xlocale.obj
 0001:00042570       ?positive_sign@?$_Mpunct@D@std@@QBE?AV?$basic_string@DU?$char_traits@D@std@@V?$allocator@D@2@@2@XZ 10043570 f i libcpmtd:xlocale.obj
 0001:000425a0       ?negative_sign@?$_Mpunct@D@std@@QBE?AV?$basic_string@DU?$char_traits@D@std@@V?$allocator@D@2@@2@XZ 100435a0 f i libcpmtd:xlocale.obj
 0001:000425d0       ?frac_digits@?$_Mpunct@D@std@@QBEHXZ 100435d0 f i libcpmtd:xlocale.obj
 0001:000425f0       ?pos_format@?$_Mpunct@D@std@@QBE?AUpattern@money_base@2@XZ 100435f0 f i libcpmtd:xlocale.obj
 0001:00042620       ?neg_format@?$_Mpunct@D@std@@QBE?AUpattern@money_base@2@XZ 10043620 f i libcpmtd:xlocale.obj
 0001:00042650       ?_Init@?$_Mpunct@D@std@@IAEXABV_Locinfo@2@@Z 10043650 f i libcpmtd:xlocale.obj
 0001:000427f0       ?_Makpat@?$_Mpunct@D@std@@AAEXAAUpattern@money_base@2@DDD@Z 100437f0 f i libcpmtd:xlocale.obj
 0001:00042890       ?use_facet@std@@YAABV?$collate@D@1@ABVlocale@1@PBV21@_N@Z 10043890 f i libcpmtd:xlocale.obj
 0001:000429b0       ?use_facet@std@@YAABV?$messages@D@1@ABVlocale@1@PBV21@_N@Z 100439b0 f i libcpmtd:xlocale.obj
 0001:00042ad0       ?use_facet@std@@YAABV?$money_get@DV?$istreambuf_iterator@DU?$char_traits@D@std@@@std@@@1@ABVlocale@1@PBV21@_N@Z 10043ad0 f i libcpmtd:xlocale.obj
 0001:00042bf0       ?use_facet@std@@YAABV?$money_put@DV?$ostreambuf_iterator@DU?$char_traits@D@std@@@std@@@1@ABVlocale@1@PBV21@_N@Z 10043bf0 f i libcpmtd:xlocale.obj
 0001:00042d10       ?use_facet@std@@YAABV?$moneypunct@D$0A@@1@ABVlocale@1@PBV21@_N@Z 10043d10 f i libcpmtd:xlocale.obj
 0001:00042e30       ?use_facet@std@@YAABV?$moneypunct@D$00@1@ABVlocale@1@PBV21@_N@Z 10043e30 f i libcpmtd:xlocale.obj
 0001:00042f50       ?use_facet@std@@YAABV?$time_get@DV?$istreambuf_iterator@DU?$char_traits@D@std@@@std@@@1@ABVlocale@1@PBV21@_N@Z 10043f50 f i libcpmtd:xlocale.obj
 0001:00043070       ?use_facet@std@@YAABV?$time_put@DV?$ostreambuf_iterator@DU?$char_traits@D@std@@@std@@@1@ABVlocale@1@PBV21@_N@Z 10044070 f i libcpmtd:xlocale.obj
 0001:00043190       ?_Strcoll@std@@YAHPBD000PBU_Collvec@@@Z 10044190 f i libcpmtd:xlocale.obj
 0001:00043210       ?_Strxfrm@std@@YAIPAD0PBD1PBU_Collvec@@@Z 10044210 f i libcpmtd:xlocale.obj
 0001:00043250       ??0?$collate@D@std@@QAE@I@Z 10044250 f i libcpmtd:xlocale.obj
 0001:000432e0       ??0?$messages@D@std@@QAE@I@Z 100442e0 f i libcpmtd:xlocale.obj
 0001:00043370       ??0?$money_get@DV?$istreambuf_iterator@DU?$char_traits@D@std@@@std@@@std@@QAE@I@Z 10044370 f i libcpmtd:xlocale.obj
 0001:00043400       ??0?$money_put@DV?$ostreambuf_iterator@DU?$char_traits@D@std@@@std@@@std@@QAE@I@Z 10044400 f i libcpmtd:xlocale.obj
 0001:00043490       ??0?$moneypunct@D$0A@@std@@QAE@I@Z 10044490 f i libcpmtd:xlocale.obj
 0001:000434c0       ??0?$moneypunct@D$00@std@@QAE@I@Z 100444c0 f i libcpmtd:xlocale.obj
 0001:000434f0       ??0?$time_get@DV?$istreambuf_iterator@DU?$char_traits@D@std@@@std@@@std@@QAE@I@Z 100444f0 f i libcpmtd:xlocale.obj
 0001:00043580       ??0?$time_put@DV?$ostreambuf_iterator@DU?$char_traits@D@std@@@std@@@std@@QAE@I@Z 10044580 f i libcpmtd:xlocale.obj
 0001:00043620       ?_Save@?$_Tidyfac@V?$collate@D@std@@@std@@SAPAV?$collate@D@2@PAV32@@Z 10044620 f i libcpmtd:xlocale.obj
 0001:00043690       ?_Save@?$_Tidyfac@V?$messages@D@std@@@std@@SAPAV?$messages@D@2@PAV32@@Z 10044690 f i libcpmtd:xlocale.obj
 0001:00043700       ?_Save@?$_Tidyfac@V?$money_get@DV?$istreambuf_iterator@DU?$char_traits@D@std@@@std@@@std@@@std@@SAPAV?$money_get@DV?$istreambuf_iterator@DU?$char_traits@D@std@@@std@@@2@PAV32@@Z 10044700 f i libcpmtd:xlocale.obj
 0001:00043770       ?_Save@?$_Tidyfac@V?$money_put@DV?$ostreambuf_iterator@DU?$char_traits@D@std@@@std@@@std@@@std@@SAPAV?$money_put@DV?$ostreambuf_iterator@DU?$char_traits@D@std@@@std@@@2@PAV32@@Z 10044770 f i libcpmtd:xlocale.obj
 0001:000437e0       ?_Save@?$_Tidyfac@V?$moneypunct@D$0A@@std@@@std@@SAPAV?$moneypunct@D$0A@@2@PAV32@@Z 100447e0 f i libcpmtd:xlocale.obj
 0001:00043850       ?_Save@?$_Tidyfac@V?$moneypunct@D$00@std@@@std@@SAPAV?$moneypunct@D$00@2@PAV32@@Z 10044850 f i libcpmtd:xlocale.obj
 0001:000438c0       ?_Save@?$_Tidyfac@V?$time_get@DV?$istreambuf_iterator@DU?$char_traits@D@std@@@std@@@std@@@std@@SAPAV?$time_get@DV?$istreambuf_iterator@DU?$char_traits@D@std@@@std@@@2@PAV32@@Z 100448c0 f i libcpmtd:xlocale.obj
 0001:00043930       ?_Save@?$_Tidyfac@V?$time_put@DV?$ostreambuf_iterator@DU?$char_traits@D@std@@@std@@@std@@@std@@SAPAV?$time_put@DV?$ostreambuf_iterator@DU?$char_traits@D@std@@@std@@@2@PAV32@@Z 10044930 f i libcpmtd:xlocale.obj
 0001:000439a0       ??0?$_Mpunct@D@std@@QAE@I_N@Z 100449a0 f i libcpmtd:xlocale.obj
 0001:00043a30       ?_Tidy@?$_Tidyfac@V?$collate@D@std@@@std@@SAXXZ 10044a30 f i libcpmtd:xlocale.obj
 0001:00043ac0       ?_Tidy@?$_Tidyfac@V?$messages@D@std@@@std@@SAXXZ 10044ac0 f i libcpmtd:xlocale.obj
 0001:00043b50       ?_Tidy@?$_Tidyfac@V?$money_get@DV?$istreambuf_iterator@DU?$char_traits@D@std@@@std@@@std@@@std@@SAXXZ 10044b50 f i libcpmtd:xlocale.obj
 0001:00043be0       ?_Tidy@?$_Tidyfac@V?$money_put@DV?$ostreambuf_iterator@DU?$char_traits@D@std@@@std@@@std@@@std@@SAXXZ 10044be0 f i libcpmtd:xlocale.obj
 0001:00043c70       ?_Tidy@?$_Tidyfac@V?$moneypunct@D$0A@@std@@@std@@SAXXZ 10044c70 f i libcpmtd:xlocale.obj
 0001:00043d00       ?_Tidy@?$_Tidyfac@V?$moneypunct@D$00@std@@@std@@SAXXZ 10044d00 f i libcpmtd:xlocale.obj
 0001:00043d90       ?_Tidy@?$_Tidyfac@V?$time_get@DV?$istreambuf_iterator@DU?$char_traits@D@std@@@std@@@std@@@std@@SAXXZ 10044d90 f i libcpmtd:xlocale.obj
 0001:00043e20       ?_Tidy@?$_Tidyfac@V?$time_put@DV?$ostreambuf_iterator@DU?$char_traits@D@std@@@std@@@std@@@std@@SAXXZ 10044e20 f i libcpmtd:xlocale.obj
 0001:00043ee0       __Tolower                  10044ee0 f   libcpmtd:_tolower.obj
 0001:00043f90       __Tolower_lk               10044f90 f   libcpmtd:_tolower.obj
 0001:000440f0       __Getctype                 100450f0 f   libcpmtd:_tolower.obj
 0001:000441d0       __Toupper                  100451d0 f   libcpmtd:_toupper.obj
 0001:00044280       __Toupper_lk               10045280 f   libcpmtd:_toupper.obj
 0001:000443e0       __Stod                     100453e0 f   libcpmtd:xstod.obj
 0001:00044440       __Stof                     10045440 f   libcpmtd:xstod.obj
 0001:00044460       __Stold                    10045460 f   libcpmtd:xstod.obj
 0001:00044480       __Wcrtomb                  10045480 f   libcpmtd:xwctomb.obj
 0001:00044500       ___Wcrtomb_lk              10045500 f   libcpmtd:xwctomb.obj
 0001:000445c0       __Getcvt                   100455c0 f   libcpmtd:xwctomb.obj
 0001:00044640       _wcrtomb                   10045640 f   libcpmtd:xwctomb.obj
 0001:00044680       _wcsrtombs                 10045680 f   libcpmtd:xwctomb.obj
 0001:00044880       _wctob                     10045880 f   libcpmtd:xwctomb.obj
 0001:000448d0       __Mbrtowc                  100458d0 f   libcpmtd:xmbtowc.obj
 0001:00044b70       _btowc                     10045b70 f   libcpmtd:xmbtowc.obj
 0001:00044bd0       _mbrlen                    10045bd0 f   libcpmtd:xmbtowc.obj
 0001:00044c70       _mbrtowc                   10045c70 f   libcpmtd:xmbtowc.obj
 0001:00044d50       _mbsrtowcs                 10045d50 f   libcpmtd:xmbtowc.obj
 0001:00044ee0       __Strcoll                  10045ee0 f   libcpmtd:xstrcoll.obj
 0001:00045050       __Getcoll                  10046050 f   libcpmtd:xstrcoll.obj
 0001:000450c8       _VerQueryValueA@16         100460c8 f   Version:VERSION.dll
 0001:000450ce       _GetFileVersionInfoA@16    100460ce f   Version:VERSION.dll
 0001:000450d4       _GetFileVersionInfoSizeA@8 100460d4 f   Version:VERSION.dll
 0001:000450da       _GetLastError@0            100460da f   kernel32:KERNEL32.dll
 0001:000450e0       _WaitForMultipleObjects@16 100460e0 f   kernel32:KERNEL32.dll
 0001:000450e6       _GetCurrentThreadId@0      100460e6 f   kernel32:KERNEL32.dll
 0001:000450ec       _FormatMessageA@28         100460ec f   kernel32:KERNEL32.dll
 0001:000450f2       _GetCurrentDirectoryA@8    100460f2 f   kernel32:KERNEL32.dll
 0001:000450f8       _GetModuleFileNameA@12     100460f8 f   kernel32:KERNEL32.dll
 0001:000450fe       _GetSystemTime@4           100460fe f   kernel32:KERNEL32.dll
 0001:00045104       _GetLocalTime@4            10046104 f   kernel32:KERNEL32.dll
 0001:0004510a       _GetComputerNameA@8        1004610a f   kernel32:KERNEL32.dll
 0001:00045110       _SetLastError@4            10046110 f   kernel32:KERNEL32.dll
 0001:00045116       _CloseHandle@4             10046116 f   kernel32:KERNEL32.dll
 0001:0004511c       _WaitForSingleObject@8     1004611c f   kernel32:KERNEL32.dll
 0001:00045122       _TerminateThread@8         10046122 f   kernel32:KERNEL32.dll
 0001:00045128       _CreateEventA@16           10046128 f   kernel32:KERNEL32.dll
 0001:0004512e       _ResetEvent@4              1004612e f   kernel32:KERNEL32.dll
 0001:00045134       _SetEvent@4                10046134 f   kernel32:KERNEL32.dll
 0001:0004513a       _PulseEvent@4              1004613a f   kernel32:KERNEL32.dll
 0001:00045140       _OutputDebugStringA@4      10046140 f   kernel32:KERNEL32.dll
 0001:00045146       _GetTimeZoneInformation@4  10046146 f   kernel32:KERNEL32.dll
 0001:0004514c       _RtlUnwind@16              1004614c f   kernel32:KERNEL32.dll
 0001:00045152       _DebugBreak@0              10046152 f   kernel32:KERNEL32.dll
 0001:00045158       _GetStdHandle@4            10046158 f   kernel32:KERNEL32.dll
 0001:0004515e       _WriteFile@20              1004615e f   kernel32:KERNEL32.dll
 0001:00045164       _GetProcAddress@8          10046164 f   kernel32:KERNEL32.dll
 0001:0004516a       _LoadLibraryA@4            1004616a f   kernel32:KERNEL32.dll
 0001:00045170       _GetCommandLineA@0         10046170 f   kernel32:KERNEL32.dll
 0001:00045176       _GetVersion@0              10046176 f   kernel32:KERNEL32.dll
 0001:0004517c       _RaiseException@16         1004617c f   kernel32:KERNEL32.dll
 0001:00045182       _CreateThread@24           10046182 f   kernel32:KERNEL32.dll
 0001:00045188       _TlsSetValue@8             10046188 f   kernel32:KERNEL32.dll
 0001:0004518e       _ExitThread@4              1004618e f   kernel32:KERNEL32.dll
 0001:00045194       _IsBadWritePtr@8           10046194 f   kernel32:KERNEL32.dll
 0001:0004519a       _IsBadReadPtr@8            1004619a f   kernel32:KERNEL32.dll
 0001:000451a0       _HeapValidate@12           100461a0 f   kernel32:KERNEL32.dll
 0001:000451a6       _TlsAlloc@0                100461a6 f   kernel32:KERNEL32.dll
 0001:000451ac       _TlsFree@4                 100461ac f   kernel32:KERNEL32.dll
 0001:000451b2       _TlsGetValue@4             100461b2 f   kernel32:KERNEL32.dll
 0001:000451b8       _GetCurrentThread@0        100461b8 f   kernel32:KERNEL32.dll
 0001:000451be       _ExitProcess@4             100461be f   kernel32:KERNEL32.dll
 0001:000451c4       _FatalAppExitA@8           100461c4 f   kernel32:KERNEL32.dll
 0001:000451ca       _HeapFree@12               100461ca f   kernel32:KERNEL32.dll
 0001:000451d0       _TerminateProcess@8        100461d0 f   kernel32:KERNEL32.dll
 0001:000451d6       _GetCurrentProcess@0       100461d6 f   kernel32:KERNEL32.dll
 0001:000451dc       _SetConsoleCtrlHandler@8   100461dc f   kernel32:KERNEL32.dll
 0001:000451e2       _SetHandleCount@4          100461e2 f   kernel32:KERNEL32.dll
 0001:000451e8       _GetFileType@4             100461e8 f   kernel32:KERNEL32.dll
 0001:000451ee       _GetStartupInfoA@4         100461ee f   kernel32:KERNEL32.dll
 0001:000451f4       _FreeEnvironmentStringsA@4 100461f4 f   kernel32:KERNEL32.dll
 0001:000451fa       _FreeEnvironmentStringsW@4 100461fa f   kernel32:KERNEL32.dll
 0001:00045200       _WideCharToMultiByte@32    10046200 f   kernel32:KERNEL32.dll
 0001:00045206       _GetEnvironmentStrings@0   10046206 f   kernel32:KERNEL32.dll
 0001:0004520c       _GetEnvironmentStringsW@0  1004620c f   kernel32:KERNEL32.dll
 0001:00045212       _HeapDestroy@4             10046212 f   kernel32:KERNEL32.dll
 0001:00045218       _HeapCreate@12             10046218 f   kernel32:KERNEL32.dll
 0001:0004521e       _VirtualFree@12            1004621e f   kernel32:KERNEL32.dll
 0001:00045224       _SetUnhandledExceptionFilter@4 10046224 f   kernel32:KERNEL32.dll
 0001:0004522a       _GetModuleHandleA@4        1004622a f   kernel32:KERNEL32.dll
 0001:00045230       _Sleep@4                   10046230 f   kernel32:KERNEL32.dll
 0001:00045236       _MultiByteToWideChar@24    10046236 f   kernel32:KERNEL32.dll
 0001:0004523c       _LCMapStringA@24           1004623c f   kernel32:KERNEL32.dll
 0001:00045242       _LCMapStringW@24           10046242 f   kernel32:KERNEL32.dll
 0001:00045248       _SetFilePointer@16         10046248 f   kernel32:KERNEL32.dll
 0001:0004524e       _FlushFileBuffers@4        1004624e f   kernel32:KERNEL32.dll
 0001:00045254       _UnhandledExceptionFilter@4 10046254 f   kernel32:KERNEL32.dll
 0001:0004525a       _HeapAlloc@12              1004625a f   kernel32:KERNEL32.dll
 0001:00045260       _HeapReAlloc@16            10046260 f   kernel32:KERNEL32.dll
 0001:00045266       _VirtualAlloc@16           10046266 f   kernel32:KERNEL32.dll
 0001:0004526c       _IsBadCodePtr@4            1004626c f   kernel32:KERNEL32.dll
 0001:00045272       _GetCPInfo@8               10046272 f   kernel32:KERNEL32.dll
 0001:00045278       _GetACP@0                  10046278 f   kernel32:KERNEL32.dll
 0001:0004527e       _GetOEMCP@0                1004627e f   kernel32:KERNEL32.dll
 0001:00045284       _IsValidLocale@8           10046284 f   kernel32:KERNEL32.dll
 0001:0004528a       _IsValidCodePage@4         1004628a f   kernel32:KERNEL32.dll
 0001:00045290       _GetLocaleInfoA@16         10046290 f   kernel32:KERNEL32.dll
 0001:00045296       _EnumSystemLocalesA@8      10046296 f   kernel32:KERNEL32.dll
 0001:0004529c       _GetUserDefaultLCID@0      1004629c f   kernel32:KERNEL32.dll
 0001:000452a2       _GetVersionExA@4           100462a2 f   kernel32:KERNEL32.dll
 0001:000452a8       _GetStringTypeA@20         100462a8 f   kernel32:KERNEL32.dll
 0001:000452ae       _GetStringTypeW@16         100462ae f   kernel32:KERNEL32.dll
 0001:000452b4       _SetStdHandle@8            100462b4 f   kernel32:KERNEL32.dll
 0001:000452ba       _ReadFile@20               100462ba f   kernel32:KERNEL32.dll
 0001:000452c0       _GetLocaleInfoW@16         100462c0 f   kernel32:KERNEL32.dll
 0001:000452c6       _CompareStringA@24         100462c6 f   kernel32:KERNEL32.dll
 0001:000452cc       _CompareStringW@24         100462cc f   kernel32:KERNEL32.dll
 0001:000452d2       _SetEnvironmentVariableA@8 100462d2 f   kernel32:KERNEL32.dll
 0001:000452d8       _InterlockedExchange@8     100462d8 f   kernel32:KERNEL32.dll
 0001:000452de       _MessageBoxA@16            100462de f   user32:USER32.dll
 0001:000452e4       _MessageBeep@4             100462e4 f   user32:USER32.dll
 0001:000452ea       _wsprintfA                 100462ea f   user32:USER32.dll
 0001:000452f0       _GetUserNameA@8            100462f0 f   advapi32:ADVAPI32.dll
 0001:00045300       __cprintf                  10046300 f   LIBCMTD:cprintf.obj
 0001:00045300       _cprintf                   10046300 f   LIBCMTD:cprintf.obj
 0001:00046150       _strtol                    10047150 f   LIBCMTD:strtol.obj
 0001:000464b0       _strtoul                   100474b0 f   LIBCMTD:strtol.obj
 0001:000464d0       _fputwc                    100474d0 f   LIBCMTD:fputwc.obj
 0001:00046550       __putwc_lk                 10047550 f   LIBCMTD:fputwc.obj
 0001:00046780       _putwc                     10047780 f   LIBCMTD:fputwc.obj
 0001:000467a0       _ungetwc                   100477a0 f   LIBCMTD:ungetwc.obj
 0001:00046810       __ungetwc_lk               10047810 f   LIBCMTD:ungetwc.obj
 0001:00046a70       _fgetwc                    10047a70 f   LIBCMTD:fgetwc.obj
 0001:00046ae0       __getwc_lk                 10047ae0 f   LIBCMTD:fgetwc.obj
 0001:00046cb0       _getwc                     10047cb0 f   LIBCMTD:fgetwc.obj
 0001:00046cd0       _wcslen                    10047cd0 f   LIBCMTD:wcslen.obj
 0001:00046d00       _strtod                    10047d00 f   LIBCMTD:strtod.obj
 0001:00046e50       __putch                    10047e50 f   LIBCMTD:putch.obj
 0001:00046e80       __putch_lk                 10047e80 f   LIBCMTD:putch.obj
 0001:00046ed0       __flswbuf                  10047ed0 f   LIBCMTD:_flswbuf.obj
 0001:00047160       __filwbuf                  10048160 f   LIBCMTD:_filwbuf.obj
 0001:00047360       _mbtowc                    10048360 f   LIBCMTD:mbtowc.obj
 0001:000473e0       __mbtowc_lk                100483e0 f   LIBCMTD:mbtowc.obj
 0001:00047540       __fltin2                   10048540 f   LIBCMTD:cfin.obj
 0001:00047600       ___initconin               10048600 f   LIBCMTD:initcon.obj
 0001:00047630       ___initconout              10048630 f   LIBCMTD:initcon.obj
 0001:00047660       ___termcon                 10048660 f   LIBCMTD:initcon.obj
 0001:000476a2       _WriteConsoleA@20          100486a2 f   kernel32:KERNEL32.dll
 0001:000476a8       _CreateFileA@28            100486a8 f   kernel32:KERNEL32.dll
 0001:0005e470       __enc$textbss$begin        1005f470     <linker-defined>
 0001:00090170       __enc$textbss$end          10091170     <linker-defined>
 0002:00000020       _IID_IESClient             10092020     IClient.obj
 0002:00000030       _IID_IClientFactory        10092030     IClient.obj
 0002:00000058       _IID_IDocHostUIHandlerDispatch 10092058     ClientStage.obj
 0002:00000070       _IID_IInternalConnection   10092070     ClientStage.obj
 0002:00000088       _IID_IAxWinAmbientDispatch 10092088     ClientStage.obj
 0002:000000a0       _IID_IAxWinHostWindow      100920a0     ClientStage.obj
 0002:000000b8       _IID_IRegistrar            100920b8     ClientStage.obj
 0002:000000d0       _CLSID_Registrar           100920d0     ClientStage.obj
 0002:000000e8       _LIBID_ATLLib              100920e8     ClientStage.obj
 0002:000000fc       ??_7CGameClient@@6BAllocator@CIOBuffer@Win32@OnlineGameLib@@@ 100920fc     ClientStage.obj
 0002:00000110       ??_7CGameClient@@6BCThread@Win32@OnlineGameLib@@@ 10092110     ClientStage.obj
 0002:0000014c       ??_7CGameClient@@6B@       1009214c     ClientStage.obj
 0002:0000017c       ??_7IClient@@6B@           1009217c     ClientStage.obj
 0002:000001ac       ??_C@_0CM@FAKL@CGameClient?3?3Startup?5?9?5Unexpecte@ 100921ac     ClientStage.obj
 0002:000001e0       ??_C@_03DMDD@?5?9?5?$AA@   100921e0     ClientStage.obj
 0002:000001e4       ??_C@_0CB@PNLE@CGameClient?3?3Startup?5Exception?3?5@ 100921e4     ClientStage.obj
 0002:0000020c       ??_C@_0CO@DIAE@CConnectManager?3?3Cleanup?5Unexpec@ 1009220c     ClientStage.obj
 0002:00000244       ??_C@_0CF@FBND@CConnectManager?3?3Cleanup?5Excepti@ 10092244     ClientStage.obj
 0002:00000270       ??_C@_0BF@NCII@Unexpected?5exception?$AA@ 10092270     ClientStage.obj
 0002:0000028c       ??_C@_0M@JACO@Exception?3?5?$AA@ 1009228c     ClientStage.obj
 0002:0000029c       ??_C@_0FK@ELHK@d?3?2game?2offline?2project?2jx?2swrod@ 1009229c     ClientStage.obj
 0002:00000308       ??_C@_0BM@IICH@Got?5message?5plus?5extra?5data?$AA@ 10092308     ClientStage.obj
 0002:0000032c       ??_C@_0CP@CHDL@Got?5a?5complete?5message?5and?5begin@ 1009232c     ClientStage.obj
 0002:00000364       ??_C@_0CH@GFGG@found?5error?5and?5close?5this?5conne@ 10092364     ClientStage.obj
 0002:00000394       ??_C@_0P@NJGG@Too?5much?5data?$CB?$AA@ 10092394     ClientStage.obj
 0002:000003a8       ??_C@_0CF@EEOI@ReadCompleted?5?9?5Unexpected?5excep@ 100923a8     ClientStage.obj
 0002:000003d4       ??_C@_0BN@LAKI@ReadCompleted?5?9?5Exception?5?9?5?$AA@ 100923d4     ClientStage.obj
 0002:000003f8       ??_7CClientFactory@@6B@    100923f8     ClientStage.obj
 0002:00000414       ??_7IClientFactory@@6B@    10092414     ClientStage.obj
 0002:0000042c       ?npos@?$basic_string@DU?$char_traits@D@std@@V?$allocator@D@2@@std@@2IB 1009242c     ClientStage.obj
 0002:00000430       ?_C@?1??_Nullstr@?$basic_string@DU?$char_traits@D@std@@V?$allocator@D@2@@std@@CAPBDXZ@4DB 10092430     ClientStage.obj
 0002:00000434       ??_C@_0FM@PHNC@d?3?2game?2offline?2project?2jx?2swrod@ 10092434     ClientStage.obj
 0002:000004a8       _IID_IUnknown              100924a8     uuid:unknwn_i_guid0.obj
 0002:000004b8       ??_7CSocketClient@Win32@OnlineGameLib@@6BAllocator@CIOBuffer@12@@ 100924b8     common:SocketClient.obj
 0002:000004c8       ??_7CSocketClient@Win32@OnlineGameLib@@6BCThread@12@@ 100924c8     common:SocketClient.obj
 0002:000004f8       ??_7CException@Win32@OnlineGameLib@@6B@ 100924f8     common:SocketClient.obj
 0002:00000504       ??_7CWin32Exception@Win32@OnlineGameLib@@6B@ 10092504     common:SocketClient.obj
 0002:00000510       ??_7Allocator@CIOBuffer@Win32@OnlineGameLib@@6B@ 10092510     common:IOBuffer.obj
 0002:00000520       ??_8strstream@std@@7B?$basic_ostream@DU?$char_traits@D@std@@@1@@ 10092520     common:IOBuffer.obj
 0002:00000528       ??_8strstream@std@@7B?$basic_istream@DU?$char_traits@D@std@@@1@@ 10092528     common:IOBuffer.obj
 0002:00000530       ??_8?$basic_iostream@DU?$char_traits@D@std@@@std@@7B?$basic_ostream@DU?$char_traits@D@std@@@1@@ 10092530     common:IOBuffer.obj
 0002:00000538       ??_8?$basic_iostream@DU?$char_traits@D@std@@@std@@7B?$basic_istream@DU?$char_traits@D@std@@@1@@ 10092538     common:IOBuffer.obj
 0002:00000540       ??_8?$basic_ostream@DU?$char_traits@D@std@@@std@@7B@ 10092540     common:IOBuffer.obj
 0002:00000548       ??_8?$basic_istream@DU?$char_traits@D@std@@@std@@7B@ 10092548     common:IOBuffer.obj
 0002:00000550       ??_7?$basic_fstream@DU?$char_traits@D@std@@@std@@6B@ 10092550     common:Utils.obj
 0002:00000554       ??_8?$basic_fstream@DU?$char_traits@D@std@@@std@@7B?$basic_ostream@DU?$char_traits@D@std@@@1@@ 10092554     common:Utils.obj
 0002:0000055c       ??_8?$basic_fstream@DU?$char_traits@D@std@@@std@@7B?$basic_istream@DU?$char_traits@D@std@@@1@@ 1009255c     common:Utils.obj
 0002:00000564       ??_7CThread@Win32@OnlineGameLib@@6B@ 10092564     common:Thread.obj
 0002:0000056c       ??_7CManualResetEvent@Win32@OnlineGameLib@@6B@ 1009256c     common:ManualResetEvent.obj
 0002:00000570       ??_7CEvent@Win32@OnlineGameLib@@6B@ 10092570     common:Event.obj
 0002:00000574       ??_7Exception@CSocket@Win32@OnlineGameLib@@6B@ 10092574     common:Socket.obj
 0002:00000580       ??_C@_0O@FHMD@i386?2chkesp?4c?$AA@ 10092580     LIBCMTD:chkesp.obj
 0002:00000590       ??_C@_0NM@ELEE@The?5value?5of?5ESP?5was?5not?5properl@ 10092590     LIBCMTD:chkesp.obj
 0002:0000066c       ??_C@_0L@OFGA@dbgdel?4cpp?$AA@ 1009266c     LIBCMTD:dbgdel.obj
 0002:00000678       ??_C@_0CH@PHOC@_BLOCK_TYPE_IS_VALID?$CIpHead?9?$DOnBlo@ 10092678     LIBCMTD:dbgdel.obj
 0002:000006a4       ??_7type_info@@6B@         100926a4     LIBCMTD:typinfo.obj
 0002:000006a8       ??_C@_0BB@BLL@Assertion?5Failed?$AA@ 100926a8     LIBCMTD:dbgrpt.obj
 0002:000006bc       ??_C@_05CKBG@Error?$AA@    100926bc     LIBCMTD:dbgrpt.obj
 0002:000006c4       ??_C@_07JCGI@Warning?$AA@  100926c4     LIBCMTD:dbgrpt.obj
 0002:000006cc       ??_C@_0M@ODEP@?$CFs?$CI?$CFd?$CJ?5?3?5?$CFs?$AA@ 100926cc     LIBCMTD:dbgrpt.obj
 0002:000006d8       ??_C@_01BJG@?6?$AA@        100926d8     LIBCMTD:dbgrpt.obj
 0002:000006dc       ??_C@_01FEHD@?$AN?$AA@     100926dc     LIBCMTD:dbgrpt.obj
 0002:000006e0       ??_C@_0BC@OIMC@Assertion?5failed?$CB?$AA@ 100926e0     LIBCMTD:dbgrpt.obj
 0002:000006f4       ??_C@_0BD@BEAK@Assertion?5failed?3?5?$AA@ 100926f4     LIBCMTD:dbgrpt.obj
 0002:00000708       ??_C@_0CL@LCCP@_CrtDbgReport?3?5String?5too?5long?5o@ 10092708     LIBCMTD:dbgrpt.obj
 0002:00000734       ??_C@_0DC@EMDK@Second?5Chance?5Assertion?5Failed?3?5@ 10092734     LIBCMTD:dbgrpt.obj
 0002:00000768       ??_C@_09NJAK@wsprintfA?$AA@ 10092768     LIBCMTD:dbgrpt.obj
 0002:00000774       ??_C@_0L@HKL@user32?4dll?$AA@ 10092774     LIBCMTD:dbgrpt.obj
 0002:00000780       ??_C@_0CD@GCMD@Microsoft?5Visual?5C?$CL?$CL?5Debug?5Libra@ 10092780     LIBCMTD:dbgrpt.obj
 0002:000007a4       ??_C@_0FD@EBDD@Debug?5?$CFs?$CB?6?6Program?3?5?$CFs?$CFs?$CFs?$CFs?$CFs?$CFs@ 100927a4     LIBCMTD:dbgrpt.obj
 0002:000007f8       ??_C@_09DCKN@?6Module?3?5?$AA@ 100927f8     LIBCMTD:dbgrpt.obj
 0002:00000804       ??_C@_07HJII@?6File?3?5?$AA@ 10092804     LIBCMTD:dbgrpt.obj
 0002:0000080c       ??_C@_07LFGN@?6Line?3?5?$AA@ 1009280c     LIBCMTD:dbgrpt.obj
 0002:00000814       ??_C@_02JJJH@?6?6?$AA@     10092814     LIBCMTD:dbgrpt.obj
 0002:00000818       ??_C@_0N@NOAB@Expression?3?5?$AA@ 10092818     LIBCMTD:dbgrpt.obj
 0002:00000828       ??_C@_0HD@BHFH@?6?6For?5information?5on?5how?5your?5pr@ 10092828     LIBCMTD:dbgrpt.obj
 0002:0000089c       ??_C@_03NAME@?4?4?4?$AA@   1009289c     LIBCMTD:dbgrpt.obj
 0002:000008a0       ??_C@_0BH@NNCD@?$DMprogram?5name?5unknown?$DO?$AA@ 100928a0     LIBCMTD:dbgrpt.obj
 0002:000008b8       ??_C@_08GFHP@dbgrpt?4c?$AA@ 100928b8     LIBCMTD:dbgrpt.obj
 0002:000008c4       ??_C@_0BG@FBEA@szUserMessage?5?$CB?$DN?5NULL?$AA@ 100928c4     LIBCMTD:dbgrpt.obj
 0002:000008dc       ??_C@_08CEA@onexit?4c?$AA@ 100928dc     LIBCMTD:onexit.obj
 0002:0000090c       ??_7exception@@6B@         1009290c     LIBCMTD:stdexcpt.obj
 0002:00000914       ??_C@_0BC@OIDF@Unknown?5exception?$AA@ 10092914     LIBCMTD:stdexcpt.obj
 0002:00000928       ??_C@_0P@LNLA@format?5?$CB?$DN?5NULL?$AA@ 10092928     LIBCMTD:sprintf.obj
 0002:00000938       ??_C@_09NEAG@sprintf?4c?$AA@ 10092938     LIBCMTD:sprintf.obj
 0002:00000944       ??_C@_0P@OOIN@string?5?$CB?$DN?5NULL?$AA@ 10092944     LIBCMTD:sprintf.obj
 0002:00000954       ??_C@_07CJDP@fputc?4c?$AA@ 10092954     LIBCMTD:fputc.obj
 0002:0000095c       ??_C@_0M@KJPK@str?5?$CB?$DN?5NULL?$AA@ 1009295c     LIBCMTD:fputc.obj
 0002:00000968       ??_C@_08JKP@ungetc?4c?$AA@ 10092968     LIBCMTD:ungetc.obj
 0002:00000974       ??_C@_0P@FHEA@stream?5?$CB?$DN?5NULL?$AA@ 10092974     LIBCMTD:ungetc.obj
 0002:00000984       ??_C@_07JJAI@fgetc?4c?$AA@ 10092984     LIBCMTD:fgetc.obj
 0002:0000098c       ??_C@_07HFEM@fseek?4c?$AA@ 1009298c     LIBCMTD:fseek.obj
 0002:00000994       ??_C@_09GCII@setvbuf?4c?$AA@ 10092994     LIBCMTD:setvbuf.obj
 0002:000009a0       ??_C@_08PHBD@fclose?4c?$AA@ 100929a0     LIBCMTD:fclose.obj
 0002:000009ac       ??_C@_0L@BOLO@threadex?4c?$AA@ 100929ac     LIBCMTD:threadex.obj
 0002:000009c4       ??_C@_0L@HE@vsprintf?4c?$AA@ 100929c4     LIBCMTD:vsprintf.obj
 0002:000009d0       ??_C@_06DPMO@Client?$AA@   100929d0     LIBCMTD:dbgheap.obj
 0002:000009d8       ??_C@_06BAFM@Ignore?$AA@   100929d8     LIBCMTD:dbgheap.obj
 0002:000009e0       ??_C@_03DICE@CRT?$AA@      100929e0     LIBCMTD:dbgheap.obj
 0002:000009e4       ??_C@_06BILL@Normal?$AA@   100929e4     LIBCMTD:dbgheap.obj
 0002:000009ec       ??_C@_04NEN@Free?$AA@      100929ec     LIBCMTD:dbgheap.obj
 0002:000009f4       ??_C@_0DC@CGID@Error?3?5memory?5allocation?3?5bad?5me@ 100929f4     LIBCMTD:dbgheap.obj
 0002:00000a28       ??_C@_0CE@FMIA@Invalid?5allocation?5size?3?5?$CFu?5byte@ 10092a28     LIBCMTD:dbgheap.obj
 0002:00000a4c       ??_C@_02DILL@?$CFs?$AA@    10092a4c     LIBCMTD:dbgheap.obj
 0002:00000a50       ??_C@_0CB@CPBI@Client?5hook?5allocation?5failure?4?6@ 10092a50     LIBCMTD:dbgheap.obj
 0002:00000a74       ??_C@_0DF@DKHF@Client?5hook?5allocation?5failure?5a@ 10092a74     LIBCMTD:dbgheap.obj
 0002:00000aac       ??_C@_09IMJC@dbgheap?4c?$AA@ 10092aac     LIBCMTD:dbgheap.obj
 0002:00000ab8       ??_C@_0BC@EPKL@_CrtCheckMemory?$CI?$CJ?$AA@ 10092ab8     LIBCMTD:dbgheap.obj
 0002:00000acc       ??_C@_0BK@JDHA@_pFirstBlock?5?$DN?$DN?5pOldBlock?$AA@ 10092acc     LIBCMTD:dbgheap.obj
 0002:00000ae8       ??_C@_0BJ@NMEF@_pLastBlock?5?$DN?$DN?5pOldBlock?$AA@ 10092ae8     LIBCMTD:dbgheap.obj
 0002:00000b04       ??_C@_0DC@BOCN@fRealloc?5?$HM?$HM?5?$CI?$CBfRealloc?5?$CG?$CG?5pNewBl@ 10092b04     LIBCMTD:dbgheap.obj
 0002:00000b38       ??_C@_0DK@DKOM@_BLOCK_TYPE?$CIpOldBlock?9?$DOnBlockUse@ 10092b38     LIBCMTD:dbgheap.obj
 0002:00000b74       ??_C@_0EF@EDKM@pOldBlock?9?$DOnLine?5?$DN?$DN?5IGNORE_LINE?5@ 10092b74     LIBCMTD:dbgheap.obj
 0002:00000bbc       ??_C@_0CC@GPMO@_CrtIsValidHeapPointer?$CIpUserData@ 10092bbc     LIBCMTD:dbgheap.obj
 0002:00000be0       ??_C@_0CN@FHGE@Allocation?5too?5large?5or?5negative@ 10092be0     LIBCMTD:dbgheap.obj
 0002:00000c10       ??_C@_0CE@EAMN@Client?5hook?5re?9allocation?5failur@ 10092c10     LIBCMTD:dbgheap.obj
 0002:00000c34       ??_C@_0DI@KKMM@Client?5hook?5re?9allocation?5failur@ 10092c34     LIBCMTD:dbgheap.obj
 0002:00000c6c       ??_C@_0BG@JCEC@_pFirstBlock?5?$DN?$DN?5pHead?$AA@ 10092c6c     LIBCMTD:dbgheap.obj
 0002:00000c84       ??_C@_0BF@NLNN@_pLastBlock?5?$DN?$DN?5pHead?$AA@ 10092c84     LIBCMTD:dbgheap.obj
 0002:00000c9c       ??_C@_0BO@PLHH@pHead?9?$DOnBlockUse?5?$DN?$DN?5nBlockUse?$AA@ 10092c9c     LIBCMTD:dbgheap.obj
 0002:00000cbc       ??_C@_0DN@KKIO@pHead?9?$DOnLine?5?$DN?$DN?5IGNORE_LINE?5?$CG?$CG?5p@ 10092cbc     LIBCMTD:dbgheap.obj
 0002:00000cfc       ??_C@_0CK@OJNB@DAMAGE?3?5after?5?$CFhs?5block?5?$CI?$CD?$CFd?$CJ?5at@ 10092cfc     LIBCMTD:dbgheap.obj
 0002:00000d28       ??_C@_0CL@IJIL@DAMAGE?3?5before?5?$CFhs?5block?5?$CI?$CD?$CFd?$CJ?5a@ 10092d28     LIBCMTD:dbgheap.obj
 0002:00000d54       ??_C@_0BL@MBNA@Client?5hook?5free?5failure?4?6?$AA@ 10092d54     LIBCMTD:dbgheap.obj
 0002:00000d70       ??_C@_0DK@EKKL@memory?5check?5error?5at?50x?$CF08X?5?$DN?50@ 10092d70     LIBCMTD:dbgheap.obj
 0002:00000dac       ??_C@_0CJ@GCII@?$CFhs?5located?5at?50x?$CF08X?5is?5?$CFu?5byte@ 10092dac     LIBCMTD:dbgheap.obj
 0002:00000dd8       ??_C@_0CA@EJPI@?$CFhs?5allocated?5at?5file?5?$CFhs?$CI?$CFd?$CJ?4?6?$AA@ 10092dd8     LIBCMTD:dbgheap.obj
 0002:00000df8       ??_C@_0CJ@LHHG@DAMAGE?3?5on?5top?5of?5Free?5block?5at?5@ 10092df8     LIBCMTD:dbgheap.obj
 0002:00000e24       ??_C@_07GJHM@DAMAGED?$AA@  10092e24     LIBCMTD:dbgheap.obj
 0002:00000e2c       ??_C@_0CL@ODIE@_heapchk?5fails?5with?5unknown?5retu@ 10092e2c     LIBCMTD:dbgheap.obj
 0002:00000e58       ??_C@_0CC@EHNC@_heapchk?5fails?5with?5_HEAPBADPTR?4@ 10092e58     LIBCMTD:dbgheap.obj
 0002:00000e7c       ??_C@_0CC@JNDP@_heapchk?5fails?5with?5_HEAPBADEND?4@ 10092e7c     LIBCMTD:dbgheap.obj
 0002:00000ea0       ??_C@_0CD@DNMG@_heapchk?5fails?5with?5_HEAPBADNODE@ 10092ea0     LIBCMTD:dbgheap.obj
 0002:00000ec4       ??_C@_0CE@JMCB@_heapchk?5fails?5with?5_HEAPBADBEGI@ 10092ec4     LIBCMTD:dbgheap.obj
 0002:00000ee8       ??_C@_0CD@MEMI@Bad?5memory?5block?5found?5at?50x?$CF08X@ 10092ee8     LIBCMTD:dbgheap.obj
 0002:00000f0c       ??_C@_0CI@GMAO@_CrtMemCheckPoint?3?5NULL?5state?5po@ 10092f0c     LIBCMTD:dbgheap.obj
 0002:00000f34       ??_C@_0CI@MNAE@_CrtMemDifference?3?5NULL?5state?5po@ 10092f34     LIBCMTD:dbgheap.obj
 0002:00000f5c       ??_C@_0BH@PKIJ@Object?5dump?5complete?4?6?$AA@ 10092f5c     LIBCMTD:dbgheap.obj
 0002:00000f74       ??_C@_0DB@DBPF@crt?5block?5at?50x?$CF08X?0?5subtype?5?$CFx?0@ 10092f74     LIBCMTD:dbgheap.obj
 0002:00000fa8       ??_C@_0CI@JLM@normal?5block?5at?50x?$CF08X?0?5?$CFu?5bytes@ 10092fa8     LIBCMTD:dbgheap.obj
 0002:00000fd0       ??_C@_0DE@PFEA@client?5block?5at?50x?$CF08X?0?5subtype?5@ 10092fd0     LIBCMTD:dbgheap.obj
 0002:00001004       ??_C@_06MBCE@?$HL?$CFld?$HN?5?$AA@ 10093004     LIBCMTD:dbgheap.obj
 0002:0000100c       ??_C@_0L@BLDJ@?$CFhs?$CI?$CFd?$CJ?5?3?5?$AA@ 1009300c     LIBCMTD:dbgheap.obj
 0002:00001018       ??_C@_0BE@FEMA@?$CDFile?5Error?$CD?$CI?$CFd?$CJ?5?3?5?$AA@ 10093018     LIBCMTD:dbgheap.obj
 0002:0000102c       ??_C@_0BE@FPPM@Dumping?5objects?5?9?$DO?6?$AA@ 1009302c     LIBCMTD:dbgheap.obj
 0002:00001040       ??_C@_0BA@POLM@?5Data?3?5?$DM?$CFs?$DO?5?$CFs?6?$AA@ 10093040     LIBCMTD:dbgheap.obj
 0002:00001050       ??_C@_05JLAO@?$CF?42X?5?$AA@ 10093050     LIBCMTD:dbgheap.obj
 0002:00001058       ??_C@_0BI@KONA@Detected?5memory?5leaks?$CB?6?$AA@ 10093058     LIBCMTD:dbgheap.obj
 0002:00001070       ??_C@_0BP@LCCN@Total?5allocations?3?5?$CFld?5bytes?4?6?$AA@ 10093070     LIBCMTD:dbgheap.obj
 0002:00001090       ??_C@_0CB@COID@Largest?5number?5used?3?5?$CFld?5bytes?4?6@ 10093090     LIBCMTD:dbgheap.obj
 0002:000010b4       ??_C@_0BO@MEJD@?$CFld?5bytes?5in?5?$CFld?5?$CFhs?5Blocks?4?6?$AA@ 100930b4     LIBCMTD:dbgheap.obj
 0002:0000111c       ??_C@_0L@ENLJ@tidtable?4c?$AA@ 1009311c     LIBCMTD:tidtable.obj
 0002:00001158       ??_C@_07PDLA@mlock?4c?$AA@ 10093158     LIBCMTD:mlock.obj
 0002:00001160       ??_C@_08CNMA@winsig?4c?$AA@ 10093160     LIBCMTD:winsig.obj
 0002:0000116c       ??_C@_0BD@NJFP@GetLastActivePopup?$AA@ 1009316c     LIBCMTD:crtmbox.obj
 0002:00001180       ??_C@_0BA@GILI@GetActiveWindow?$AA@ 10093180     LIBCMTD:crtmbox.obj
 0002:00001190       ??_C@_0M@PKCK@MessageBoxA?$AA@ 10093190     LIBCMTD:crtmbox.obj
 0002:0000119c       ??_C@_08KFDJ@ioinit?4c?$AA@ 1009319c     LIBCMTD:ioinit.obj
 0002:000011a8       ??_C@_09IGKD@stdenvp?4c?$AA@ 100931a8     LIBCMTD:stdenvp.obj
 0002:000011b4       ??_C@_09MPMN@stdargv?4c?$AA@ 100931b4     LIBCMTD:stdargv.obj
 0002:000011c0       ??_C@_07BNNE@a_env?4c?$AA@ 100931c0     LIBCMTD:a_env.obj
 0002:000011c8       ??_C@_0P@GGKG@runtime?5error?5?$AA@ 100931c8     LIBCMTD:crt0msg.obj
 0002:000011d8       ??_C@_02PIMC@?$AN?6?$AA@   100931d8     LIBCMTD:crt0msg.obj
 0002:000011dc       ??_C@_0O@DELO@TLOSS?5error?$AN?6?$AA@ 100931dc     LIBCMTD:crt0msg.obj
 0002:000011ec       ??_C@_0N@OMLL@SING?5error?$AN?6?$AA@ 100931ec     LIBCMTD:crt0msg.obj
 0002:000011fc       ??_C@_0P@OJAK@DOMAIN?5error?$AN?6?$AA@ 100931fc     LIBCMTD:crt0msg.obj
 0002:0000120c       ??_C@_0CF@EANP@R6028?$AN?6?9?5unable?5to?5initialize?5he@ 1009320c     LIBCMTD:crt0msg.obj
 0002:00001234       ??_C@_0DF@ECGN@R6027?$AN?6?9?5not?5enough?5space?5for?5lo@ 10093234     LIBCMTD:crt0msg.obj
 0002:0000126c       ??_C@_0DF@FKAC@R6026?$AN?6?9?5not?5enough?5space?5for?5st@ 1009326c     LIBCMTD:crt0msg.obj
 0002:000012a4       ??_C@_0CG@DPMN@R6025?$AN?6?9?5pure?5virtual?5function?5c@ 100932a4     LIBCMTD:crt0msg.obj
 0002:000012cc       ??_C@_0DF@CKIP@R6024?$AN?6?9?5not?5enough?5space?5for?5_o@ 100932cc     LIBCMTD:crt0msg.obj
 0002:00001304       ??_C@_0CJ@GGOE@R6019?$AN?6?9?5unable?5to?5open?5console?5@ 10093304     LIBCMTD:crt0msg.obj
 0002:00001330       ??_C@_0CB@LBOB@R6018?$AN?6?9?5unexpected?5heap?5error?$AN?6@ 10093330     LIBCMTD:crt0msg.obj
 0002:00001354       ??_C@_0CN@FPEG@R6017?$AN?6?9?5unexpected?5multithread?5@ 10093354     LIBCMTD:crt0msg.obj
 0002:00001384       ??_C@_0CM@OBIC@R6016?$AN?6?9?5not?5enough?5space?5for?5th@ 10093384     LIBCMTD:crt0msg.obj
 0002:000013b0       ??_C@_0CB@HPAL@?$AN?6abnormal?5program?5termination?$AN?6@ 100933b0     LIBCMTD:crt0msg.obj
 0002:000013d4       ??_C@_0CM@JOOB@R6009?$AN?6?9?5not?5enough?5space?5for?5en@ 100933d4     LIBCMTD:crt0msg.obj
 0002:00001400       ??_C@_0CK@OIBL@R6008?$AN?6?9?5not?5enough?5space?5for?5ar@ 10093400     LIBCMTD:crt0msg.obj
 0002:0000142c       ??_C@_0CF@LKPB@R6002?$AN?6?9?5floating?5point?5not?5load@ 1009342c     LIBCMTD:crt0msg.obj
 0002:00001454       ??_C@_0CF@JPDF@Microsoft?5Visual?5C?$CL?$CL?5Runtime?5Lib@ 10093454     LIBCMTD:crt0msg.obj
 0002:0000147c       ??_C@_0BK@DEOK@Runtime?5Error?$CB?6?6Program?3?5?$AA@ 1009347c     LIBCMTD:crt0msg.obj
 0002:00001498       ??_C@_0DP@IHIN@?$CI?$CCinconsistent?5IOB?5fields?$CC?0?5stre@ 10093498     LIBCMTD:_flsbuf.obj
 0002:000014d8       ??_C@_09LGEI@_flsbuf?4c?$AA@ 100934d8     LIBCMTD:_flsbuf.obj
 0002:000014e4       ___lookuptable             100934e4     LIBCMTD:output.obj
 0002:00001540       ??_C@_1O@POHA@?$AA?$CI?$AAn?$AAu?$AAl?$AAl?$AA?$CJ?$AA?$AA@ 10093540     LIBCMTD:output.obj
 0002:00001550       ??_C@_06ONKE@?$CInull?$CJ?$AA@ 10093550     LIBCMTD:output.obj
 0002:00001558       ??_C@_08MIHI@output?4c?$AA@ 10093558     LIBCMTD:output.obj
 0002:00001564       ??_C@_0P@PIHB@ch?5?$CB?$DN?5_T?$CI?8?20?8?$CJ?$AA@ 10093564     LIBCMTD:output.obj
 0002:00001578       __real@8@3fff8000000000000000 10093578     LIBCMTD:testfdiv.obj
 0002:00001580       ??_C@_0BK@JEGK@IsProcessorFeaturePresent?$AA@ 10093580     LIBCMTD:testfdiv.obj
 0002:0000159c       ??_C@_08OBID@KERNEL32?$AA@ 1009359c     LIBCMTD:testfdiv.obj
 0002:000015a8       __real@8@00000000000000000000 100935a8     LIBCMTD:cvt.obj
 0002:000015b0       ??_C@_05OFLO@e?$CL000?$AA@ 100935b0     LIBCMTD:cvt.obj
 0002:000015b8       ??_C@_07PCLE@LC_TIME?$AA@  100935b8     LIBCMTD:setlocal.obj
 0002:000015c0       ??_C@_0L@NKG@LC_NUMERIC?$AA@ 100935c0     LIBCMTD:setlocal.obj
 0002:000015cc       ??_C@_0M@CBIH@LC_MONETARY?$AA@ 100935cc     LIBCMTD:setlocal.obj
 0002:000015d8       ??_C@_08LFGE@LC_CTYPE?$AA@ 100935d8     LIBCMTD:setlocal.obj
 0002:000015e4       ??_C@_0L@CFLC@LC_COLLATE?$AA@ 100935e4     LIBCMTD:setlocal.obj
 0002:000015f0       ??_C@_06GCPK@LC_ALL?$AA@   100935f0     LIBCMTD:setlocal.obj
 0002:000015f8       ??_C@_01FAJB@?$DL?$AA@     100935f8     LIBCMTD:setlocal.obj
 0002:000015fc       ??_C@_02BGDO@?$DN?$DL?$AA@ 100935fc     LIBCMTD:setlocal.obj
 0002:00001600       ??_C@_0L@MOEE@setlocal?4c?$AA@ 10093600     LIBCMTD:setlocal.obj
 0002:0000160c       ??_C@_01KPOD@?$DN?$AA@     1009360c     LIBCMTD:setlocal.obj
 0002:00001610       ??_C@_03DBOJ@_?4?0?$AA@    10093610     LIBCMTD:setlocal.obj
 0002:00001614       ??_C@_01PJCK@?4?$AA@       10093614     LIBCMTD:setlocal.obj
 0002:00001618       ??_C@_01NON@_?$AA@         10093618     LIBCMTD:setlocal.obj
 0002:0000161c       ??_C@_01A@?$AA?$AA@        1009361c     LIBCMTD:a_map.obj
 0002:00001620       ??_C@_13A@?$AA?$AA?$AA?$AA@ 10093620     LIBCMTD:a_map.obj
 0002:00001640       ??_C@_07HPAH@_file?4c?$AA@ 10093640     LIBCMTD:_file.obj
 0002:00001648       ??_C@_09EMDO@_getbuf?4c?$AA@ 10093648     LIBCMTD:_getbuf.obj
 0002:00001654       ??_C@_09DNOI@_filbuf?4c?$AA@ 10093654     LIBCMTD:_filbuf.obj
 0002:00001660       ??_C@_0L@JOEJ@ftelli64?4c?$AA@ 10093660     LIBCMTD:ftelli64.obj
 0002:0000166c       ??_C@_07CMIP@ftell?4c?$AA@ 1009366c     LIBCMTD:ftell.obj
 0002:00001674       ??_C@_0L@GDOJ@fseeki64?4c?$AA@ 10093674     LIBCMTD:fseeki64.obj
 0002:00001680       ??_C@_0L@JIE@_freebuf?4c?$AA@ 10093680     LIBCMTD:_freebuf.obj
 0002:0000168c       ___dnames                  1009368c     LIBCMTD:timeset.obj
 0002:000016a4       ___mnames                  100936a4     LIBCMTD:timeset.obj
 0002:000016cc       ??_C@_07DEKI@tzset?4c?$AA@ 100936cc     LIBCMTD:tzset.obj
 0002:000016d4       ??_C@_02JHIA@TZ?$AA@       100936d4     LIBCMTD:tzset.obj
 0002:000016d8       ??_C@_0L@EEGJ@inittime?4c?$AA@ 100936d8     LIBCMTD:inittime.obj
 0002:000016e4       ??_C@_09IMJJ@initnum?4c?$AA@ 100936e4     LIBCMTD:initnum.obj
 0002:000016f0       ??_C@_09KPNI@initmon?4c?$AA@ 100936f0     LIBCMTD:initmon.obj
 0002:000016fc       ??_C@_0L@COIL@initctyp?4c?$AA@ 100936fc     LIBCMTD:initctyp.obj
 0002:00001708       ??_C@_08OBJD@Paraguay?$AA@ 10093708     LIBCMTD:getqloc.obj
 0002:00001714       ??_C@_07GLKH@Uruguay?$AA@  10093714     LIBCMTD:getqloc.obj
 0002:0000171c       ??_C@_05FPFC@Chile?$AA@    1009371c     LIBCMTD:getqloc.obj
 0002:00001724       ??_C@_07IIGF@Ecuador?$AA@  10093724     LIBCMTD:getqloc.obj
 0002:0000172c       ??_C@_09PKAL@Argentina?$AA@ 1009372c     LIBCMTD:getqloc.obj
 0002:00001738       ??_C@_04LKAH@Peru?$AA@     10093738     LIBCMTD:getqloc.obj
 0002:00001740       ??_C@_08NEEM@Colombia?$AA@ 10093740     LIBCMTD:getqloc.obj
 0002:0000174c       ??_C@_09ODEB@Venezuela?$AA@ 1009374c     LIBCMTD:getqloc.obj
 0002:00001758       ??_C@_0BD@CLEL@Dominican?5Republic?$AA@ 10093758     LIBCMTD:getqloc.obj
 0002:0000176c       ??_C@_0N@MDGL@South?5Africa?$AA@ 1009376c     LIBCMTD:getqloc.obj
 0002:0000177c       ??_C@_06NKBG@Panama?$AA@   1009377c     LIBCMTD:getqloc.obj
 0002:00001784       ??_C@_0L@BMHO@Luxembourg?$AA@ 10093784     LIBCMTD:getqloc.obj
 0002:00001790       ??_C@_0L@IMDK@Costa?5Rica?$AA@ 10093790     LIBCMTD:getqloc.obj
 0002:0000179c       ??_C@_0M@BLJF@Switzerland?$AA@ 1009379c     LIBCMTD:getqloc.obj
 0002:000017a8       ??_C@_09KBOL@Guatemala?$AA@ 100937a8     LIBCMTD:getqloc.obj
 0002:000017b4       ??_C@_06JNAK@Canada?$AA@   100937b4     LIBCMTD:getqloc.obj
 0002:000017bc       ??_C@_0BG@OLLP@Spanish?5?9?5Modern?5Sort?$AA@ 100937bc     LIBCMTD:getqloc.obj
 0002:000017d4       ??_C@_09IDKE@Australia?$AA@ 100937d4     LIBCMTD:getqloc.obj
 0002:000017e0       ??_C@_07JJJJ@English?$AA@  100937e0     LIBCMTD:getqloc.obj
 0002:000017e8       ??_C@_07NMDO@Austria?$AA@  100937e8     LIBCMTD:getqloc.obj
 0002:000017f0       ??_C@_06DEFE@German?$AA@   100937f0     LIBCMTD:getqloc.obj
 0002:000017f8       ??_C@_07JAIH@Belgium?$AA@  100937f8     LIBCMTD:getqloc.obj
 0002:00001800       ??_C@_06BNLJ@Mexico?$AA@   10093800     LIBCMTD:getqloc.obj
 0002:00001808       ??_C@_07JHAG@Spanish?$AA@  10093808     LIBCMTD:getqloc.obj
 0002:00001810       ??_C@_06DADE@Basque?$AA@   10093810     LIBCMTD:getqloc.obj
 0002:00001818       ??_C@_06ENFP@Sweden?$AA@   10093818     LIBCMTD:getqloc.obj
 0002:00001820       ??_C@_07JPMH@Swedish?$AA@  10093820     LIBCMTD:getqloc.obj
 0002:00001828       ??_C@_07IEKF@Iceland?$AA@  10093828     LIBCMTD:getqloc.obj
 0002:00001830       ??_C@_09KNEA@Icelandic?$AA@ 10093830     LIBCMTD:getqloc.obj
 0002:0000183c       ??_C@_06IJOD@France?$AA@   1009383c     LIBCMTD:getqloc.obj
 0002:00001844       ??_C@_06EINI@French?$AA@   10093844     LIBCMTD:getqloc.obj
 0002:0000184c       ??_C@_07FOOE@Finland?$AA@  1009384c     LIBCMTD:getqloc.obj
 0002:00001854       ??_C@_07OJOM@Finnish?$AA@  10093854     LIBCMTD:getqloc.obj
 0002:0000185c       ??_C@_05FFAC@Spain?$AA@    1009385c     LIBCMTD:getqloc.obj
 0002:00001864       ??_C@_0BL@BIHM@Spanish?5?9?5Traditional?5Sort?$AA@ 10093864     LIBCMTD:getqloc.obj
 0002:00001880       ??_C@_0O@GLHB@united?9states?$AA@ 10093880     LIBCMTD:getqloc.obj
 0002:00001890       ??_C@_0P@IIKK@united?9kingdom?$AA@ 10093890     LIBCMTD:getqloc.obj
 0002:000018a0       ??_C@_0BC@FHBO@trinidad?5?$CG?5tobago?$AA@ 100938a0     LIBCMTD:getqloc.obj
 0002:000018b4       ??_C@_0M@BDFM@south?9korea?$AA@ 100938b4     LIBCMTD:getqloc.obj
 0002:000018c0       ??_C@_0N@CKFA@south?9africa?$AA@ 100938c0     LIBCMTD:getqloc.obj
 0002:000018d0       ??_C@_0M@HNHN@south?5korea?$AA@ 100938d0     LIBCMTD:getqloc.obj
 0002:000018dc       ??_C@_0N@MKDO@south?5africa?$AA@ 100938dc     LIBCMTD:getqloc.obj
 0002:000018ec       ??_C@_06KFFJ@slovak?$AA@   100938ec     LIBCMTD:getqloc.obj
 0002:000018f4       ??_C@_0M@NMAC@puerto?9rico?$AA@ 100938f4     LIBCMTD:getqloc.obj
 0002:00001900       ??_C@_08EJOH@pr?9china?$AA@ 10093900     LIBCMTD:getqloc.obj
 0002:0000190c       ??_C@_08CHMG@pr?5china?$AA@ 1009390c     LIBCMTD:getqloc.obj
 0002:00001918       ??_C@_02OCJK@nz?$AA@       10093918     LIBCMTD:getqloc.obj
 0002:0000191c       ??_C@_0M@MMKA@new?9zealand?$AA@ 1009391c     LIBCMTD:getqloc.obj
 0002:00001928       ??_C@_09MGEH@hong?9kong?$AA@ 10093928     LIBCMTD:getqloc.obj
 0002:00001934       ??_C@_07CCAK@holland?$AA@  10093934     LIBCMTD:getqloc.obj
 0002:0000193c       ??_C@_0O@MEPL@great?5britain?$AA@ 1009393c     LIBCMTD:getqloc.obj
 0002:0000194c       ??_C@_07LGIB@england?$AA@  1009394c     LIBCMTD:getqloc.obj
 0002:00001954       ??_C@_05BMOA@czech?$AA@    10093954     LIBCMTD:getqloc.obj
 0002:0000195c       ??_C@_05NMPB@china?$AA@    1009395c     LIBCMTD:getqloc.obj
 0002:00001964       ??_C@_07GN@britain?$AA@    10093964     LIBCMTD:getqloc.obj
 0002:0000196c       ??_C@_07DLAK@america?$AA@  1009396c     LIBCMTD:getqloc.obj
 0002:00001974       ??_C@_03IPEP@usa?$AA@      10093974     LIBCMTD:getqloc.obj
 0002:00001978       ??_C@_02PILH@us?$AA@       10093978     LIBCMTD:getqloc.obj
 0002:0000197c       ??_C@_02FHP@uk?$AA@        1009397c     LIBCMTD:getqloc.obj
 0002:00001980       ??_C@_05DEAI@swiss?$AA@    10093980     LIBCMTD:getqloc.obj
 0002:00001988       ??_C@_0BA@LIAF@swedish?9finland?$AA@ 10093988     LIBCMTD:getqloc.obj
 0002:00001998       ??_C@_0BC@FMEG@spanish?9venezuela?$AA@ 10093998     LIBCMTD:getqloc.obj
 0002:000019ac       ??_C@_0BA@BNMG@spanish?9uruguay?$AA@ 100939ac     LIBCMTD:getqloc.obj
 0002:000019bc       ??_C@_0BE@BKDJ@spanish?9puerto?5rico?$AA@ 100939bc     LIBCMTD:getqloc.obj
 0002:000019d0       ??_C@_0N@JIBL@spanish?9peru?$AA@ 100939d0     LIBCMTD:getqloc.obj
 0002:000019e0       ??_C@_0BB@OGOF@spanish?9paraguay?$AA@ 100939e0     LIBCMTD:getqloc.obj
 0002:000019f4       ??_C@_0P@LLFA@spanish?9panama?$AA@ 100939f4     LIBCMTD:getqloc.obj
 0002:00001a04       ??_C@_0BC@BBJM@spanish?9nicaragua?$AA@ 10093a04     LIBCMTD:getqloc.obj
 0002:00001a18       ??_C@_0P@NJBN@spanish?9modern?$AA@ 10093a18     LIBCMTD:getqloc.obj
 0002:00001a28       ??_C@_0BA@NHDN@spanish?9mexican?$AA@ 10093a28     LIBCMTD:getqloc.obj
 0002:00001a38       ??_C@_0BB@JHOJ@spanish?9honduras?$AA@ 10093a38     LIBCMTD:getqloc.obj
 0002:00001a4c       ??_C@_0BC@BOOM@spanish?9guatemala?$AA@ 10093a4c     LIBCMTD:getqloc.obj
 0002:00001a60       ??_C@_0BE@EELI@spanish?9el?5salvador?$AA@ 10093a60     LIBCMTD:getqloc.obj
 0002:00001a74       ??_C@_0BA@POAE@spanish?9ecuador?$AA@ 10093a74     LIBCMTD:getqloc.obj
 0002:00001a84       ??_C@_0BL@LDKN@spanish?9dominican?5republic?$AA@ 10093a84     LIBCMTD:getqloc.obj
 0002:00001aa0       ??_C@_0BD@HPMH@spanish?9costa?5rica?$AA@ 10093aa0     LIBCMTD:getqloc.obj
 0002:00001ab4       ??_C@_0BB@NDDK@spanish?9colombia?$AA@ 10093ab4     LIBCMTD:getqloc.obj
 0002:00001ac8       ??_C@_0O@BJHA@spanish?9chile?$AA@ 10093ac8     LIBCMTD:getqloc.obj
 0002:00001ad8       ??_C@_0BA@OBNG@spanish?9bolivia?$AA@ 10093ad8     LIBCMTD:getqloc.obj
 0002:00001ae8       ??_C@_0BC@EFAM@spanish?9argentina?$AA@ 10093ae8     LIBCMTD:getqloc.obj
 0002:00001afc       ??_C@_0BF@KMMM@portuguese?9brazilian?$AA@ 10093afc     LIBCMTD:getqloc.obj
 0002:00001b14       ??_C@_0BC@BAAE@norwegian?9nynorsk?$AA@ 10093b14     LIBCMTD:getqloc.obj
 0002:00001b28       ??_C@_0BB@PBHK@norwegian?9bokmal?$AA@ 10093b28     LIBCMTD:getqloc.obj
 0002:00001b3c       ??_C@_09EHKL@norwegian?$AA@ 10093b3c     LIBCMTD:getqloc.obj
 0002:00001b48       ??_C@_0O@BEAN@italian?9swiss?$AA@ 10093b48     LIBCMTD:getqloc.obj
 0002:00001b58       ??_C@_0O@OIFK@irish?9english?$AA@ 10093b58     LIBCMTD:getqloc.obj
 0002:00001b68       ??_C@_0N@NBPL@german?9swiss?$AA@ 10093b68     LIBCMTD:getqloc.obj
 0002:00001b78       ??_C@_0BC@ICFJ@german?9luxembourg?$AA@ 10093b78     LIBCMTD:getqloc.obj
 0002:00001b8c       ??_C@_0BE@GGPC@german?9lichtenstein?$AA@ 10093b8c     LIBCMTD:getqloc.obj
 0002:00001ba0       ??_C@_0BA@MKDC@german?9austrian?$AA@ 10093ba0     LIBCMTD:getqloc.obj
 0002:00001bb0       ??_C@_0N@ODNB@french?9swiss?$AA@ 10093bb0     LIBCMTD:getqloc.obj
 0002:00001bc0       ??_C@_0BC@MGCM@french?9luxembourg?$AA@ 10093bc0     LIBCMTD:getqloc.obj
 0002:00001bd4       ??_C@_0BA@NABK@french?9canadian?$AA@ 10093bd4     LIBCMTD:getqloc.obj
 0002:00001be4       ??_C@_0P@CJNO@french?9belgian?$AA@ 10093be4     LIBCMTD:getqloc.obj
 0002:00001bf4       ??_C@_0M@LJOL@english?9usa?$AA@ 10093bf4     LIBCMTD:getqloc.obj
 0002:00001c00       ??_C@_0L@FMNC@english?9us?$AA@ 10093c00     LIBCMTD:getqloc.obj
 0002:00001c0c       ??_C@_0L@KBBK@english?9uk?$AA@ 10093c0c     LIBCMTD:getqloc.obj
 0002:00001c18       ??_C@_0BK@NDDE@english?9trinidad?5y?5tobago?$AA@ 10093c18     LIBCMTD:getqloc.obj
 0002:00001c34       ??_C@_0BF@LKML@english?9south?5africa?$AA@ 10093c34     LIBCMTD:getqloc.obj
 0002:00001c4c       ??_C@_0L@EGPP@english?9nz?$AA@ 10093c4c     LIBCMTD:getqloc.obj
 0002:00001c58       ??_C@_0BA@HLH@english?9jamaica?$AA@ 10093c58     LIBCMTD:getqloc.obj
 0002:00001c68       ??_C@_0M@PMJI@english?9ire?$AA@ 10093c68     LIBCMTD:getqloc.obj
 0002:00001c74       ??_C@_0BC@HINE@english?9caribbean?$AA@ 10093c74     LIBCMTD:getqloc.obj
 0002:00001c88       ??_C@_0M@DCFH@english?9can?$AA@ 10093c88     LIBCMTD:getqloc.obj
 0002:00001c94       ??_C@_0P@DGHK@english?9belize?$AA@ 10093c94     LIBCMTD:getqloc.obj
 0002:00001ca4       ??_C@_0M@FLHK@english?9aus?$AA@ 10093ca4     LIBCMTD:getqloc.obj
 0002:00001cb0       ??_C@_0BB@HNCK@english?9american?$AA@ 10093cb0     LIBCMTD:getqloc.obj
 0002:00001cc4       ??_C@_0O@PAMI@dutch?9belgian?$AA@ 10093cc4     LIBCMTD:getqloc.obj
 0002:00001cd4       ??_C@_0BE@FPEJ@chinese?9traditional?$AA@ 10093cd4     LIBCMTD:getqloc.obj
 0002:00001ce8       ??_C@_0BC@CHFL@chinese?9singapore?$AA@ 10093ce8     LIBCMTD:getqloc.obj
 0002:00001cfc       ??_C@_0BD@DCMH@chinese?9simplified?$AA@ 10093cfc     LIBCMTD:getqloc.obj
 0002:00001d10       ??_C@_0BB@JMOE@chinese?9hongkong?$AA@ 10093d10     LIBCMTD:getqloc.obj
 0002:00001d24       ??_C@_07NGFN@chinese?$AA@  10093d24     LIBCMTD:getqloc.obj
 0002:00001d2c       ??_C@_03PCOI@chi?$AA@      10093d2c     LIBCMTD:getqloc.obj
 0002:00001d30       ??_C@_03FIHP@chh?$AA@      10093d30     LIBCMTD:getqloc.obj
 0002:00001d34       ??_C@_08HFLO@canadian?$AA@ 10093d34     LIBCMTD:getqloc.obj
 0002:00001d40       ??_C@_07INIJ@belgian?$AA@  10093d40     LIBCMTD:getqloc.obj
 0002:00001d48       ??_C@_0L@LCCA@australian?$AA@ 10093d48     LIBCMTD:getqloc.obj
 0002:00001d54       ??_C@_0BB@BJIO@american?9english?$AA@ 10093d54     LIBCMTD:getqloc.obj
 0002:00001d68       ??_C@_0BB@DAGO@american?5english?$AA@ 10093d68     LIBCMTD:getqloc.obj
 0002:00001d7c       ??_C@_08HENB@american?$AA@ 10093d7c     LIBCMTD:getqloc.obj
 0002:00001d88       ??_C@_03DGJE@OCP?$AA@      10093d88     LIBCMTD:getqloc.obj
 0002:00001d8c       ??_C@_03EKFG@ACP?$AA@      10093d8c     LIBCMTD:getqloc.obj
 0002:00001d9c       ??_C@_09LNLM@osfinfo?4c?$AA@ 10093d9c     LIBCMTD:osfinfo.obj
 0002:00001da8       ??_C@_06PAPI@1?$CDQNAN?$AA@ 10093da8     LIBCMTD:x10fout.obj
 0002:00001db0       ??_C@_05BGNL@1?$CDINF?$AA@ 10093db0     LIBCMTD:x10fout.obj
 0002:00001db8       ??_C@_05EDPF@1?$CDIND?$AA@ 10093db8     LIBCMTD:x10fout.obj
 0002:00001dc0       ??_C@_06LKFM@1?$CDSNAN?$AA@ 10093dc0     LIBCMTD:x10fout.obj
 0002:00001dc8       ??_C@_07CJME@H?3mm?3ss?$AA@ 10093dc8     LIBCMTD:strftime.obj
 0002:00001dd0       ??_C@_0BE@MHI@dddd?0?5MMMM?5dd?0?5yyyy?$AA@ 10093dd0     LIBCMTD:strftime.obj
 0002:00001de4       ??_C@_06HCAD@M?1d?1yy?$AA@ 10093de4     LIBCMTD:strftime.obj
 0002:00001dec       ??_C@_02DBLP@PM?$AA@       10093dec     LIBCMTD:strftime.obj
 0002:00001df0       ??_C@_02ENLM@AM?$AA@       10093df0     LIBCMTD:strftime.obj
 0002:00001df4       ??_C@_08LIDF@December?$AA@ 10093df4     LIBCMTD:strftime.obj
 0002:00001e00       ??_C@_08NJLI@November?$AA@ 10093e00     LIBCMTD:strftime.obj
 0002:00001e0c       ??_C@_07IAMM@October?$AA@  10093e0c     LIBCMTD:strftime.obj
 0002:00001e14       ??_C@_09MKGD@September?$AA@ 10093e14     LIBCMTD:strftime.obj
 0002:00001e20       ??_C@_06PADP@August?$AA@   10093e20     LIBCMTD:strftime.obj
 0002:00001e28       ??_C@_04PIJO@July?$AA@     10093e28     LIBCMTD:strftime.obj
 0002:00001e30       ??_C@_04ICFP@June?$AA@     10093e30     LIBCMTD:strftime.obj
 0002:00001e38       ??_C@_05JFGC@April?$AA@    10093e38     LIBCMTD:strftime.obj
 0002:00001e40       ??_C@_05FGPD@March?$AA@    10093e40     LIBCMTD:strftime.obj
 0002:00001e48       ??_C@_08PGBA@February?$AA@ 10093e48     LIBCMTD:strftime.obj
 0002:00001e54       ??_C@_07BPKJ@January?$AA@  10093e54     LIBCMTD:strftime.obj
 0002:00001e5c       ??_C@_03PGJO@Dec?$AA@      10093e5c     LIBCMTD:strftime.obj
 0002:00001e60       ??_C@_03PDLM@Nov?$AA@      10093e60     LIBCMTD:strftime.obj
 0002:00001e64       ??_C@_03BLHK@Oct?$AA@      10093e64     LIBCMTD:strftime.obj
 0002:00001e68       ??_C@_03DPFM@Sep?$AA@      10093e68     LIBCMTD:strftime.obj
 0002:00001e6c       ??_C@_03CMCH@Aug?$AA@      10093e6c     LIBCMTD:strftime.obj
 0002:00001e70       ??_C@_03OBKI@Jul?$AA@      10093e70     LIBCMTD:strftime.obj
 0002:00001e74       ??_C@_03LEIG@Jun?$AA@      10093e74     LIBCMTD:strftime.obj
 0002:00001e78       ??_C@_03MGHB@May?$AA@      10093e78     LIBCMTD:strftime.obj
 0002:00001e7c       ??_C@_03MJJM@Apr?$AA@      10093e7c     LIBCMTD:strftime.obj
 0002:00001e80       ??_C@_03GNHA@Mar?$AA@      10093e80     LIBCMTD:strftime.obj
 0002:00001e84       ??_C@_03PICE@Feb?$AA@      10093e84     LIBCMTD:strftime.obj
 0002:00001e88       ??_C@_03IEIF@Jan?$AA@      10093e88     LIBCMTD:strftime.obj
 0002:00001e8c       ??_C@_08FAKH@Saturday?$AA@ 10093e8c     LIBCMTD:strftime.obj
 0002:00001e98       ??_C@_06ONCK@Friday?$AA@   10093e98     LIBCMTD:strftime.obj
 0002:00001ea0       ??_C@_08CCFO@Thursday?$AA@ 10093ea0     LIBCMTD:strftime.obj
 0002:00001eac       ??_C@_09PBIN@Wednesday?$AA@ 10093eac     LIBCMTD:strftime.obj
 0002:00001eb8       ??_C@_07BMBC@Tuesday?$AA@  10093eb8     LIBCMTD:strftime.obj
 0002:00001ec0       ??_C@_06CHLK@Monday?$AA@   10093ec0     LIBCMTD:strftime.obj
 0002:00001ec8       ??_C@_06OOEM@Sunday?$AA@   10093ec8     LIBCMTD:strftime.obj
 0002:00001ed0       ??_C@_03MPKK@Sat?$AA@      10093ed0     LIBCMTD:strftime.obj
 0002:00001ed4       ??_C@_03FINJ@Fri?$AA@      10093ed4     LIBCMTD:strftime.obj
 0002:00001ed8       ??_C@_03HIKC@Thu?$AA@      10093ed8     LIBCMTD:strftime.obj
 0002:00001edc       ??_C@_03HECK@Wed?$AA@      10093edc     LIBCMTD:strftime.obj
 0002:00001ee0       ??_C@_03ECCP@Tue?$AA@      10093ee0     LIBCMTD:strftime.obj
 0002:00001ee4       ??_C@_03PIEP@Mon?$AA@      10093ee4     LIBCMTD:strftime.obj
 0002:00001ee8       ??_C@_03FHEP@Sun?$AA@      10093ee8     LIBCMTD:strftime.obj
 0002:00001eec       ??_C@_03MKGK@a?1p?$AA@     10093eec     LIBCMTD:strftime.obj
 0002:00001ef0       ??_C@_05BDJK@am?1pm?$AA@   10093ef0     LIBCMTD:strftime.obj
 0002:00001ef8       ??_C@_0L@HKCB@inithelp?4c?$AA@ 10093ef8     LIBCMTD:inithelp.obj
 0002:00001f20       ??_C@_0L@EJNO@wtombenv?4c?$AA@ 10093f20     LIBCMTD:wtombenv.obj
 0002:00001f4c       ??_C@_07FOIK@a_cmp?4c?$AA@ 10093f4c     LIBCMTD:a_cmp.obj
 0002:00001f54       ??_C@_0DN@PPKB@cchCount1?$DN?$DN0?5?$CG?$CG?5cchCount2?$DN?$DN1?5?$HM?$HM?5@ 10093f54     LIBCMTD:a_cmp.obj
 0002:00001fb0       ??_C@_08FEIK@setenv?4c?$AA@ 10093fb0     LIBCMTD:setenv.obj
 0002:00001fbc       ??_C@_0BA@HHMB@string?5too?5long?$AA@ 10093fbc     libcpmtd:string.obj
 0002:00001fd0       ??_7logic_error@std@@6B@   10093fd0     libcpmtd:string.obj
 0002:00001fe0       ??_7length_error@std@@6B@  10093fe0     libcpmtd:string.obj
 0002:00001fec       ??_C@_0BI@EEBE@invalid?5string?5position?$AA@ 10093fec     libcpmtd:string.obj
 0002:00002008       ??_7out_of_range@std@@6B@  10094008     libcpmtd:string.obj
 0002:00002018       ??_7istrstream@std@@6B@    10094018     libcpmtd:strstrea.obj
 0002:00002020       ??_7ostrstream@std@@6B@    10094020     libcpmtd:strstrea.obj
 0002:00002024       ??_8ostrstream@std@@7B@    10094024     libcpmtd:strstrea.obj
 0002:00002030       ??_7strstreambuf@std@@6B@  10094030     libcpmtd:strstrea.obj
 0002:00002068       ??_7strstream@std@@6B@     10094068     libcpmtd:strstrea.obj
 0002:00002070       ??_7?$basic_ostream@DU?$char_traits@D@std@@@std@@6B@ 10094070     libcpmtd:strstrea.obj
 0002:00002078       ??_7?$basic_ios@DU?$char_traits@D@std@@@std@@6B@ 10094078     libcpmtd:strstrea.obj
 0002:00002080       ??_7ios_base@std@@6B@      10094080     libcpmtd:strstrea.obj
 0002:00002088       ??_7?$basic_istream@DU?$char_traits@D@std@@@std@@6B@ 10094088     libcpmtd:strstrea.obj
 0002:00002090       ??_7?$basic_streambuf@DU?$char_traits@D@std@@@std@@6B@ 10094090     libcpmtd:strstrea.obj
 0002:000020c8       ??_7?$basic_iostream@DU?$char_traits@D@std@@@std@@6B@ 100940c8     libcpmtd:strstrea.obj
 0002:000020d0       ?_Fpz@std@@3_JB            100940d0     libcpmtd:ios.obj
 0002:000020d8       ??_C@_0BA@NGIA@ios?3?3eofbit?5set?$AA@ 100940d8     libcpmtd:ios.obj
 0002:000020e8       ??_C@_0BB@KPBH@ios?3?3failbit?5set?$AA@ 100940e8     libcpmtd:ios.obj
 0002:000020fc       ??_C@_0BA@HGGD@ios?3?3badbit?5set?$AA@ 100940fc     libcpmtd:ios.obj
 0002:00002110       ??_7runtime_error@std@@6B@ 10094110     libcpmtd:ios.obj
 0002:00002120       ??_7failure@ios_base@std@@6B@ 10094120     libcpmtd:ios.obj
 0002:0000212c       ??_C@_0BP@INPK@invalid?5ios?3?3iword?1pword?5index?$AA@ 1009412c     libcpmtd:ios.obj
 0002:0000214c       ?table_size@?$ctype@D@std@@2IB 1009414c     libcpmtd:locale0.obj
 0002:00002150       ??_C@_01FDHG@?$CK?$AA@     10094150     libcpmtd:locale0.obj
 0002:00002158       ??_7_Locimp@locale@std@@6B@ 10094158     libcpmtd:locale0.obj
 0002:00002160       ??_7facet@locale@std@@6B@  10094160     libcpmtd:locale0.obj
 0002:00002164       ??_C@_0BA@KCC@bad?5locale?5name?$AA@ 10094164     libcpmtd:locale.obj
 0002:00002178       ??_7?$ctype@D@std@@6B@     10094178     libcpmtd:locale.obj
 0002:00002190       ??_7ctype_base@std@@6B@    10094190     libcpmtd:locale.obj
 0002:00002198       ??_7?$codecvt@DDH@std@@6B@ 10094198     libcpmtd:locale.obj
 0002:000021b8       ??_7codecvt_base@std@@6B@  100941b8     libcpmtd:locale.obj
 0002:000021cc       ??_7?$num_get@DV?$istreambuf_iterator@DU?$char_traits@D@std@@@std@@@std@@6B@ 100941cc     libcpmtd:locale.obj
 0002:000021f8       ??_7?$num_put@DV?$ostreambuf_iterator@DU?$char_traits@D@std@@@std@@@std@@6B@ 100941f8     libcpmtd:locale.obj
 0002:00002218       ??_7?$numpunct@D@std@@6B@  10094218     libcpmtd:locale.obj
 0002:00002230       ??_C@_0BH@CFAI@0123456789abcdefABCDEF?$AA@ 10094230     libcpmtd:locale.obj
 0002:0000224c       ??_7bad_cast@std@@6B@      1009424c     libcpmtd:locale.obj
 0002:0000225c       ??_7?$basic_filebuf@DU?$char_traits@D@std@@@std@@6B@ 1009425c     libcpmtd:iostream.obj
 0002:00002294       ??_7?$basic_ostream@GU?$char_traits@G@std@@@std@@6B@ 10094294     libcpmtd:wiostrea.obj
 0002:00002298       ??_8?$basic_ostream@GU?$char_traits@G@std@@@std@@7B@ 10094298     libcpmtd:wiostrea.obj
 0002:000022a4       ??_7?$basic_ios@GU?$char_traits@G@std@@@std@@6B@ 100942a4     libcpmtd:wiostrea.obj
 0002:000022ac       ??_7?$basic_istream@GU?$char_traits@G@std@@@std@@6B@ 100942ac     libcpmtd:wiostrea.obj
 0002:000022b0       ??_8?$basic_istream@GU?$char_traits@G@std@@@std@@7B@ 100942b0     libcpmtd:wiostrea.obj
 0002:000022bc       ??_7?$basic_filebuf@GU?$char_traits@G@std@@@std@@6B@ 100942bc     libcpmtd:wiostrea.obj
 0002:000022f4       ??_7?$basic_streambuf@GU?$char_traits@G@std@@@std@@6B@ 100942f4     libcpmtd:wiostrea.obj
 0002:00002328       ?nothrow@std@@3Unothrow_t@1@B 10094328     libcpmtd:nomemory.obj
 0002:0000232c       ??_C@_0P@LJNA@bad?5allocation?$AA@ 1009432c     libcpmtd:nomemory.obj
 0002:00002340       ??_7bad_alloc@std@@6B@     10094340     libcpmtd:nomemory.obj
 0002:00002350       ??_7?$codecvt@GDH@std@@6B@ 10094350     libcpmtd:wlocale.obj
 0002:00002370       ??_7?$ctype@G@std@@6B@     10094370     libcpmtd:wlocale.obj
 0002:000023a8       ??_7?$time_put@GV?$ostreambuf_iterator@GU?$char_traits@G@std@@@std@@@std@@6B@ 100943a8     libcpmtd:wlocale.obj
 0002:000023b4       ??_7time_base@std@@6B@     100943b4     libcpmtd:wlocale.obj
 0002:000023b8       ??_C@_04HHID@?$CB?$CFx?$AA?$AA@ 100943b8     libcpmtd:wlocale.obj
 0002:000023c4       ??_7?$num_get@GV?$istreambuf_iterator@GU?$char_traits@G@std@@@std@@@std@@6B@ 100943c4     libcpmtd:wlocale.obj
 0002:000023f0       ??_7?$num_put@GV?$ostreambuf_iterator@GU?$char_traits@G@std@@@std@@@std@@6B@ 100943f0     libcpmtd:wlocale.obj
 0002:00002410       ??_7?$numpunct@G@std@@6B@  10094410     libcpmtd:wlocale.obj
 0002:0000242c       ??_7?$collate@G@std@@6B@   1009442c     libcpmtd:wlocale.obj
 0002:00002440       ??_7?$messages@G@std@@6B@  10094440     libcpmtd:wlocale.obj
 0002:00002454       ??_7messages_base@std@@6B@ 10094454     libcpmtd:wlocale.obj
 0002:0000245c       ??_7?$money_get@GV?$istreambuf_iterator@GU?$char_traits@G@std@@@std@@@std@@6B@ 1009445c     libcpmtd:wlocale.obj
 0002:0000246c       ??_7?$money_put@GV?$ostreambuf_iterator@GU?$char_traits@G@std@@@std@@@std@@6B@ 1009446c     libcpmtd:wlocale.obj
 0002:00002478       ??_C@_05FFJC@?$CF?40Lf?$AA@ 10094478     libcpmtd:wlocale.obj
 0002:00002480       __real@8@40209502f90000000000 10094480     libcpmtd:wlocale.obj
 0002:00002488       __real@8@40739a130b963a6c1000 10094488     libcpmtd:wlocale.obj
 0002:00002494       ??_7?$moneypunct@G$0A@@std@@6B@ 10094494     libcpmtd:wlocale.obj
 0002:000024c0       ??_7?$moneypunct@G$00@std@@6B@ 100944c0     libcpmtd:wlocale.obj
 0002:000024ec       ??_7?$time_get@GV?$istreambuf_iterator@GU?$char_traits@G@std@@@std@@@std@@6B@ 100944ec     libcpmtd:wlocale.obj
 0002:0000250c       ??_7?$_Mpunct@G@std@@6B@   1009450c     libcpmtd:wlocale.obj
 0002:00002534       ??_C@_02ELCB@no?$AA@       10094534     libcpmtd:wlocale.obj
 0002:00002538       ??_C@_03LGKI@yes?$AA@      10094538     libcpmtd:wlocale.obj
 0002:0000253c       ?npos@?$basic_string@GU?$char_traits@G@std@@V?$allocator@G@2@@std@@2IB 1009453c     libcpmtd:wlocale.obj
 0002:00002544       ??_7money_base@std@@6B@    10094544     libcpmtd:wlocale.obj
 0002:00002548       ??_C@_0FG@ILEN@?3Sun?3Sunday?3Mon?3Monday?3Tue?3Tuesd@ 10094548     libcpmtd:wlocale.obj
 0002:000025a0       ??_C@_0IH@JLLA@?3Jan?3January?3Feb?3February?3Mar?3Ma@ 100945a0     libcpmtd:wlocale.obj
 0002:00002628       ?_C@?1??_Nullstr@?$basic_string@GU?$char_traits@G@std@@V?$allocator@G@2@@std@@CAPBGXZ@4GB 10094628     libcpmtd:wlocale.obj
 0002:0000262c       ??_C@_01GJD@?9?$AA@        1009462c     libcpmtd:wlocale.obj
 0002:00002630       ??_C@_04HDBI@$?$CLvx?$AA@  10094630     libcpmtd:wlocale.obj
 0002:00002638       ??_C@_0FB@PNAB@?$CLv$x?$CLv$xv$?$CLxv?$CL$xv$?$CLx?$CL$vx?$CL$vx$v?$CLx@ 10094638     libcpmtd:wlocale.obj
 0002:00002690       ??_7?$collate@D@std@@6B@   10094690     libcpmtd:xlocale.obj
 0002:000026a4       ??_7?$messages@D@std@@6B@  100946a4     libcpmtd:xlocale.obj
 0002:000026b8       ??_7?$money_get@DV?$istreambuf_iterator@DU?$char_traits@D@std@@@std@@@std@@6B@ 100946b8     libcpmtd:xlocale.obj
 0002:000026c8       ??_7?$money_put@DV?$ostreambuf_iterator@DU?$char_traits@D@std@@@std@@@std@@6B@ 100946c8     libcpmtd:xlocale.obj
 0002:000026d8       ??_7?$moneypunct@D$0A@@std@@6B@ 100946d8     libcpmtd:xlocale.obj
 0002:00002704       ??_7?$moneypunct@D$00@std@@6B@ 10094704     libcpmtd:xlocale.obj
 0002:00002730       ??_7?$time_get@DV?$istreambuf_iterator@DU?$char_traits@D@std@@@std@@@std@@6B@ 10094730     libcpmtd:xlocale.obj
 0002:00002750       ??_7?$time_put@DV?$ostreambuf_iterator@DU?$char_traits@D@std@@@std@@@std@@6B@ 10094750     libcpmtd:xlocale.obj
 0002:0000275c       ??_7?$_Mpunct@D@std@@6B@   1009475c     libcpmtd:xlocale.obj
 0002:00002788       __real@8@4002a000000000000000 10094788     libcpmtd:xstod.obj
 0002:00002790       ??_C@_09CDHA@xmbtowc?4c?$AA@ 10094790     libcpmtd:xmbtowc.obj
 0002:0000279c       ??_C@_0CD@NPPL@MB_CUR_MAX?5?$DN?$DN?51?5?$HM?$HM?5MB_CUR_MAX?5?$DN?$DN@ 1009479c     libcpmtd:xmbtowc.obj
 0002:000027c0       ??_C@_08JFHL@fputwc?4c?$AA@ 100947c0     LIBCMTD:fputwc.obj
 0002:000027cc       ??_C@_09JKFL@ungetwc?4c?$AA@ 100947cc     LIBCMTD:ungetwc.obj
 0002:000027d8       ??_C@_08OPML@fgetwc?4c?$AA@ 100947d8     LIBCMTD:fgetwc.obj
 0002:000027e4       ??_C@_08MOLN@mbtowc?4c?$AA@ 100947e4     LIBCMTD:mbtowc.obj
 0002:000027f0       ??_C@_06MICP@CONIN$?$AA@   100947f0     LIBCMTD:initcon.obj
 0002:000027f8       ??_C@_07GLCC@CONOUT$?$AA@  100947f8     LIBCMTD:initcon.obj
 0002:00003038       ??_R1A@?0A@A@type_info@@8  10095038     LIBCMTD:typinfo.obj
 0002:00003050       ??_R2type_info@@8          10095050     LIBCMTD:typinfo.obj
 0002:00003058       ??_R3type_info@@8          10095058     LIBCMTD:typinfo.obj
 0002:00003068       ??_R4type_info@@6B@        10095068     LIBCMTD:typinfo.obj
 0002:00003080       ??_R1A@?0A@A@exception@@8  10095080     LIBCMTD:stdexcpt.obj
 0002:00003098       ??_R2exception@@8          10095098     LIBCMTD:stdexcpt.obj
 0002:000030a0       ??_R3exception@@8          100950a0     LIBCMTD:stdexcpt.obj
 0002:000030b0       ??_R4exception@@6B@        100950b0     LIBCMTD:stdexcpt.obj
 0002:000030c8       ??_R1A@?0A@A@logic_error@std@@8 100950c8     libcpmtd:string.obj
 0002:000030e0       ??_R2logic_error@std@@8    100950e0     libcpmtd:string.obj
 0002:000030f0       ??_R3logic_error@std@@8    100950f0     libcpmtd:string.obj
 0002:00003100       ??_R4logic_error@std@@6B@  10095100     libcpmtd:string.obj
 0002:00003118       ??_R1A@?0A@A@length_error@std@@8 10095118     libcpmtd:string.obj
 0002:00003130       ??_R2length_error@std@@8   10095130     libcpmtd:string.obj
 0002:00003140       ??_R3length_error@std@@8   10095140     libcpmtd:string.obj
 0002:00003150       ??_R4length_error@std@@6B@ 10095150     libcpmtd:string.obj
 0002:00003168       ??_R1A@?0A@A@out_of_range@std@@8 10095168     libcpmtd:string.obj
 0002:00003180       ??_R2out_of_range@std@@8   10095180     libcpmtd:string.obj
 0002:00003190       ??_R3out_of_range@std@@8   10095190     libcpmtd:string.obj
 0002:000031a0       ??_R4out_of_range@std@@6B@ 100951a0     libcpmtd:string.obj
 0002:000031b8       ??_R1A@A@3A@ios_base@std@@8 100951b8     libcpmtd:strstrea.obj
 0002:000031d0       ??_R1A@A@3BA@?$basic_ios@DU?$char_traits@D@std@@@std@@8 100951d0     libcpmtd:strstrea.obj
 0002:000031e8       ??_R1A@?0A@A@?$basic_istream@DU?$char_traits@D@std@@@std@@8 100951e8     libcpmtd:strstrea.obj
 0002:00003200       ??_R1A@?0A@A@istrstream@std@@8 10095200     libcpmtd:strstrea.obj
 0002:00003218       ??_R2istrstream@std@@8     10095218     libcpmtd:strstrea.obj
 0002:00003230       ??_R3istrstream@std@@8     10095230     libcpmtd:strstrea.obj
 0002:00003240       ??_R4istrstream@std@@6B@   10095240     libcpmtd:strstrea.obj
 0002:00003258       ??_R1A@?0A@A@?$basic_ostream@DU?$char_traits@D@std@@@std@@8 10095258     libcpmtd:strstrea.obj
 0002:00003270       ??_R1A@?0A@A@ostrstream@std@@8 10095270     libcpmtd:strstrea.obj
 0002:00003288       ??_R2ostrstream@std@@8     10095288     libcpmtd:strstrea.obj
 0002:000032a0       ??_R3ostrstream@std@@8     100952a0     libcpmtd:strstrea.obj
 0002:000032b0       ??_R4ostrstream@std@@6B@   100952b0     libcpmtd:strstrea.obj
 0002:000032c8       ??_R1A@?0A@A@?$basic_streambuf@DU?$char_traits@D@std@@@std@@8 100952c8     libcpmtd:strstrea.obj
 0002:000032e0       ??_R1A@?0A@A@strstreambuf@std@@8 100952e0     libcpmtd:strstrea.obj
 0002:000032f8       ??_R2strstreambuf@std@@8   100952f8     libcpmtd:strstrea.obj
 0002:00003308       ??_R3strstreambuf@std@@8   10095308     libcpmtd:strstrea.obj
 0002:00003318       ??_R4strstreambuf@std@@6B@ 10095318     libcpmtd:strstrea.obj
 0002:00003330       ??_R17?0A@A@?$basic_ostream@DU?$char_traits@D@std@@@std@@8 10095330     libcpmtd:strstrea.obj
 0002:00003348       ??_R1A@?0A@A@?$basic_iostream@DU?$char_traits@D@std@@@std@@8 10095348     libcpmtd:strstrea.obj
 0002:00003360       ??_R1A@?0A@A@strstream@std@@8 10095360     libcpmtd:strstrea.obj
 0002:00003378       ??_R2strstream@std@@8      10095378     libcpmtd:strstrea.obj
 0002:000033a0       ??_R3strstream@std@@8      100953a0     libcpmtd:strstrea.obj
 0002:000033b0       ??_R4strstream@std@@6B@    100953b0     libcpmtd:strstrea.obj
 0002:000033c8       ??_R2?$basic_ostream@DU?$char_traits@D@std@@@std@@8 100953c8     libcpmtd:strstrea.obj
 0002:000033d8       ??_R3?$basic_ostream@DU?$char_traits@D@std@@@std@@8 100953d8     libcpmtd:strstrea.obj
 0002:000033e8       ??_R4?$basic_ostream@DU?$char_traits@D@std@@@std@@6B@ 100953e8     libcpmtd:strstrea.obj
 0002:00003400       ??_R1A@?0A@A@ios_base@std@@8 10095400     libcpmtd:strstrea.obj
 0002:00003418       ??_R1A@?0A@A@?$basic_ios@DU?$char_traits@D@std@@@std@@8 10095418     libcpmtd:strstrea.obj
 0002:00003430       ??_R2?$basic_ios@DU?$char_traits@D@std@@@std@@8 10095430     libcpmtd:strstrea.obj
 0002:00003440       ??_R3?$basic_ios@DU?$char_traits@D@std@@@std@@8 10095440     libcpmtd:strstrea.obj
 0002:00003450       ??_R4?$basic_ios@DU?$char_traits@D@std@@@std@@6B@ 10095450     libcpmtd:strstrea.obj
 0002:00003464       ??_R2ios_base@std@@8       10095464     libcpmtd:strstrea.obj
 0002:00003470       ??_R3ios_base@std@@8       10095470     libcpmtd:strstrea.obj
 0002:00003480       ??_R4ios_base@std@@6B@     10095480     libcpmtd:strstrea.obj
 0002:00003498       ??_R2?$basic_istream@DU?$char_traits@D@std@@@std@@8 10095498     libcpmtd:strstrea.obj
 0002:000034a8       ??_R3?$basic_istream@DU?$char_traits@D@std@@@std@@8 100954a8     libcpmtd:strstrea.obj
 0002:000034b8       ??_R4?$basic_istream@DU?$char_traits@D@std@@@std@@6B@ 100954b8     libcpmtd:strstrea.obj
 0002:000034cc       ??_R2?$basic_streambuf@DU?$char_traits@D@std@@@std@@8 100954cc     libcpmtd:strstrea.obj
 0002:000034d8       ??_R3?$basic_streambuf@DU?$char_traits@D@std@@@std@@8 100954d8     libcpmtd:strstrea.obj
 0002:000034e8       ??_R4?$basic_streambuf@DU?$char_traits@D@std@@@std@@6B@ 100954e8     libcpmtd:strstrea.obj
 0002:00003500       ??_R2?$basic_iostream@DU?$char_traits@D@std@@@std@@8 10095500     libcpmtd:strstrea.obj
 0002:00003520       ??_R3?$basic_iostream@DU?$char_traits@D@std@@@std@@8 10095520     libcpmtd:strstrea.obj
 0002:00003530       ??_R4?$basic_iostream@DU?$char_traits@D@std@@@std@@6B@ 10095530     libcpmtd:strstrea.obj
 0002:00003548       ??_R1A@?0A@A@runtime_error@std@@8 10095548     libcpmtd:ios.obj
 0002:00003560       ??_R2runtime_error@std@@8  10095560     libcpmtd:ios.obj
 0002:00003570       ??_R3runtime_error@std@@8  10095570     libcpmtd:ios.obj
 0002:00003580       ??_R4runtime_error@std@@6B@ 10095580     libcpmtd:ios.obj
 0002:00003598       ??_R1A@?0A@A@failure@ios_base@std@@8 10095598     libcpmtd:ios.obj
 0002:000035b0       ??_R2failure@ios_base@std@@8 100955b0     libcpmtd:ios.obj
 0002:000035c0       ??_R3failure@ios_base@std@@8 100955c0     libcpmtd:ios.obj
 0002:000035d0       ??_R4failure@ios_base@std@@6B@ 100955d0     libcpmtd:ios.obj
 0002:000035e8       ??_R1A@?0A@A@facet@locale@std@@8 100955e8     libcpmtd:locale0.obj
 0002:00003600       ??_R1A@?0A@A@_Locimp@locale@std@@8 10095600     libcpmtd:locale0.obj
 0002:00003618       ??_R2_Locimp@locale@std@@8 10095618     libcpmtd:locale0.obj
 0002:00003628       ??_R3_Locimp@locale@std@@8 10095628     libcpmtd:locale0.obj
 0002:00003638       ??_R4_Locimp@locale@std@@6B@ 10095638     libcpmtd:locale0.obj
 0002:0000364c       ??_R2facet@locale@std@@8   1009564c     libcpmtd:locale0.obj
 0002:00003658       ??_R3facet@locale@std@@8   10095658     libcpmtd:locale0.obj
 0002:00003668       ??_R4facet@locale@std@@6B@ 10095668     libcpmtd:locale0.obj
 0002:00003680       ??_R1A@?0A@A@ctype_base@std@@8 10095680     libcpmtd:locale.obj
 0002:00003698       ??_R1A@?0A@A@?$ctype@D@std@@8 10095698     libcpmtd:locale.obj
 0002:000036b0       ??_R2?$ctype@D@std@@8      100956b0     libcpmtd:locale.obj
 0002:000036c0       ??_R3?$ctype@D@std@@8      100956c0     libcpmtd:locale.obj
 0002:000036d0       ??_R4?$ctype@D@std@@6B@    100956d0     libcpmtd:locale.obj
 0002:000036e8       ??_R2ctype_base@std@@8     100956e8     libcpmtd:locale.obj
 0002:000036f8       ??_R3ctype_base@std@@8     100956f8     libcpmtd:locale.obj
 0002:00003708       ??_R4ctype_base@std@@6B@   10095708     libcpmtd:locale.obj
 0002:00003720       ??_R1A@?0A@A@codecvt_base@std@@8 10095720     libcpmtd:locale.obj
 0002:00003738       ??_R1A@?0A@A@?$codecvt@DDH@std@@8 10095738     libcpmtd:locale.obj
 0002:00003750       ??_R2?$codecvt@DDH@std@@8  10095750     libcpmtd:locale.obj
 0002:00003760       ??_R3?$codecvt@DDH@std@@8  10095760     libcpmtd:locale.obj
 0002:00003770       ??_R4?$codecvt@DDH@std@@6B@ 10095770     libcpmtd:locale.obj
 0002:00003788       ??_R2codecvt_base@std@@8   10095788     libcpmtd:locale.obj
 0002:00003798       ??_R3codecvt_base@std@@8   10095798     libcpmtd:locale.obj
 0002:000037a8       ??_R4codecvt_base@std@@6B@ 100957a8     libcpmtd:locale.obj
 0002:000037c0       ??_R1A@?0A@A@?$num_get@DV?$istreambuf_iterator@DU?$char_traits@D@std@@@std@@@std@@8 100957c0     libcpmtd:locale.obj
 0002:000037d8       ??_R2?$num_get@DV?$istreambuf_iterator@DU?$char_traits@D@std@@@std@@@std@@8 100957d8     libcpmtd:locale.obj
 0002:000037e8       ??_R3?$num_get@DV?$istreambuf_iterator@DU?$char_traits@D@std@@@std@@@std@@8 100957e8     libcpmtd:locale.obj
 0002:000037f8       ??_R4?$num_get@DV?$istreambuf_iterator@DU?$char_traits@D@std@@@std@@@std@@6B@ 100957f8     libcpmtd:locale.obj
 0002:00003810       ??_R1A@?0A@A@?$num_put@DV?$ostreambuf_iterator@DU?$char_traits@D@std@@@std@@@std@@8 10095810     libcpmtd:locale.obj
 0002:00003828       ??_R2?$num_put@DV?$ostreambuf_iterator@DU?$char_traits@D@std@@@std@@@std@@8 10095828     libcpmtd:locale.obj
 0002:00003838       ??_R3?$num_put@DV?$ostreambuf_iterator@DU?$char_traits@D@std@@@std@@@std@@8 10095838     libcpmtd:locale.obj
 0002:00003848       ??_R4?$num_put@DV?$ostreambuf_iterator@DU?$char_traits@D@std@@@std@@@std@@6B@ 10095848     libcpmtd:locale.obj
 0002:00003860       ??_R1A@?0A@A@?$numpunct@D@std@@8 10095860     libcpmtd:locale.obj
 0002:00003878       ??_R2?$numpunct@D@std@@8   10095878     libcpmtd:locale.obj
 0002:00003888       ??_R3?$numpunct@D@std@@8   10095888     libcpmtd:locale.obj
 0002:00003898       ??_R4?$numpunct@D@std@@6B@ 10095898     libcpmtd:locale.obj
 0002:000038b0       ??_R1A@?0A@A@bad_cast@std@@8 100958b0     libcpmtd:locale.obj
 0002:000038c8       ??_R2bad_cast@std@@8       100958c8     libcpmtd:locale.obj
 0002:000038d8       ??_R3bad_cast@std@@8       100958d8     libcpmtd:locale.obj
 0002:000038e8       ??_R4bad_cast@std@@6B@     100958e8     libcpmtd:locale.obj
 0002:00003900       ??_R1A@?0A@A@?$basic_filebuf@DU?$char_traits@D@std@@@std@@8 10095900     libcpmtd:iostream.obj
 0002:00003918       ??_R2?$basic_filebuf@DU?$char_traits@D@std@@@std@@8 10095918     libcpmtd:iostream.obj
 0002:00003928       ??_R3?$basic_filebuf@DU?$char_traits@D@std@@@std@@8 10095928     libcpmtd:iostream.obj
 0002:00003938       ??_R4?$basic_filebuf@DU?$char_traits@D@std@@@std@@6B@ 10095938     libcpmtd:iostream.obj
 0002:00003950       ??_R1A@A@3BA@?$basic_ios@GU?$char_traits@G@std@@@std@@8 10095950     libcpmtd:wiostrea.obj
 0002:00003968       ??_R1A@?0A@A@?$basic_ostream@GU?$char_traits@G@std@@@std@@8 10095968     libcpmtd:wiostrea.obj
 0002:00003980       ??_R2?$basic_ostream@GU?$char_traits@G@std@@@std@@8 10095980     libcpmtd:wiostrea.obj
 0002:00003990       ??_R3?$basic_ostream@GU?$char_traits@G@std@@@std@@8 10095990     libcpmtd:wiostrea.obj
 0002:000039a0       ??_R4?$basic_ostream@GU?$char_traits@G@std@@@std@@6B@ 100959a0     libcpmtd:wiostrea.obj
 0002:000039b8       ??_R1A@?0A@A@?$basic_ios@GU?$char_traits@G@std@@@std@@8 100959b8     libcpmtd:wiostrea.obj
 0002:000039d0       ??_R2?$basic_ios@GU?$char_traits@G@std@@@std@@8 100959d0     libcpmtd:wiostrea.obj
 0002:000039e0       ??_R3?$basic_ios@GU?$char_traits@G@std@@@std@@8 100959e0     libcpmtd:wiostrea.obj
 0002:000039f0       ??_R4?$basic_ios@GU?$char_traits@G@std@@@std@@6B@ 100959f0     libcpmtd:wiostrea.obj
 0002:00003a08       ??_R1A@?0A@A@?$basic_istream@GU?$char_traits@G@std@@@std@@8 10095a08     libcpmtd:wiostrea.obj
 0002:00003a20       ??_R2?$basic_istream@GU?$char_traits@G@std@@@std@@8 10095a20     libcpmtd:wiostrea.obj
 0002:00003a30       ??_R3?$basic_istream@GU?$char_traits@G@std@@@std@@8 10095a30     libcpmtd:wiostrea.obj
 0002:00003a40       ??_R4?$basic_istream@GU?$char_traits@G@std@@@std@@6B@ 10095a40     libcpmtd:wiostrea.obj
 0002:00003a58       ??_R1A@?0A@A@?$basic_streambuf@GU?$char_traits@G@std@@@std@@8 10095a58     libcpmtd:wiostrea.obj
 0002:00003a70       ??_R1A@?0A@A@?$basic_filebuf@GU?$char_traits@G@std@@@std@@8 10095a70     libcpmtd:wiostrea.obj
 0002:00003a88       ??_R2?$basic_filebuf@GU?$char_traits@G@std@@@std@@8 10095a88     libcpmtd:wiostrea.obj
 0002:00003a98       ??_R3?$basic_filebuf@GU?$char_traits@G@std@@@std@@8 10095a98     libcpmtd:wiostrea.obj
 0002:00003aa8       ??_R4?$basic_filebuf@GU?$char_traits@G@std@@@std@@6B@ 10095aa8     libcpmtd:wiostrea.obj
 0002:00003abc       ??_R2?$basic_streambuf@GU?$char_traits@G@std@@@std@@8 10095abc     libcpmtd:wiostrea.obj
 0002:00003ac8       ??_R3?$basic_streambuf@GU?$char_traits@G@std@@@std@@8 10095ac8     libcpmtd:wiostrea.obj
 0002:00003ad8       ??_R4?$basic_streambuf@GU?$char_traits@G@std@@@std@@6B@ 10095ad8     libcpmtd:wiostrea.obj
 0002:00003af0       ??_R1A@?0A@A@bad_alloc@std@@8 10095af0     libcpmtd:nomemory.obj
 0002:00003b08       ??_R2bad_alloc@std@@8      10095b08     libcpmtd:nomemory.obj
 0002:00003b18       ??_R3bad_alloc@std@@8      10095b18     libcpmtd:nomemory.obj
 0002:00003b28       ??_R4bad_alloc@std@@6B@    10095b28     libcpmtd:nomemory.obj
 0002:00003b40       ??_R1A@?0A@A@?$codecvt@GDH@std@@8 10095b40     libcpmtd:wlocale.obj
 0002:00003b58       ??_R2?$codecvt@GDH@std@@8  10095b58     libcpmtd:wlocale.obj
 0002:00003b68       ??_R3?$codecvt@GDH@std@@8  10095b68     libcpmtd:wlocale.obj
 0002:00003b78       ??_R4?$codecvt@GDH@std@@6B@ 10095b78     libcpmtd:wlocale.obj
 0002:00003b90       ??_R1A@?0A@A@?$ctype@G@std@@8 10095b90     libcpmtd:wlocale.obj
 0002:00003ba8       ??_R2?$ctype@G@std@@8      10095ba8     libcpmtd:wlocale.obj
 0002:00003bb8       ??_R3?$ctype@G@std@@8      10095bb8     libcpmtd:wlocale.obj
 0002:00003bc8       ??_R4?$ctype@G@std@@6B@    10095bc8     libcpmtd:wlocale.obj
 0002:00003be0       ??_R1A@?0A@A@time_base@std@@8 10095be0     libcpmtd:wlocale.obj
 0002:00003bf8       ??_R1A@?0A@A@?$time_put@GV?$ostreambuf_iterator@GU?$char_traits@G@std@@@std@@@std@@8 10095bf8     libcpmtd:wlocale.obj
 0002:00003c10       ??_R2?$time_put@GV?$ostreambuf_iterator@GU?$char_traits@G@std@@@std@@@std@@8 10095c10     libcpmtd:wlocale.obj
 0002:00003c20       ??_R3?$time_put@GV?$ostreambuf_iterator@GU?$char_traits@G@std@@@std@@@std@@8 10095c20     libcpmtd:wlocale.obj
 0002:00003c30       ??_R4?$time_put@GV?$ostreambuf_iterator@GU?$char_traits@G@std@@@std@@@std@@6B@ 10095c30     libcpmtd:wlocale.obj
 0002:00003c48       ??_R2time_base@std@@8      10095c48     libcpmtd:wlocale.obj
 0002:00003c58       ??_R3time_base@std@@8      10095c58     libcpmtd:wlocale.obj
 0002:00003c68       ??_R4time_base@std@@6B@    10095c68     libcpmtd:wlocale.obj
 0002:00003c80       ??_R1A@?0A@A@?$num_get@GV?$istreambuf_iterator@GU?$char_traits@G@std@@@std@@@std@@8 10095c80     libcpmtd:wlocale.obj
 0002:00003c98       ??_R2?$num_get@GV?$istreambuf_iterator@GU?$char_traits@G@std@@@std@@@std@@8 10095c98     libcpmtd:wlocale.obj
 0002:00003ca8       ??_R3?$num_get@GV?$istreambuf_iterator@GU?$char_traits@G@std@@@std@@@std@@8 10095ca8     libcpmtd:wlocale.obj
 0002:00003cb8       ??_R4?$num_get@GV?$istreambuf_iterator@GU?$char_traits@G@std@@@std@@@std@@6B@ 10095cb8     libcpmtd:wlocale.obj
 0002:00003cd0       ??_R1A@?0A@A@?$num_put@GV?$ostreambuf_iterator@GU?$char_traits@G@std@@@std@@@std@@8 10095cd0     libcpmtd:wlocale.obj
 0002:00003ce8       ??_R2?$num_put@GV?$ostreambuf_iterator@GU?$char_traits@G@std@@@std@@@std@@8 10095ce8     libcpmtd:wlocale.obj
 0002:00003cf8       ??_R3?$num_put@GV?$ostreambuf_iterator@GU?$char_traits@G@std@@@std@@@std@@8 10095cf8     libcpmtd:wlocale.obj
 0002:00003d08       ??_R4?$num_put@GV?$ostreambuf_iterator@GU?$char_traits@G@std@@@std@@@std@@6B@ 10095d08     libcpmtd:wlocale.obj
 0002:00003d20       ??_R1A@?0A@A@?$numpunct@G@std@@8 10095d20     libcpmtd:wlocale.obj
 0002:00003d38       ??_R2?$numpunct@G@std@@8   10095d38     libcpmtd:wlocale.obj
 0002:00003d48       ??_R3?$numpunct@G@std@@8   10095d48     libcpmtd:wlocale.obj
 0002:00003d58       ??_R4?$numpunct@G@std@@6B@ 10095d58     libcpmtd:wlocale.obj
 0002:00003d70       ??_R1A@?0A@A@?$collate@G@std@@8 10095d70     libcpmtd:wlocale.obj
 0002:00003d88       ??_R2?$collate@G@std@@8    10095d88     libcpmtd:wlocale.obj
 0002:00003d98       ??_R3?$collate@G@std@@8    10095d98     libcpmtd:wlocale.obj
 0002:00003da8       ??_R4?$collate@G@std@@6B@  10095da8     libcpmtd:wlocale.obj
 0002:00003dc0       ??_R1A@?0A@A@messages_base@std@@8 10095dc0     libcpmtd:wlocale.obj
 0002:00003dd8       ??_R1A@?0A@A@?$messages@G@std@@8 10095dd8     libcpmtd:wlocale.obj
 0002:00003df0       ??_R2?$messages@G@std@@8   10095df0     libcpmtd:wlocale.obj
 0002:00003e00       ??_R3?$messages@G@std@@8   10095e00     libcpmtd:wlocale.obj
 0002:00003e10       ??_R4?$messages@G@std@@6B@ 10095e10     libcpmtd:wlocale.obj
 0002:00003e28       ??_R2messages_base@std@@8  10095e28     libcpmtd:wlocale.obj
 0002:00003e38       ??_R3messages_base@std@@8  10095e38     libcpmtd:wlocale.obj
 0002:00003e48       ??_R4messages_base@std@@6B@ 10095e48     libcpmtd:wlocale.obj
 0002:00003e60       ??_R1A@?0A@A@?$money_get@GV?$istreambuf_iterator@GU?$char_traits@G@std@@@std@@@std@@8 10095e60     libcpmtd:wlocale.obj
 0002:00003e78       ??_R2?$money_get@GV?$istreambuf_iterator@GU?$char_traits@G@std@@@std@@@std@@8 10095e78     libcpmtd:wlocale.obj
 0002:00003e88       ??_R3?$money_get@GV?$istreambuf_iterator@GU?$char_traits@G@std@@@std@@@std@@8 10095e88     libcpmtd:wlocale.obj
 0002:00003e98       ??_R4?$money_get@GV?$istreambuf_iterator@GU?$char_traits@G@std@@@std@@@std@@6B@ 10095e98     libcpmtd:wlocale.obj
 0002:00003eb0       ??_R1A@?0A@A@?$money_put@GV?$ostreambuf_iterator@GU?$char_traits@G@std@@@std@@@std@@8 10095eb0     libcpmtd:wlocale.obj
 0002:00003ec8       ??_R2?$money_put@GV?$ostreambuf_iterator@GU?$char_traits@G@std@@@std@@@std@@8 10095ec8     libcpmtd:wlocale.obj
 0002:00003ed8       ??_R3?$money_put@GV?$ostreambuf_iterator@GU?$char_traits@G@std@@@std@@@std@@8 10095ed8     libcpmtd:wlocale.obj
 0002:00003ee8       ??_R4?$money_put@GV?$ostreambuf_iterator@GU?$char_traits@G@std@@@std@@@std@@6B@ 10095ee8     libcpmtd:wlocale.obj
 0002:00003f00       ??_R1A@?0A@A@money_base@std@@8 10095f00     libcpmtd:wlocale.obj
 0002:00003f18       ??_R1A@?0A@A@?$_Mpunct@G@std@@8 10095f18     libcpmtd:wlocale.obj
 0002:00003f30       ??_R1A@?0A@A@?$moneypunct@G$0A@@std@@8 10095f30     libcpmtd:wlocale.obj
 0002:00003f48       ??_R2?$moneypunct@G$0A@@std@@8 10095f48     libcpmtd:wlocale.obj
 0002:00003f60       ??_R3?$moneypunct@G$0A@@std@@8 10095f60     libcpmtd:wlocale.obj
 0002:00003f70       ??_R4?$moneypunct@G$0A@@std@@6B@ 10095f70     libcpmtd:wlocale.obj
 0002:00003f88       ??_R1A@?0A@A@?$moneypunct@G$00@std@@8 10095f88     libcpmtd:wlocale.obj
 0002:00003fa0       ??_R2?$moneypunct@G$00@std@@8 10095fa0     libcpmtd:wlocale.obj
 0002:00003fb8       ??_R3?$moneypunct@G$00@std@@8 10095fb8     libcpmtd:wlocale.obj
 0002:00003fc8       ??_R4?$moneypunct@G$00@std@@6B@ 10095fc8     libcpmtd:wlocale.obj
 0002:00003fe0       ??_R1A@?0A@A@?$time_get@GV?$istreambuf_iterator@GU?$char_traits@G@std@@@std@@@std@@8 10095fe0     libcpmtd:wlocale.obj
 0002:00003ff8       ??_R2?$time_get@GV?$istreambuf_iterator@GU?$char_traits@G@std@@@std@@@std@@8 10095ff8     libcpmtd:wlocale.obj
 0002:00004008       ??_R3?$time_get@GV?$istreambuf_iterator@GU?$char_traits@G@std@@@std@@@std@@8 10096008     libcpmtd:wlocale.obj
 0002:00004018       ??_R4?$time_get@GV?$istreambuf_iterator@GU?$char_traits@G@std@@@std@@@std@@6B@ 10096018     libcpmtd:wlocale.obj
 0002:00004030       ??_R2?$_Mpunct@G@std@@8    10096030     libcpmtd:wlocale.obj
 0002:00004040       ??_R3?$_Mpunct@G@std@@8    10096040     libcpmtd:wlocale.obj
 0002:00004050       ??_R4?$_Mpunct@G@std@@6B@  10096050     libcpmtd:wlocale.obj
 0002:00004068       ??_R2money_base@std@@8     10096068     libcpmtd:wlocale.obj
 0002:00004078       ??_R3money_base@std@@8     10096078     libcpmtd:wlocale.obj
 0002:00004088       ??_R4money_base@std@@6B@   10096088     libcpmtd:wlocale.obj
 0002:000040a0       ??_R1A@?0A@A@?$collate@D@std@@8 100960a0     libcpmtd:xlocale.obj
 0002:000040b8       ??_R2?$collate@D@std@@8    100960b8     libcpmtd:xlocale.obj
 0002:000040c8       ??_R3?$collate@D@std@@8    100960c8     libcpmtd:xlocale.obj
 0002:000040d8       ??_R4?$collate@D@std@@6B@  100960d8     libcpmtd:xlocale.obj
 0002:000040f0       ??_R1A@?0A@A@?$messages@D@std@@8 100960f0     libcpmtd:xlocale.obj
 0002:00004108       ??_R2?$messages@D@std@@8   10096108     libcpmtd:xlocale.obj
 0002:00004118       ??_R3?$messages@D@std@@8   10096118     libcpmtd:xlocale.obj
 0002:00004128       ??_R4?$messages@D@std@@6B@ 10096128     libcpmtd:xlocale.obj
 0002:00004140       ??_R1A@?0A@A@?$money_get@DV?$istreambuf_iterator@DU?$char_traits@D@std@@@std@@@std@@8 10096140     libcpmtd:xlocale.obj
 0002:00004158       ??_R2?$money_get@DV?$istreambuf_iterator@DU?$char_traits@D@std@@@std@@@std@@8 10096158     libcpmtd:xlocale.obj
 0002:00004168       ??_R3?$money_get@DV?$istreambuf_iterator@DU?$char_traits@D@std@@@std@@@std@@8 10096168     libcpmtd:xlocale.obj
 0002:00004178       ??_R4?$money_get@DV?$istreambuf_iterator@DU?$char_traits@D@std@@@std@@@std@@6B@ 10096178     libcpmtd:xlocale.obj
 0002:00004190       ??_R1A@?0A@A@?$money_put@DV?$ostreambuf_iterator@DU?$char_traits@D@std@@@std@@@std@@8 10096190     libcpmtd:xlocale.obj
 0002:000041a8       ??_R2?$money_put@DV?$ostreambuf_iterator@DU?$char_traits@D@std@@@std@@@std@@8 100961a8     libcpmtd:xlocale.obj
 0002:000041b8       ??_R3?$money_put@DV?$ostreambuf_iterator@DU?$char_traits@D@std@@@std@@@std@@8 100961b8     libcpmtd:xlocale.obj
 0002:000041c8       ??_R4?$money_put@DV?$ostreambuf_iterator@DU?$char_traits@D@std@@@std@@@std@@6B@ 100961c8     libcpmtd:xlocale.obj
 0002:000041e0       ??_R1A@?0A@A@?$_Mpunct@D@std@@8 100961e0     libcpmtd:xlocale.obj
 0002:000041f8       ??_R1A@?0A@A@?$moneypunct@D$0A@@std@@8 100961f8     libcpmtd:xlocale.obj
 0002:00004210       ??_R2?$moneypunct@D$0A@@std@@8 10096210     libcpmtd:xlocale.obj
 0002:00004228       ??_R3?$moneypunct@D$0A@@std@@8 10096228     libcpmtd:xlocale.obj
 0002:00004238       ??_R4?$moneypunct@D$0A@@std@@6B@ 10096238     libcpmtd:xlocale.obj
 0002:00004250       ??_R1A@?0A@A@?$moneypunct@D$00@std@@8 10096250     libcpmtd:xlocale.obj
 0002:00004268       ??_R2?$moneypunct@D$00@std@@8 10096268     libcpmtd:xlocale.obj
 0002:00004280       ??_R3?$moneypunct@D$00@std@@8 10096280     libcpmtd:xlocale.obj
 0002:00004290       ??_R4?$moneypunct@D$00@std@@6B@ 10096290     libcpmtd:xlocale.obj
 0002:000042a8       ??_R1A@?0A@A@?$time_get@DV?$istreambuf_iterator@DU?$char_traits@D@std@@@std@@@std@@8 100962a8     libcpmtd:xlocale.obj
 0002:000042c0       ??_R2?$time_get@DV?$istreambuf_iterator@DU?$char_traits@D@std@@@std@@@std@@8 100962c0     libcpmtd:xlocale.obj
 0002:000042d0       ??_R3?$time_get@DV?$istreambuf_iterator@DU?$char_traits@D@std@@@std@@@std@@8 100962d0     libcpmtd:xlocale.obj
 0002:000042e0       ??_R4?$time_get@DV?$istreambuf_iterator@DU?$char_traits@D@std@@@std@@@std@@6B@ 100962e0     libcpmtd:xlocale.obj
 0002:000042f8       ??_R1A@?0A@A@?$time_put@DV?$ostreambuf_iterator@DU?$char_traits@D@std@@@std@@@std@@8 100962f8     libcpmtd:xlocale.obj
 0002:00004310       ??_R2?$time_put@DV?$ostreambuf_iterator@DU?$char_traits@D@std@@@std@@@std@@8 10096310     libcpmtd:xlocale.obj
 0002:00004320       ??_R3?$time_put@DV?$ostreambuf_iterator@DU?$char_traits@D@std@@@std@@@std@@8 10096320     libcpmtd:xlocale.obj
 0002:00004330       ??_R4?$time_put@DV?$ostreambuf_iterator@DU?$char_traits@D@std@@@std@@@std@@6B@ 10096330     libcpmtd:xlocale.obj
 0002:00004348       ??_R2?$_Mpunct@D@std@@8    10096348     libcpmtd:xlocale.obj
 0002:00004358       ??_R3?$_Mpunct@D@std@@8    10096358     libcpmtd:xlocale.obj
 0002:00004368       ??_R4?$_Mpunct@D@std@@6B@  10096368     libcpmtd:xlocale.obj
 0002:00005080       __CT??_R0?AVCException@Win32@OnlineGameLib@@@8??0CException@Win32@OnlineGameLib@@QAE@ABV012@@Z36 10097080     common:SocketClient.obj
 0002:000050a0       __CT??_R0?AVCWin32Exception@Win32@OnlineGameLib@@@8??0CWin32Exception@Win32@OnlineGameLib@@QAE@ABV012@@Z40 100970a0     common:SocketClient.obj
 0002:000050c0       __CTA2?AVCWin32Exception@Win32@OnlineGameLib@@ 100970c0     common:SocketClient.obj
 0002:000050d0       __TI2?AVCWin32Exception@Win32@OnlineGameLib@@ 100970d0     common:SocketClient.obj
 0002:000055a0       __CTA1?AVCException@Win32@OnlineGameLib@@ 100975a0     common:IOBuffer.obj
 0002:000055a8       __TI1?AVCException@Win32@OnlineGameLib@@ 100975a8     common:IOBuffer.obj
 0002:00005a10       __CT??_R0?AVexception@@@8??0exception@@QAE@ABV0@@Z12 10097a10     common:IOBuffer.obj
 0002:00005a30       __CT??_R0?AVbad_cast@std@@@8??0bad_cast@std@@QAE@ABV01@@Z12 10097a30     common:IOBuffer.obj
 0002:00005a50       __CTA2?AVbad_cast@std@@    10097a50     common:IOBuffer.obj
 0002:00005a60       __TI2?AVbad_cast@std@@     10097a60     common:IOBuffer.obj
 0002:000062d0       __CT??_R0?AVException@CSocket@Win32@OnlineGameLib@@@8??0Exception@CSocket@Win32@OnlineGameLib@@QAE@ABV0123@@Z40 100982d0     common:Socket.obj
 0002:000062f0       __CTA3?AVException@CSocket@Win32@OnlineGameLib@@ 100982f0     common:Socket.obj
 0002:00006300       __TI3?AVException@CSocket@Win32@OnlineGameLib@@ 10098300     common:Socket.obj
 0002:000065b8       __CT??_R0?AVlogic_error@std@@@8??0logic_error@std@@QAE@ABV01@@Z28 100985b8     libcpmtd:string.obj
 0002:000065d8       __CT??_R0?AVlength_error@std@@@8??0length_error@std@@QAE@ABV01@@Z28 100985d8     libcpmtd:string.obj
 0002:000065f8       __CTA3?AVlength_error@std@@ 100985f8     libcpmtd:string.obj
 0002:00006608       __TI3?AVlength_error@std@@ 10098608     libcpmtd:string.obj
 0002:00006668       __CTA2?AVlogic_error@std@@ 10098668     libcpmtd:string.obj
 0002:00006678       __TI2?AVlogic_error@std@@  10098678     libcpmtd:string.obj
 0002:000066d8       __CT??_R0?AVout_of_range@std@@@8??0out_of_range@std@@QAE@ABV01@@Z28 100986d8     libcpmtd:string.obj
 0002:000066f8       __CTA3?AVout_of_range@std@@ 100986f8     libcpmtd:string.obj
 0002:00006708       __TI3?AVout_of_range@std@@ 10098708     libcpmtd:string.obj
 0002:00006868       __CT??_R0?AVruntime_error@std@@@8??0runtime_error@std@@QAE@ABV01@@Z28 10098868     libcpmtd:ios.obj
 0002:00006888       __CT??_R0?AVfailure@ios_base@std@@@8??0failure@ios_base@std@@QAE@ABV012@@Z28 10098888     libcpmtd:ios.obj
 0002:000068a8       __CTA3?AVfailure@ios_base@std@@ 100988a8     libcpmtd:ios.obj
 0002:000068b8       __TI3?AVfailure@ios_base@std@@ 100988b8     libcpmtd:ios.obj
 0002:00006918       __CTA2?AVruntime_error@std@@ 10098918     libcpmtd:ios.obj
 0002:00006928       __TI2?AVruntime_error@std@@ 10098928     libcpmtd:ios.obj
 0002:00007550       __CT??_R0?AVbad_alloc@std@@@8??0bad_alloc@std@@QAE@ABV01@@Z12 10099550     libcpmtd:nomemory.obj
 0002:00007570       __CTA2?AVbad_alloc@std@@   10099570     libcpmtd:nomemory.obj
 0002:00007580       __TI2?AVbad_alloc@std@@    10099580     libcpmtd:nomemory.obj
 0003:00000000       ___xc_a                    1009c000     LIBCMTD:crt0init.obj
 0003:000002dc       ___xc_z                    1009c2dc     LIBCMTD:crt0init.obj
 0003:000003e0       ___xi_a                    1009c3e0     LIBCMTD:crt0init.obj
 0003:000006f8       ___xi_z                    1009c6f8     LIBCMTD:crt0init.obj
 0003:000007fc       ___xp_a                    1009c7fc     LIBCMTD:crt0init.obj
 0003:00000a0c       ___xp_z                    1009ca0c     LIBCMTD:crt0init.obj
 0003:00000b10       ___xt_a                    1009cb10     LIBCMTD:crt0init.obj
 0003:00000d18       ___xt_z                    1009cd18     LIBCMTD:crt0init.obj
 0003:00000e28       ?GUID_ATLVer30@ATL@@3U_GUID@@A 1009ce28     ClientStage.obj
 0003:00000e40       ??_R0?AVCException@Win32@OnlineGameLib@@@8 1009ce40     ClientStage.obj
 0003:00000e78       ?__LINE__Var@?1??SendPackToServer@CGameClient@@UAGJQBXABI@Z@4FA 1009ce78     ClientStage.obj
 0003:00000e7c       ?__LINE__Var@?1??ProcessCommand@CGameClient@@IAEXPBVCIOBuffer@Win32@OnlineGameLib@@@Z@4FA 1009ce7c     ClientStage.obj
 0003:000010b0       ??_R0?AVCWin32Exception@Win32@OnlineGameLib@@@8 1009d0b0     common:SocketClient.obj
 0003:00001328       ??_R0?AVexception@@@8      1009d328     common:IOBuffer.obj
 0003:00001340       ??_R0?AVbad_cast@std@@@8   1009d340     common:IOBuffer.obj
 0003:0000135c       ??_C@_0BF@MMAA@missing?5locale?5facet?$AA@ 1009d35c     common:IOBuffer.obj
 0003:00001374       ??_C@_01FKHJ@C?$AA@        1009d374     common:IOBuffer.obj
 0003:00001378       ??_C@_02MHAC@?$CFp?$AA@    1009d378     common:IOBuffer.obj
 0003:0000137c       ??_C@_01PHOL@e?$AA@        1009d37c     common:IOBuffer.obj
 0003:00001380       ??_C@_01KFAL@E?$AA@        1009d380     common:IOBuffer.obj
 0003:00001384       ??_C@_01KMAE@?0?$AA@       1009d384     common:IOBuffer.obj
 0003:00001388       ??_C@_05NAGO@false?$AA@    1009d388     common:IOBuffer.obj
 0003:00001390       ??_C@_04NCCD@true?$AA@     1009d390     common:IOBuffer.obj
 0003:00001728       ??_R0?AVException@CSocket@Win32@OnlineGameLib@@@8 1009d728     common:Socket.obj
 0003:00001858       __NLG_Destination          1009d858     LIBCMTD:exsup.obj
 0003:00001868       ??_R0?AVtype_info@@@8      1009d868     LIBCMTD:typinfo.obj
 0003:00001880       __crtAssertBusy            1009d880     LIBCMTD:dbgrpt.obj
 0003:00001884       __CrtDbgMode               1009d884     LIBCMTD:dbgrpt.obj
 0003:00001890       __CrtDbgFile               1009d890     LIBCMTD:dbgrpt.obj
 0003:000018b0       __aexit_rtn                1009d8b0     LIBCMTD:dllcrt0.obj
 0003:000018b4       ?__pMyUnhandledExceptionFilter@@3PAXA 1009d8b4     LIBCMTD:throw.obj
 0003:000018c0       __fltused                  1009d8c0     LIBCMTD:fpinit.obj
 0003:000018c4       __ldused                   1009d8c4     LIBCMTD:fpinit.obj
 0003:000018c8       __FPinit                   1009d8c8     LIBCMTD:fpinit.obj
 0003:000018cc       __FPmtinit                 1009d8cc     LIBCMTD:fpinit.obj
 0003:000018d0       __FPmtterm                 1009d8d0     LIBCMTD:fpinit.obj
 0003:000018e0       ___lconv_static_decimal    1009d8e0     LIBCMTD:lconv.obj
 0003:000018e8       ___lconv_c                 1009d8e8     LIBCMTD:lconv.obj
 0003:00001918       ___lconv                   1009d918     LIBCMTD:lconv.obj
 0003:00001920       __crtDbgFlag               1009d920     LIBCMTD:dbgheap.obj
 0003:00001928       __crtBreakAlloc            1009d928     LIBCMTD:dbgheap.obj
 0003:00001950       ___tlsindex                1009d950     LIBCMTD:tidtable.obj
 0003:00001954       ?__pInconsistency@@3P6AXXZA 1009d954     LIBCMTD:hooks.obj
 0003:00001958       __locktable                1009d958     LIBCMTD:mlock.obj
 0003:00001a20       ___badioinfo               1009da20     LIBCMTD:ioinit.obj
 0003:00001a44       __amblksiz                 1009da44     LIBCMTD:heapinit.obj
 0003:00001ad8       ___nullstring              1009dad8     LIBCMTD:output.obj
 0003:00001adc       ___wnullstring             1009dadc     LIBCMTD:output.obj
 0003:00001ae0       __cfltcvt_tab              1009dae0     LIBCMTD:cmiscdat.obj
 0003:00001c08       ___lc_category             1009dc08     LIBCMTD:setlocal.obj
 0003:00001c50       __pctype                   1009dc50     LIBCMTD:ctype.obj
 0003:00001c54       __pwctype                  1009dc54     LIBCMTD:ctype.obj
 0003:00001c58       __ctype                    1009dc58     LIBCMTD:ctype.obj
 0003:00001e5c       ___mb_cur_max              1009de5c     LIBCMTD:nlsdata1.obj
 0003:00001e60       ___decimal_point           1009de60     LIBCMTD:nlsdata1.obj
 0003:00001e64       ___decimal_point_length    1009de64     LIBCMTD:nlsdata1.obj
 0003:00001e70       __iob                      1009de70     LIBCMTD:_file.obj
 0003:00002258       __XcptActTab               1009e258     LIBCMTD:winxfltr.obj
 0003:000022d0       __First_FPE_Indx           1009e2d0     LIBCMTD:winxfltr.obj
 0003:000022d4       __Num_FPE                  1009e2d4     LIBCMTD:winxfltr.obj
 0003:000022d8       __XcptActTabSize           1009e2d8     LIBCMTD:winxfltr.obj
 0003:000022dc       __XcptActTabCount          1009e2dc     LIBCMTD:winxfltr.obj
 0003:000022e0       __pfnAllocHook             1009e2e0     LIBCMTD:dbghook.obj
 0003:000022e4       ___sbh_threshold           1009e2e4     LIBCMTD:sbheap.obj
 0003:000022e8       __timezone                 1009e2e8     LIBCMTD:timeset.obj
 0003:000022ec       __daylight                 1009e2ec     LIBCMTD:timeset.obj
 0003:000022f0       __dstbias                  1009e2f0     LIBCMTD:timeset.obj
 0003:00002374       __tzname                   1009e374     LIBCMTD:timeset.obj
 0003:0000239c       __lpdays                   1009e39c     LIBCMTD:days.obj
 0003:000023d0       __days                     1009e3d0     LIBCMTD:days.obj
 0003:00002540       ___rgLocInfo               1009e540     LIBCMTD:getqloc.obj
 0003:000029e4       ___rglangidNotDefault      1009e9e4     LIBCMTD:getqloc.obj
 0003:000029f8       ___rg_country              1009e9f8     LIBCMTD:getqloc.obj
 0003:00002ab0       ___rg_language             1009eab0     LIBCMTD:getqloc.obj
 0003:00002cb8       ___lc_time_curr            1009ecb8     LIBCMTD:strftime.obj
 0003:00002cc0       ___lc_time_c               1009ecc0     LIBCMTD:strftime.obj
 0003:00002d70       __pow10pos                 1009ed70     LIBCMTD:constpow.obj
 0003:00002ed0       __pow10neg                 1009eed0     LIBCMTD:constpow.obj
 0003:00003030       ??_R0?AVlogic_error@std@@@8 1009f030     libcpmtd:string.obj
 0003:00003050       ??_R0?AVlength_error@std@@@8 1009f050     libcpmtd:string.obj
 0003:00003070       ??_R0?AVout_of_range@std@@@8 1009f070     libcpmtd:string.obj
 0003:00003090       ??_R0?AVios_base@std@@@8   1009f090     libcpmtd:strstrea.obj
 0003:000030b0       ??_R0?AV?$basic_ios@DU?$char_traits@D@std@@@std@@@8 1009f0b0     libcpmtd:strstrea.obj
 0003:000030e8       ??_R0?AV?$basic_istream@DU?$char_traits@D@std@@@std@@@8 1009f0e8     libcpmtd:strstrea.obj
 0003:00003128       ??_R0?AVistrstream@std@@@8 1009f128     libcpmtd:strstrea.obj
 0003:00003148       ??_R0?AV?$basic_ostream@DU?$char_traits@D@std@@@std@@@8 1009f148     libcpmtd:strstrea.obj
 0003:00003188       ??_R0?AVostrstream@std@@@8 1009f188     libcpmtd:strstrea.obj
 0003:000031a8       ??_R0?AV?$basic_streambuf@DU?$char_traits@D@std@@@std@@@8 1009f1a8     libcpmtd:strstrea.obj
 0003:000031e8       ??_R0?AVstrstreambuf@std@@@8 1009f1e8     libcpmtd:strstrea.obj
 0003:00003208       ??_R0?AV?$basic_iostream@DU?$char_traits@D@std@@@std@@@8 1009f208     libcpmtd:strstrea.obj
 0003:00003248       ??_R0?AVstrstream@std@@@8  1009f248     libcpmtd:strstrea.obj
 0003:00003264       ?_Sync@ios_base@std@@0_NA  1009f264     libcpmtd:ios.obj
 0003:00003268       ??_R0?AVruntime_error@std@@@8 1009f268     libcpmtd:ios.obj
 0003:00003288       ??_R0?AVfailure@ios_base@std@@@8 1009f288     libcpmtd:ios.obj
 0003:000032b0       ??_R0?AVfacet@locale@std@@@8 1009f2b0     libcpmtd:locale0.obj
 0003:000032d0       ??_R0?AV_Locimp@locale@std@@@8 1009f2d0     libcpmtd:locale0.obj
 0003:000032f8       ??_R0?AUctype_base@std@@@8 1009f2f8     libcpmtd:locale.obj
 0003:00003318       ??_R0?AV?$ctype@D@std@@@8  1009f318     libcpmtd:locale.obj
 0003:00003338       ??_R0?AVcodecvt_base@std@@@8 1009f338     libcpmtd:locale.obj
 0003:00003358       ??_R0?AV?$codecvt@DDH@std@@@8 1009f358     libcpmtd:locale.obj
 0003:00003378       ??_R0?AV?$num_get@DV?$istreambuf_iterator@DU?$char_traits@D@std@@@std@@@std@@@8 1009f378     libcpmtd:locale.obj
 0003:000033d0       ??_R0?AV?$num_put@DV?$ostreambuf_iterator@DU?$char_traits@D@std@@@std@@@std@@@8 1009f3d0     libcpmtd:locale.obj
 0003:00003428       ??_R0?AV?$numpunct@D@std@@@8 1009f428     libcpmtd:locale.obj
 0003:00003448       ?_Init_cnt@Init@ios_base@std@@0HA 1009f448     libcpmtd:iostream.obj
 0003:00003450       ??_R0?AV?$basic_filebuf@DU?$char_traits@D@std@@@std@@@8 1009f450     libcpmtd:iostream.obj
 0003:0000348c       ?_Init_cnt@_Winit@std@@0HA 1009f48c     libcpmtd:wiostrea.obj
 0003:00003490       ??_R0?AV?$basic_ios@GU?$char_traits@G@std@@@std@@@8 1009f490     libcpmtd:wiostrea.obj
 0003:000034c8       ??_R0?AV?$basic_ostream@GU?$char_traits@G@std@@@std@@@8 1009f4c8     libcpmtd:wiostrea.obj
 0003:00003508       ??_R0?AV?$basic_istream@GU?$char_traits@G@std@@@std@@@8 1009f508     libcpmtd:wiostrea.obj
 0003:00003548       ??_R0?AV?$basic_streambuf@GU?$char_traits@G@std@@@std@@@8 1009f548     libcpmtd:wiostrea.obj
 0003:00003588       ??_R0?AV?$basic_filebuf@GU?$char_traits@G@std@@@std@@@8 1009f588     libcpmtd:wiostrea.obj
 0003:000035c8       ??_R0?AVbad_alloc@std@@@8  1009f5c8     libcpmtd:nomemory.obj
 0003:000035e8       ??_R0?AV?$codecvt@GDH@std@@@8 1009f5e8     libcpmtd:wlocale.obj
 0003:00003608       ??_R0?AV?$ctype@G@std@@@8  1009f608     libcpmtd:wlocale.obj
 0003:00003628       ??_R0?AUtime_base@std@@@8  1009f628     libcpmtd:wlocale.obj
 0003:00003648       ??_R0?AV?$time_put@GV?$ostreambuf_iterator@GU?$char_traits@G@std@@@std@@@std@@@8 1009f648     libcpmtd:wlocale.obj
 0003:000036a0       ??_R0?AV?$num_get@GV?$istreambuf_iterator@GU?$char_traits@G@std@@@std@@@std@@@8 1009f6a0     libcpmtd:wlocale.obj
 0003:000036f8       ??_R0?AV?$num_put@GV?$ostreambuf_iterator@GU?$char_traits@G@std@@@std@@@std@@@8 1009f6f8     libcpmtd:wlocale.obj
 0003:00003750       ??_R0?AV?$numpunct@G@std@@@8 1009f750     libcpmtd:wlocale.obj
 0003:00003770       ??_R0?AV?$collate@G@std@@@8 1009f770     libcpmtd:wlocale.obj
 0003:00003790       ??_R0?AUmessages_base@std@@@8 1009f790     libcpmtd:wlocale.obj
 0003:000037b0       ??_R0?AV?$messages@G@std@@@8 1009f7b0     libcpmtd:wlocale.obj
 0003:000037d0       ??_R0?AV?$money_get@GV?$istreambuf_iterator@GU?$char_traits@G@std@@@std@@@std@@@8 1009f7d0     libcpmtd:wlocale.obj
 0003:00003828       ??_R0?AV?$money_put@GV?$ostreambuf_iterator@GU?$char_traits@G@std@@@std@@@std@@@8 1009f828     libcpmtd:wlocale.obj
 0003:00003880       ??_R0?AUmoney_base@std@@@8 1009f880     libcpmtd:wlocale.obj
 0003:000038a0       ??_R0?AV?$_Mpunct@G@std@@@8 1009f8a0     libcpmtd:wlocale.obj
 0003:000038c0       ??_R0?AV?$moneypunct@G$0A@@std@@@8 1009f8c0     libcpmtd:wlocale.obj
 0003:000038e8       ??_R0?AV?$moneypunct@G$00@std@@@8 1009f8e8     libcpmtd:wlocale.obj
 0003:00003910       ??_R0?AV?$time_get@GV?$istreambuf_iterator@GU?$char_traits@G@std@@@std@@@std@@@8 1009f910     libcpmtd:wlocale.obj
 0003:00003968       ??_R0?AV?$collate@D@std@@@8 1009f968     libcpmtd:xlocale.obj
 0003:00003988       ??_R0?AV?$messages@D@std@@@8 1009f988     libcpmtd:xlocale.obj
 0003:000039a8       ??_R0?AV?$money_get@DV?$istreambuf_iterator@DU?$char_traits@D@std@@@std@@@std@@@8 1009f9a8     libcpmtd:xlocale.obj
 0003:00003a00       ??_R0?AV?$money_put@DV?$ostreambuf_iterator@DU?$char_traits@D@std@@@std@@@std@@@8 1009fa00     libcpmtd:xlocale.obj
 0003:00003a58       ??_R0?AV?$_Mpunct@D@std@@@8 1009fa58     libcpmtd:xlocale.obj
 0003:00003a78       ??_R0?AV?$moneypunct@D$0A@@std@@@8 1009fa78     libcpmtd:xlocale.obj
 0003:00003aa0       ??_R0?AV?$moneypunct@D$00@std@@@8 1009faa0     libcpmtd:xlocale.obj
 0003:00003ac8       ??_R0?AV?$time_get@DV?$istreambuf_iterator@DU?$char_traits@D@std@@@std@@@std@@@8 1009fac8     libcpmtd:xlocale.obj
 0003:00003b20       ??_R0?AV?$time_put@DV?$ostreambuf_iterator@DU?$char_traits@D@std@@@std@@@std@@@8 1009fb20     libcpmtd:xlocale.obj
 0003:00003b74       __HUGE                     1009fb74     LIBCMTD:huge.obj
 0003:00003b7c       __coninpfh                 1009fb7c     LIBCMTD:initcon.obj
 0003:00003b80       __confh                    1009fb80     LIBCMTD:initcon.obj
 0003:00004590       ?ATL_CREATE_OBJECT@CComApartment@ATL@@2IA 100a0590     ClientStage.obj
 0003:00004598       ?m_libid@CComModule@ATL@@2U_GUID@@A 100a0598     ClientStage.obj
 0003:000045ac       ?_pModule@ATL@@3PAVCComModule@1@A 100a05ac     ClientStage.obj
 0003:000045b4       ?_Nil@?$_Tree@IU?$pair@$$CBIPAVCIOBuffer@Win32@OnlineGameLib@@@std@@U_Kfn@?$map@IPAVCIOBuffer@Win32@OnlineGameLib@@U?$less@I@std@@V?$allocator@PAVCIOBuffer@Win32@OnlineGameLib@@@5@@2@U?$less@I@2@V?$allocator@PAVCIOBuffer@Win32@OnlineGameLib@@@2@@std@@1PAU_Node@12@A 100a05b4     common:IOBuffer.obj
 0003:000045b8       ?_Nilrefs@?$_Tree@IU?$pair@$$CBIPAVCIOBuffer@Win32@OnlineGameLib@@@std@@U_Kfn@?$map@IPAVCIOBuffer@Win32@OnlineGameLib@@U?$less@I@std@@V?$allocator@PAVCIOBuffer@Win32@OnlineGameLib@@@5@@2@U?$less@I@2@V?$allocator@PAVCIOBuffer@Win32@OnlineGameLib@@@2@@std@@1IA 100a05b8     common:IOBuffer.obj
 0003:000045bc       ??_C@_00A@?$AA@            100a05bc     common:IOBuffer.obj
 0003:000045c0       ?_Psave@?1??use_facet@std@@YAABV?$num_put@DV?$ostreambuf_iterator@DU?$char_traits@D@std@@@std@@@2@ABVlocale@2@PBV32@_N@Z@4PBVfacet@42@B 100a05c0     common:IOBuffer.obj
 0003:000045c4       ?_Psave@?1??use_facet@std@@YAABV?$numpunct@D@2@ABVlocale@2@PBV32@_N@Z@4PBVfacet@42@B 100a05c4     common:IOBuffer.obj
 0003:000045c8       ?_Facsav@?$_Tidyfac@V?$num_put@DV?$ostreambuf_iterator@DU?$char_traits@D@std@@@std@@@std@@@std@@0PAV?$num_put@DV?$ostreambuf_iterator@DU?$char_traits@D@std@@@std@@@2@A 100a05c8     common:IOBuffer.obj
 0003:000045cc       ?_Facsav@?$_Tidyfac@V?$numpunct@D@std@@@std@@0PAV?$numpunct@D@2@A 100a05cc     common:IOBuffer.obj
 0003:00004720       ?s_criticalSection@Win32@OnlineGameLib@@3VCCriticalSection@12@A 100a0720     common:Utils.obj
 0003:00004768       __aenvptr                  100a0768     LIBCMTD:dllcrt0.obj
 0003:0000476c       __wenvptr                  100a076c     LIBCMTD:dllcrt0.obj
 0003:00004770       ___error_mode              100a0770     LIBCMTD:dllcrt0.obj
 0003:00004774       ___app_type                100a0774     LIBCMTD:dllcrt0.obj
 0003:00004778       ___fastflag                100a0778     LIBCMTD:fpinit.obj
 0003:0000477c       __adjust_fdiv              100a077c     LIBCMTD:fpinit.obj
 0003:00004780       ___lconv_static_null       100a0780     LIBCMTD:lconv.obj
 0003:000047f8       __umaskval                 100a07f8     LIBCMTD:crt0dat.obj
 0003:000047fc       __osver                    100a07fc     LIBCMTD:crt0dat.obj
 0003:00004800       __winver                   100a0800     LIBCMTD:crt0dat.obj
 0003:00004804       __winmajor                 100a0804     LIBCMTD:crt0dat.obj
 0003:00004808       __winminor                 100a0808     LIBCMTD:crt0dat.obj
 0003:0000480c       ___argc                    100a080c     LIBCMTD:crt0dat.obj
 0003:00004810       ___argv                    100a0810     LIBCMTD:crt0dat.obj
 0003:00004814       ___wargv                   100a0814     LIBCMTD:crt0dat.obj
 0003:00004818       __environ                  100a0818     LIBCMTD:crt0dat.obj
 0003:0000481c       ___initenv                 100a081c     LIBCMTD:crt0dat.obj
 0003:00004820       __wenviron                 100a0820     LIBCMTD:crt0dat.obj
 0003:00004824       ___winitenv                100a0824     LIBCMTD:crt0dat.obj
 0003:00004828       __pgmptr                   100a0828     LIBCMTD:crt0dat.obj
 0003:0000482c       __wpgmptr                  100a082c     LIBCMTD:crt0dat.obj
 0003:00004830       __exitflag                 100a0830     LIBCMTD:crt0dat.obj
 0003:00004834       __C_Termination_Done       100a0834     LIBCMTD:crt0dat.obj
 0003:00004838       __C_Exit_Done              100a0838     LIBCMTD:crt0dat.obj
 0003:00004968       __adbgmsg                  100a0968     LIBCMTD:crt0msg.obj
 0003:0000497c       ___lc_handle               100a097c     LIBCMTD:nlsdata2.obj
 0003:00004994       ___lc_codepage             100a0994     LIBCMTD:nlsdata2.obj
 0003:00004998       ___lc_collate_cp           100a0998     LIBCMTD:nlsdata2.obj
 0003:000049a0       __cflush                   100a09a0     LIBCMTD:_file.obj
 0003:000049a4       __newmode                  100a09a4     LIBCMTD:_newmode.obj
 0003:000049a8       ?_pnhHeap@@3P6AHI@ZA       100a09a8     LIBCMTD:handler.obj
 0003:00004a70       ___lc_time_intl            100a0a70     LIBCMTD:inittime.obj
 0003:00004a8c       ___lc_id                   100a0a8c     LIBCMTD:nlsdata3.obj
 0003:00004b0c       ?_Index@ios_base@std@@0HA  100a0b0c     libcpmtd:ios.obj
 0003:00004b44       ?_Clocptr@_Locimp@locale@std@@0PAV123@A 100a0b44     libcpmtd:locale0.obj
 0003:00004b48       ?_Global@_Locimp@locale@std@@0PAV123@A 100a0b48     libcpmtd:locale0.obj
 0003:00004b4c       ?_Id_cnt@id@locale@std@@0HA 100a0b4c     libcpmtd:locale0.obj
 0003:00004b50       ?_Cltab@?$ctype@D@std@@0PBFB 100a0b50     libcpmtd:locale0.obj
 0003:00004b54       ?id@?$codecvt@DDH@std@@2V0locale@2@A 100a0b54     libcpmtd:locale.obj
 0003:00004b58       ?id@?$num_get@DV?$istreambuf_iterator@DU?$char_traits@D@std@@@std@@@std@@2V0locale@2@A 100a0b58     libcpmtd:locale.obj
 0003:00004b5c       ?id@?$ctype@D@std@@2V0locale@2@A 100a0b5c     libcpmtd:locale.obj
 0003:00004b60       ?id@?$numpunct@D@std@@2V0locale@2@A 100a0b60     libcpmtd:locale.obj
 0003:00004b64       ?id@?$num_put@DV?$ostreambuf_iterator@DU?$char_traits@D@std@@@std@@@std@@2V0locale@2@A 100a0b64     libcpmtd:locale.obj
 0003:00004b68       ?_Psave@?1??use_facet@std@@YAABV?$ctype@D@2@ABVlocale@2@PBV32@_N@Z@4PBVfacet@42@B 100a0b68     libcpmtd:locale.obj
 0003:00004b6c       ?_Psave@?1??use_facet@std@@YAABV?$num_get@DV?$istreambuf_iterator@DU?$char_traits@D@std@@@std@@@2@ABVlocale@2@PBV32@_N@Z@4PBVfacet@42@B 100a0b6c     libcpmtd:locale.obj
 0003:00004b70       ?_Psave@?1??use_facet@std@@YAABV?$codecvt@DDH@2@ABVlocale@2@PBV32@_N@Z@4PBVfacet@42@B 100a0b70     libcpmtd:locale.obj
 0003:00004b74       ?_Facsav@?$_Tidyfac@V?$ctype@D@std@@@std@@0PAV?$ctype@D@2@A 100a0b74     libcpmtd:locale.obj
 0003:00004b78       ?_Facsav@?$_Tidyfac@V?$num_get@DV?$istreambuf_iterator@DU?$char_traits@D@std@@@std@@@std@@@std@@0PAV?$num_get@DV?$istreambuf_iterator@DU?$char_traits@D@std@@@std@@@2@A 100a0b78     libcpmtd:locale.obj
 0003:00004b7c       ?_Facsav@?$_Tidyfac@V?$codecvt@DDH@std@@@std@@0PAV?$codecvt@DDH@2@A 100a0b7c     libcpmtd:locale.obj
 0003:00004b80       ?clog@std@@3V?$basic_ostream@DU?$char_traits@D@std@@@1@A 100a0b80     libcpmtd:iostream.obj
 0003:00004c10       ?cout@std@@3V?$basic_ostream@DU?$char_traits@D@std@@@1@A 100a0c10     libcpmtd:iostream.obj
 0003:00004ca0       ?cin@std@@3V?$basic_istream@DU?$char_traits@D@std@@@1@A 100a0ca0     libcpmtd:iostream.obj
 0003:00004d38       ?cerr@std@@3V?$basic_ostream@DU?$char_traits@D@std@@@1@A 100a0d38     libcpmtd:iostream.obj
 0003:00004d70       ?wcerr@std@@3V?$basic_ostream@GU?$char_traits@G@std@@@1@A 100a0d70     libcpmtd:wiostrea.obj
 0003:00004db0       ?wclog@std@@3V?$basic_ostream@GU?$char_traits@G@std@@@1@A 100a0db0     libcpmtd:wiostrea.obj
 0003:00004de8       ?wcin@std@@3V?$basic_istream@GU?$char_traits@G@std@@@1@A 100a0de8     libcpmtd:wiostrea.obj
 0003:00004ed8       ?wcout@std@@3V?$basic_ostream@GU?$char_traits@G@std@@@1@A 100a0ed8     libcpmtd:wiostrea.obj
 0003:00004f7c       ?id@?$numpunct@G@std@@2V0locale@2@A 100a0f7c     libcpmtd:wlocale.obj
 0003:00004f80       ?id@?$money_get@GV?$istreambuf_iterator@GU?$char_traits@G@std@@@std@@@std@@2V0locale@2@A 100a0f80     libcpmtd:wlocale.obj
 0003:00004f84       ?id@?$messages@G@std@@2V0locale@2@A 100a0f84     libcpmtd:wlocale.obj
 0003:00004f88       ?id@?$moneypunct@G$00@std@@2V0locale@2@A 100a0f88     libcpmtd:wlocale.obj
 0003:00004f8c       ?id@?$num_put@GV?$ostreambuf_iterator@GU?$char_traits@G@std@@@std@@@std@@2V0locale@2@A 100a0f8c     libcpmtd:wlocale.obj
 0003:00004f90       ?id@?$collate@G@std@@2V0locale@2@A 100a0f90     libcpmtd:wlocale.obj
 0003:00004f94       ?id@?$time_get@GV?$istreambuf_iterator@GU?$char_traits@G@std@@@std@@@std@@2V0locale@2@A 100a0f94     libcpmtd:wlocale.obj
 0003:00004f98       ?id@?$ctype@G@std@@2V0locale@2@A 100a0f98     libcpmtd:wlocale.obj
 0003:00004f9c       ?id@?$num_get@GV?$istreambuf_iterator@GU?$char_traits@G@std@@@std@@@std@@2V0locale@2@A 100a0f9c     libcpmtd:wlocale.obj
 0003:00004fa0       ?id@?$codecvt@GDH@std@@2V0locale@2@A 100a0fa0     libcpmtd:wlocale.obj
 0003:00004fa4       ?id@?$time_put@GV?$ostreambuf_iterator@GU?$char_traits@G@std@@@std@@@std@@2V0locale@2@A 100a0fa4     libcpmtd:wlocale.obj
 0003:00004fa8       ?id@?$moneypunct@G$0A@@std@@2V0locale@2@A 100a0fa8     libcpmtd:wlocale.obj
 0003:00004fac       ?id@?$money_put@GV?$ostreambuf_iterator@GU?$char_traits@G@std@@@std@@@std@@2V0locale@2@A 100a0fac     libcpmtd:wlocale.obj
 0003:00004fb0       ?_Psave@?1??use_facet@std@@YAABV?$ctype@G@2@ABVlocale@2@PBV32@_N@Z@4PBVfacet@42@B 100a0fb0     libcpmtd:wlocale.obj
 0003:00004fb4       ?_Psave@?1??use_facet@std@@YAABV?$num_get@GV?$istreambuf_iterator@GU?$char_traits@G@std@@@std@@@2@ABVlocale@2@PBV32@_N@Z@4PBVfacet@42@B 100a0fb4     libcpmtd:wlocale.obj
 0003:00004fb8       ?_Psave@?1??use_facet@std@@YAABV?$num_put@GV?$ostreambuf_iterator@GU?$char_traits@G@std@@@std@@@2@ABVlocale@2@PBV32@_N@Z@4PBVfacet@42@B 100a0fb8     libcpmtd:wlocale.obj
 0003:00004fbc       ?_Psave@?1??use_facet@std@@YAABV?$numpunct@G@2@ABVlocale@2@PBV32@_N@Z@4PBVfacet@42@B 100a0fbc     libcpmtd:wlocale.obj
 0003:00004fc0       ?_Psave@?1??use_facet@std@@YAABV?$collate@G@2@ABVlocale@2@PBV32@_N@Z@4PBVfacet@42@B 100a0fc0     libcpmtd:wlocale.obj
 0003:00004fc4       ?_Psave@?1??use_facet@std@@YAABV?$messages@G@2@ABVlocale@2@PBV32@_N@Z@4PBVfacet@42@B 100a0fc4     libcpmtd:wlocale.obj
 0003:00004fc8       ?_Psave@?1??use_facet@std@@YAABV?$money_get@GV?$istreambuf_iterator@GU?$char_traits@G@std@@@std@@@2@ABVlocale@2@PBV32@_N@Z@4PBVfacet@42@B 100a0fc8     libcpmtd:wlocale.obj
 0003:00004fcc       ?_Psave@?1??use_facet@std@@YAABV?$money_put@GV?$ostreambuf_iterator@GU?$char_traits@G@std@@@std@@@2@ABVlocale@2@PBV32@_N@Z@4PBVfacet@42@B 100a0fcc     libcpmtd:wlocale.obj
 0003:00004fd0       ?_Psave@?1??use_facet@std@@YAABV?$moneypunct@G$0A@@2@ABVlocale@2@PBV32@_N@Z@4PBVfacet@42@B 100a0fd0     libcpmtd:wlocale.obj
 0003:00004fd4       ?_Psave@?1??use_facet@std@@YAABV?$moneypunct@G$00@2@ABVlocale@2@PBV32@_N@Z@4PBVfacet@42@B 100a0fd4     libcpmtd:wlocale.obj
 0003:00004fd8       ?_Psave@?1??use_facet@std@@YAABV?$time_get@GV?$istreambuf_iterator@GU?$char_traits@G@std@@@std@@@2@ABVlocale@2@PBV32@_N@Z@4PBVfacet@42@B 100a0fd8     libcpmtd:wlocale.obj
 0003:00004fdc       ?_Psave@?1??use_facet@std@@YAABV?$time_put@GV?$ostreambuf_iterator@GU?$char_traits@G@std@@@std@@@2@ABVlocale@2@PBV32@_N@Z@4PBVfacet@42@B 100a0fdc     libcpmtd:wlocale.obj
 0003:00004fe0       ?_Psave@?1??use_facet@std@@YAABV?$codecvt@GDH@2@ABVlocale@2@PBV32@_N@Z@4PBVfacet@42@B 100a0fe0     libcpmtd:wlocale.obj
 0003:00004fe4       ?_Facsav@?$_Tidyfac@V?$ctype@G@std@@@std@@0PAV?$ctype@G@2@A 100a0fe4     libcpmtd:wlocale.obj
 0003:00004fe8       ?_Facsav@?$_Tidyfac@V?$num_get@GV?$istreambuf_iterator@GU?$char_traits@G@std@@@std@@@std@@@std@@0PAV?$num_get@GV?$istreambuf_iterator@GU?$char_traits@G@std@@@std@@@2@A 100a0fe8     libcpmtd:wlocale.obj
 0003:00004fec       ?_Facsav@?$_Tidyfac@V?$num_put@GV?$ostreambuf_iterator@GU?$char_traits@G@std@@@std@@@std@@@std@@0PAV?$num_put@GV?$ostreambuf_iterator@GU?$char_traits@G@std@@@std@@@2@A 100a0fec     libcpmtd:wlocale.obj
 0003:00004ff0       ?_Facsav@?$_Tidyfac@V?$numpunct@G@std@@@std@@0PAV?$numpunct@G@2@A 100a0ff0     libcpmtd:wlocale.obj
 0003:00004ff4       ?_Facsav@?$_Tidyfac@V?$collate@G@std@@@std@@0PAV?$collate@G@2@A 100a0ff4     libcpmtd:wlocale.obj
 0003:00004ff8       ?_Facsav@?$_Tidyfac@V?$messages@G@std@@@std@@0PAV?$messages@G@2@A 100a0ff8     libcpmtd:wlocale.obj
 0003:00004ffc       ?_Facsav@?$_Tidyfac@V?$money_get@GV?$istreambuf_iterator@GU?$char_traits@G@std@@@std@@@std@@@std@@0PAV?$money_get@GV?$istreambuf_iterator@GU?$char_traits@G@std@@@std@@@2@A 100a0ffc     libcpmtd:wlocale.obj
 0003:00005000       ?_Facsav@?$_Tidyfac@V?$money_put@GV?$ostreambuf_iterator@GU?$char_traits@G@std@@@std@@@std@@@std@@0PAV?$money_put@GV?$ostreambuf_iterator@GU?$char_traits@G@std@@@std@@@2@A 100a1000     libcpmtd:wlocale.obj
 0003:00005004       ?_Facsav@?$_Tidyfac@V?$moneypunct@G$0A@@std@@@std@@0PAV?$moneypunct@G$0A@@2@A 100a1004     libcpmtd:wlocale.obj
 0003:00005008       ?_Facsav@?$_Tidyfac@V?$moneypunct@G$00@std@@@std@@0PAV?$moneypunct@G$00@2@A 100a1008     libcpmtd:wlocale.obj
 0003:0000500c       ?_Facsav@?$_Tidyfac@V?$time_get@GV?$istreambuf_iterator@GU?$char_traits@G@std@@@std@@@std@@@std@@0PAV?$time_get@GV?$istreambuf_iterator@GU?$char_traits@G@std@@@std@@@2@A 100a100c     libcpmtd:wlocale.obj
 0003:00005010       ?_Facsav@?$_Tidyfac@V?$time_put@GV?$ostreambuf_iterator@GU?$char_traits@G@std@@@std@@@std@@@std@@0PAV?$time_put@GV?$ostreambuf_iterator@GU?$char_traits@G@std@@@std@@@2@A 100a1010     libcpmtd:wlocale.obj
 0003:00005014       ?_Facsav@?$_Tidyfac@V?$codecvt@GDH@std@@@std@@0PAV?$codecvt@GDH@2@A 100a1014     libcpmtd:wlocale.obj
 0003:00005018       ?id@?$money_put@DV?$ostreambuf_iterator@DU?$char_traits@D@std@@@std@@@std@@2V0locale@2@A 100a1018     libcpmtd:xlocale.obj
 0003:0000501c       ?id@?$moneypunct@D$00@std@@2V0locale@2@A 100a101c     libcpmtd:xlocale.obj
 0003:00005020       ?id@?$time_get@DV?$istreambuf_iterator@DU?$char_traits@D@std@@@std@@@std@@2V0locale@2@A 100a1020     libcpmtd:xlocale.obj
 0003:00005024       ?id@?$time_put@DV?$ostreambuf_iterator@DU?$char_traits@D@std@@@std@@@std@@2V0locale@2@A 100a1024     libcpmtd:xlocale.obj
 0003:00005028       ?id@?$messages@D@std@@2V0locale@2@A 100a1028     libcpmtd:xlocale.obj
 0003:0000502c       ?id@?$moneypunct@D$0A@@std@@2V0locale@2@A 100a102c     libcpmtd:xlocale.obj
 0003:00005030       ?id@?$money_get@DV?$istreambuf_iterator@DU?$char_traits@D@std@@@std@@@std@@2V0locale@2@A 100a1030     libcpmtd:xlocale.obj
 0003:00005034       ?id@?$collate@D@std@@2V0locale@2@A 100a1034     libcpmtd:xlocale.obj
 0003:00005038       ?_Psave@?1??use_facet@std@@YAABV?$collate@D@2@ABVlocale@2@PBV32@_N@Z@4PBVfacet@42@B 100a1038     libcpmtd:xlocale.obj
 0003:0000503c       ?_Psave@?1??use_facet@std@@YAABV?$messages@D@2@ABVlocale@2@PBV32@_N@Z@4PBVfacet@42@B 100a103c     libcpmtd:xlocale.obj
 0003:00005040       ?_Psave@?1??use_facet@std@@YAABV?$money_get@DV?$istreambuf_iterator@DU?$char_traits@D@std@@@std@@@2@ABVlocale@2@PBV32@_N@Z@4PBVfacet@42@B 100a1040     libcpmtd:xlocale.obj
 0003:00005044       ?_Psave@?1??use_facet@std@@YAABV?$money_put@DV?$ostreambuf_iterator@DU?$char_traits@D@std@@@std@@@2@ABVlocale@2@PBV32@_N@Z@4PBVfacet@42@B 100a1044     libcpmtd:xlocale.obj
 0003:00005048       ?_Psave@?1??use_facet@std@@YAABV?$moneypunct@D$0A@@2@ABVlocale@2@PBV32@_N@Z@4PBVfacet@42@B 100a1048     libcpmtd:xlocale.obj
 0003:0000504c       ?_Psave@?1??use_facet@std@@YAABV?$moneypunct@D$00@2@ABVlocale@2@PBV32@_N@Z@4PBVfacet@42@B 100a104c     libcpmtd:xlocale.obj
 0003:00005050       ?_Psave@?1??use_facet@std@@YAABV?$time_get@DV?$istreambuf_iterator@DU?$char_traits@D@std@@@std@@@2@ABVlocale@2@PBV32@_N@Z@4PBVfacet@42@B 100a1050     libcpmtd:xlocale.obj
 0003:00005054       ?_Psave@?1??use_facet@std@@YAABV?$time_put@DV?$ostreambuf_iterator@DU?$char_traits@D@std@@@std@@@2@ABVlocale@2@PBV32@_N@Z@4PBVfacet@42@B 100a1054     libcpmtd:xlocale.obj
 0003:00005058       ?_Facsav@?$_Tidyfac@V?$collate@D@std@@@std@@0PAV?$collate@D@2@A 100a1058     libcpmtd:xlocale.obj
 0003:0000505c       ?_Facsav@?$_Tidyfac@V?$messages@D@std@@@std@@0PAV?$messages@D@2@A 100a105c     libcpmtd:xlocale.obj
 0003:00005060       ?_Facsav@?$_Tidyfac@V?$money_get@DV?$istreambuf_iterator@DU?$char_traits@D@std@@@std@@@std@@@std@@0PAV?$money_get@DV?$istreambuf_iterator@DU?$char_traits@D@std@@@std@@@2@A 100a1060     libcpmtd:xlocale.obj
 0003:00005064       ?_Facsav@?$_Tidyfac@V?$money_put@DV?$ostreambuf_iterator@DU?$char_traits@D@std@@@std@@@std@@@std@@0PAV?$money_put@DV?$ostreambuf_iterator@DU?$char_traits@D@std@@@std@@@2@A 100a1064     libcpmtd:xlocale.obj
 0003:00005068       ?_Facsav@?$_Tidyfac@V?$moneypunct@D$0A@@std@@@std@@0PAV?$moneypunct@D$0A@@2@A 100a1068     libcpmtd:xlocale.obj
 0003:0000506c       ?_Facsav@?$_Tidyfac@V?$moneypunct@D$00@std@@@std@@0PAV?$moneypunct@D$00@2@A 100a106c     libcpmtd:xlocale.obj
 0003:00005070       ?_Facsav@?$_Tidyfac@V?$time_get@DV?$istreambuf_iterator@DU?$char_traits@D@std@@@std@@@std@@@std@@0PAV?$time_get@DV?$istreambuf_iterator@DU?$char_traits@D@std@@@std@@@2@A 100a1070     libcpmtd:xlocale.obj
 0003:00005074       ?_Facsav@?$_Tidyfac@V?$time_put@DV?$ostreambuf_iterator@DU?$char_traits@D@std@@@std@@@std@@@std@@0PAV?$time_put@DV?$ostreambuf_iterator@DU?$char_traits@D@std@@@std@@@2@A 100a1074     libcpmtd:xlocale.obj
 0003:00005084       ??_B?1???id@?$ctype@G@std@@$D@@9@51 100a1084     <common>
 0003:00005090       ?_Stinit@?1??_Init@?$basic_filebuf@DU?$char_traits@D@std@@@std@@IAEXPAU_iobuf@@W4_Initfl@23@@Z@4HA 100a1090     <common>
 0003:0000509c       ??_B?1???id@?$numpunct@D@std@@$D@@9@51 100a109c     <common>
 0003:000050ae       ??_B?1???id@?$num_put@DV?$ostreambuf_iterator@DU?$char_traits@D@std@@@$D@@9@51 100a10ae     <common>
 0003:000050b0       ?_Stz@?$fpos@H@std@@0HA    100a10b0     <common>
 0003:000050b4       ___alternate_form          100a10b4     <common>
 0003:000050c4       ___no_lead_zeros           100a10c4     <common>
 0003:000050c8       ___mbcodepage              100a10c8     <common>
 0003:00005140       ___mbulinfo                100a1140     <common>
 0003:0000514c       ___ismbcodepage            100a114c     <common>
 0003:00005160       __mbcasemap                100a1160     <common>
 0003:00005260       __mbctype                  100a1260     <common>
 0003:00005364       ___mblcid                  100a1364     <common>
 0003:00005368       ___sbh_sizeHeaderList      100a1368     <common>
 0003:00005378       ___sbh_indGroupDefer       100a1378     <common>
 0003:0000537c       ___sbh_pHeaderScan         100a137c     <common>
 0003:00005380       ___sbh_pHeaderDefer        100a1380     <common>
 0003:00005384       ___sbh_cntHeaderList       100a1384     <common>
 0003:00005388       ___sbh_pHeaderList         100a1388     <common>
 0003:0000538c       ___piob                    100a138c     <common>
 0003:000056e0       __bufin                    100a16e0     <common>
 0003:000066e0       __nstream                  100a26e0     <common>
 0003:000066e4       ___setlc_active            100a26e4     <common>
 0003:000066f4       ___unguarded_readlc_active 100a26f4     <common>
 0003:000066f8       __crtheap                  100a26f8     <common>
 0003:00006720       ___pioinfo                 100a2720     <common>
 0003:0000685c       __nhandle                  100a285c     <common>
 0003:00006860       ___env_initialized         100a2860     <common>
 0003:00006870       ___mbctype_initialized     100a2870     <common>
 0003:00006874       ___onexitend               100a2874     <common>
 0003:00006878       ___onexitbegin             100a2878     <common>
 0003:0000687c       __pfnDumpClient            100a287c     <common>
 0003:00006888       __acmdln                   100a2888     <common>
 0003:00006898       __pRawDllMain              100a2898     <common>
 0003:0000689c       __pfnReportHook            100a289c     <common>
 0003:000068a8       ?_Stinit@?1??_Init@?$basic_filebuf@GU?$char_traits@G@std@@@std@@IAEXPAU_iobuf@@W4_Initfl@23@@Z@4HA 100a28a8     <common>
 0003:000068b4       ??_B?1???id@?$collate@D@std@@$D@@9@51 100a28b4     <common>
 0004:00000000       __IMPORT_DESCRIPTOR_KERNEL32 100a3000     kernel32:KERNEL32.dll
 0004:00000014       __IMPORT_DESCRIPTOR_WS2_32 100a3014     ws2_32:WS2_32.dll
 0004:00000028       __IMPORT_DESCRIPTOR_VERSION 100a3028     Version:VERSION.dll
 0004:0000003c       __IMPORT_DESCRIPTOR_USER32 100a303c     user32:USER32.dll
 0004:00000050       __IMPORT_DESCRIPTOR_ADVAPI32 100a3050     advapi32:ADVAPI32.dll
 0004:00000064       __NULL_IMPORT_DESCRIPTOR   100a3064     kernel32:KERNEL32.dll
 0004:000003a0       __imp__GetUserNameA@8      100a33a0     advapi32:ADVAPI32.dll
 0004:000003a4       \177ADVAPI32_NULL_THUNK_DATA 100a33a4     advapi32:ADVAPI32.dll
 0004:000003d0       __imp__DeleteCriticalSection@4 100a33d0     kernel32:KERNEL32.dll
 0004:000003d4       __imp__InterlockedDecrement@4 100a33d4     kernel32:KERNEL32.dll
 0004:000003d8       __imp__LeaveCriticalSection@4 100a33d8     kernel32:KERNEL32.dll
 0004:000003dc       __imp__WriteConsoleA@20    100a33dc     kernel32:KERNEL32.dll
 0004:000003e0       __imp__EnterCriticalSection@4 100a33e0     kernel32:KERNEL32.dll
 0004:000003e4       __imp__InitializeCriticalSection@4 100a33e4     kernel32:KERNEL32.dll
 0004:000003e8       __imp__InterlockedIncrement@4 100a33e8     kernel32:KERNEL32.dll
 0004:000003ec       __imp__InterlockedExchange@8 100a33ec     kernel32:KERNEL32.dll
 0004:000003f0       __imp__SetEnvironmentVariableA@8 100a33f0     kernel32:KERNEL32.dll
 0004:000003f4       __imp__CompareStringW@24   100a33f4     kernel32:KERNEL32.dll
 0004:000003f8       __imp__CompareStringA@24   100a33f8     kernel32:KERNEL32.dll
 0004:000003fc       __imp__GetLocaleInfoW@16   100a33fc     kernel32:KERNEL32.dll
 0004:00000400       __imp__ReadFile@20         100a3400     kernel32:KERNEL32.dll
 0004:00000404       __imp__SetStdHandle@8      100a3404     kernel32:KERNEL32.dll
 0004:00000408       __imp__GetStringTypeW@16   100a3408     kernel32:KERNEL32.dll
 0004:0000040c       __imp__GetStringTypeA@20   100a340c     kernel32:KERNEL32.dll
 0004:00000410       __imp__GetVersionExA@4     100a3410     kernel32:KERNEL32.dll
 0004:00000414       __imp__GetUserDefaultLCID@0 100a3414     kernel32:KERNEL32.dll
 0004:00000418       __imp__EnumSystemLocalesA@8 100a3418     kernel32:KERNEL32.dll
 0004:0000041c       __imp__GetLocaleInfoA@16   100a341c     kernel32:KERNEL32.dll
 0004:00000420       __imp__IsValidCodePage@4   100a3420     kernel32:KERNEL32.dll
 0004:00000424       __imp__IsValidLocale@8     100a3424     kernel32:KERNEL32.dll
 0004:00000428       __imp__GetOEMCP@0          100a3428     kernel32:KERNEL32.dll
 0004:0000042c       __imp__GetACP@0            100a342c     kernel32:KERNEL32.dll
 0004:00000430       __imp__GetCPInfo@8         100a3430     kernel32:KERNEL32.dll
 0004:00000434       __imp__IsBadCodePtr@4      100a3434     kernel32:KERNEL32.dll
 0004:00000438       __imp__VirtualAlloc@16     100a3438     kernel32:KERNEL32.dll
 0004:0000043c       __imp__HeapReAlloc@16      100a343c     kernel32:KERNEL32.dll
 0004:00000440       __imp__HeapAlloc@12        100a3440     kernel32:KERNEL32.dll
 0004:00000444       __imp__UnhandledExceptionFilter@4 100a3444     kernel32:KERNEL32.dll
 0004:00000448       __imp__FlushFileBuffers@4  100a3448     kernel32:KERNEL32.dll
 0004:0000044c       __imp__SetFilePointer@16   100a344c     kernel32:KERNEL32.dll
 0004:00000450       __imp__LCMapStringW@24     100a3450     kernel32:KERNEL32.dll
 0004:00000454       __imp__GetLastError@0      100a3454     kernel32:KERNEL32.dll
 0004:00000458       __imp__WaitForMultipleObjects@16 100a3458     kernel32:KERNEL32.dll
 0004:0000045c       __imp__GetCurrentThreadId@0 100a345c     kernel32:KERNEL32.dll
 0004:00000460       __imp__FormatMessageA@28   100a3460     kernel32:KERNEL32.dll
 0004:00000464       __imp__GetCurrentDirectoryA@8 100a3464     kernel32:KERNEL32.dll
 0004:00000468       __imp__GetModuleFileNameA@12 100a3468     kernel32:KERNEL32.dll
 0004:0000046c       __imp__GetSystemTime@4     100a346c     kernel32:KERNEL32.dll
 0004:00000470       __imp__GetLocalTime@4      100a3470     kernel32:KERNEL32.dll
 0004:00000474       __imp__GetComputerNameA@8  100a3474     kernel32:KERNEL32.dll
 0004:00000478       __imp__SetLastError@4      100a3478     kernel32:KERNEL32.dll
 0004:0000047c       __imp__CloseHandle@4       100a347c     kernel32:KERNEL32.dll
 0004:00000480       __imp__WaitForSingleObject@8 100a3480     kernel32:KERNEL32.dll
 0004:00000484       __imp__TerminateThread@8   100a3484     kernel32:KERNEL32.dll
 0004:00000488       __imp__CreateEventA@16     100a3488     kernel32:KERNEL32.dll
 0004:0000048c       __imp__ResetEvent@4        100a348c     kernel32:KERNEL32.dll
 0004:00000490       __imp__SetEvent@4          100a3490     kernel32:KERNEL32.dll
 0004:00000494       __imp__PulseEvent@4        100a3494     kernel32:KERNEL32.dll
 0004:00000498       __imp__OutputDebugStringA@4 100a3498     kernel32:KERNEL32.dll
 0004:0000049c       __imp__GetTimeZoneInformation@4 100a349c     kernel32:KERNEL32.dll
 0004:000004a0       __imp__RtlUnwind@16        100a34a0     kernel32:KERNEL32.dll
 0004:000004a4       __imp__DebugBreak@0        100a34a4     kernel32:KERNEL32.dll
 0004:000004a8       __imp__GetStdHandle@4      100a34a8     kernel32:KERNEL32.dll
 0004:000004ac       __imp__WriteFile@20        100a34ac     kernel32:KERNEL32.dll
 0004:000004b0       __imp__GetProcAddress@8    100a34b0     kernel32:KERNEL32.dll
 0004:000004b4       __imp__LoadLibraryA@4      100a34b4     kernel32:KERNEL32.dll
 0004:000004b8       __imp__GetCommandLineA@0   100a34b8     kernel32:KERNEL32.dll
 0004:000004bc       __imp__GetVersion@0        100a34bc     kernel32:KERNEL32.dll
 0004:000004c0       __imp__RaiseException@16   100a34c0     kernel32:KERNEL32.dll
 0004:000004c4       __imp__CreateThread@24     100a34c4     kernel32:KERNEL32.dll
 0004:000004c8       __imp__TlsSetValue@8       100a34c8     kernel32:KERNEL32.dll
 0004:000004cc       __imp__ExitThread@4        100a34cc     kernel32:KERNEL32.dll
 0004:000004d0       __imp__IsBadWritePtr@8     100a34d0     kernel32:KERNEL32.dll
 0004:000004d4       __imp__IsBadReadPtr@8      100a34d4     kernel32:KERNEL32.dll
 0004:000004d8       __imp__HeapValidate@12     100a34d8     kernel32:KERNEL32.dll
 0004:000004dc       __imp__TlsAlloc@0          100a34dc     kernel32:KERNEL32.dll
 0004:000004e0       __imp__TlsFree@4           100a34e0     kernel32:KERNEL32.dll
 0004:000004e4       __imp__TlsGetValue@4       100a34e4     kernel32:KERNEL32.dll
 0004:000004e8       __imp__GetCurrentThread@0  100a34e8     kernel32:KERNEL32.dll
 0004:000004ec       __imp__ExitProcess@4       100a34ec     kernel32:KERNEL32.dll
 0004:000004f0       __imp__FatalAppExitA@8     100a34f0     kernel32:KERNEL32.dll
 0004:000004f4       __imp__HeapFree@12         100a34f4     kernel32:KERNEL32.dll
 0004:000004f8       __imp__TerminateProcess@8  100a34f8     kernel32:KERNEL32.dll
 0004:000004fc       __imp__GetCurrentProcess@0 100a34fc     kernel32:KERNEL32.dll
 0004:00000500       __imp__SetConsoleCtrlHandler@8 100a3500     kernel32:KERNEL32.dll
 0004:00000504       __imp__SetHandleCount@4    100a3504     kernel32:KERNEL32.dll
 0004:00000508       __imp__GetFileType@4       100a3508     kernel32:KERNEL32.dll
 0004:0000050c       __imp__GetStartupInfoA@4   100a350c     kernel32:KERNEL32.dll
 0004:00000510       __imp__FreeEnvironmentStringsA@4 100a3510     kernel32:KERNEL32.dll
 0004:00000514       __imp__FreeEnvironmentStringsW@4 100a3514     kernel32:KERNEL32.dll
 0004:00000518       __imp__WideCharToMultiByte@32 100a3518     kernel32:KERNEL32.dll
 0004:0000051c       __imp__GetEnvironmentStrings@0 100a351c     kernel32:KERNEL32.dll
 0004:00000520       __imp__GetEnvironmentStringsW@0 100a3520     kernel32:KERNEL32.dll
 0004:00000524       __imp__HeapDestroy@4       100a3524     kernel32:KERNEL32.dll
 0004:00000528       __imp__HeapCreate@12       100a3528     kernel32:KERNEL32.dll
 0004:0000052c       __imp__VirtualFree@12      100a352c     kernel32:KERNEL32.dll
 0004:00000530       __imp__SetUnhandledExceptionFilter@4 100a3530     kernel32:KERNEL32.dll
 0004:00000534       __imp__GetModuleHandleA@4  100a3534     kernel32:KERNEL32.dll
 0004:00000538       __imp__Sleep@4             100a3538     kernel32:KERNEL32.dll
 0004:0000053c       __imp__MultiByteToWideChar@24 100a353c     kernel32:KERNEL32.dll
 0004:00000540       __imp__LCMapStringA@24     100a3540     kernel32:KERNEL32.dll
 0004:00000544       __imp__CreateFileA@28      100a3544     kernel32:KERNEL32.dll
 0004:00000548       \177KERNEL32_NULL_THUNK_DATA 100a3548     kernel32:KERNEL32.dll
 0004:000005bc       __imp__MessageBeep@4       100a35bc     user32:USER32.dll
 0004:000005c0       __imp__wsprintfA           100a35c0     user32:USER32.dll
 0004:000005c4       __imp__MessageBoxA@16      100a35c4     user32:USER32.dll
 0004:000005c8       \177USER32_NULL_THUNK_DATA 100a35c8     user32:USER32.dll
 0004:000005f4       __imp__VerQueryValueA@16   100a35f4     Version:VERSION.dll
 0004:000005f8       __imp__GetFileVersionInfoA@16 100a35f8     Version:VERSION.dll
 0004:000005fc       __imp__GetFileVersionInfoSizeA@8 100a35fc     Version:VERSION.dll
 0004:00000600       \177VERSION_NULL_THUNK_DATA 100a3600     Version:VERSION.dll
 0004:0000062c       __imp__bind@12             100a362c     ws2_32:WS2_32.dll
 0004:00000630       __imp__listen@8            100a3630     ws2_32:WS2_32.dll
 0004:00000634       __imp__shutdown@8          100a3634     ws2_32:WS2_32.dll
 0004:00000638       __imp__WSACleanup@0        100a3638     ws2_32:WS2_32.dll
 0004:0000063c       __imp__WSAStartup@8        100a363c     ws2_32:WS2_32.dll
 0004:00000640       __imp__WSACreateEvent@0    100a3640     ws2_32:WS2_32.dll
 0004:00000644       __imp__WSAEventSelect@12   100a3644     ws2_32:WS2_32.dll
 0004:00000648       __imp__WSACloseEvent@4     100a3648     ws2_32:WS2_32.dll
 0004:0000064c       __imp__connect@12          100a364c     ws2_32:WS2_32.dll
 0004:00000650       __imp__gethostbyname@4     100a3650     ws2_32:WS2_32.dll
 0004:00000654       __imp__recv@16             100a3654     ws2_32:WS2_32.dll
 0004:00000658       __imp__WSASend@28          100a3658     ws2_32:WS2_32.dll
 0004:0000065c       __imp__select@20           100a365c     ws2_32:WS2_32.dll
 0004:00000660       __imp__WSARecv@28          100a3660     ws2_32:WS2_32.dll
 0004:00000664       __imp__WSAWaitForMultipleEvents@20 100a3664     ws2_32:WS2_32.dll
 0004:00000668       __imp__WSAEnumNetworkEvents@12 100a3668     ws2_32:WS2_32.dll
 0004:0000066c       __imp__WSASocketA@24       100a366c     ws2_32:WS2_32.dll
 0004:00000670       __imp__htonl@4             100a3670     ws2_32:WS2_32.dll
 0004:00000674       __imp__htons@4             100a3674     ws2_32:WS2_32.dll
 0004:00000678       __imp__inet_addr@4         100a3678     ws2_32:WS2_32.dll
 0004:0000067c       __imp__setsockopt@20       100a367c     ws2_32:WS2_32.dll
 0004:00000680       __imp__WSAGetLastError@0   100a3680     ws2_32:WS2_32.dll
 0004:00000684       __imp__closesocket@4       100a3684     ws2_32:WS2_32.dll
 0004:00000688       __imp__gethostname@8       100a3688     ws2_32:WS2_32.dll
 0004:0000068c       \177WS2_32_NULL_THUNK_DATA 100a368c     ws2_32:WS2_32.dll

 entry point at        0001:000147d0

